Archive member included because of file (symbol)

/usr/lib/gcc-lib/arm-elf/3.2/be/libgcc.a(_udivsi3.o)
                              ./objs/root.o (__udivsi3)
/usr/lib/gcc-lib/arm-elf/3.2/be/libgcc.a(_umodsi3.o)
                              ./objs/root.o (__umodsi3)
/usr/lib/gcc-lib/arm-elf/3.2/be/libgcc.a(_dvmd_tls.o)
                              /usr/lib/gcc-lib/arm-elf/3.2/be/libgcc.a(_udivsi3.o) (__div0)
/usr/lib/gcc-lib/arm-elf/3.2/be/libgcc.a(_addsub_sf.o)
                              ./objs/root.o (__addsf3)
/usr/lib/gcc-lib/arm-elf/3.2/be/libgcc.a(_div_sf.o)
                              ./objs/root.o (__divsf3)
/usr/lib/gcc-lib/arm-elf/3.2/be/libgcc.a(_si_to_sf.o)
                              ./objs/root.o (__floatsisf)
/usr/lib/gcc-lib/arm-elf/3.2/be/libgcc.a(_sf_to_df.o)
                              ./objs/root.o (__extendsfdf2)
/usr/lib/gcc-lib/arm-elf/3.2/be/libgcc.a(_thenan_sf.o)
                              /usr/lib/gcc-lib/arm-elf/3.2/be/libgcc.a(_addsub_sf.o) (__thenan_sf)
/usr/lib/gcc-lib/arm-elf/3.2/be/libgcc.a(_div_df.o)
                              ./objs/EARMIBAction.o (__divdf3)
/usr/lib/gcc-lib/arm-elf/3.2/be/libgcc.a(_make_df.o)
                              /usr/lib/gcc-lib/arm-elf/3.2/be/libgcc.a(_sf_to_df.o) (__make_dp)
/usr/lib/gcc-lib/arm-elf/3.2/be/libgcc.a(_df_to_sf.o)
                              ./objs/EARMIBAction.o (__truncdfsf2)
/usr/lib/gcc-lib/arm-elf/3.2/be/libgcc.a(_thenan_df.o)
                              /usr/lib/gcc-lib/arm-elf/3.2/be/libgcc.a(_div_df.o) (__thenan_df)
/usr/lib/gcc-lib/arm-elf/3.2/be/libgcc.a(_pack_sf.o)
                              /usr/lib/gcc-lib/arm-elf/3.2/be/libgcc.a(_addsub_sf.o) (__pack_f)
/usr/lib/gcc-lib/arm-elf/3.2/be/libgcc.a(_unpack_sf.o)
                              /usr/lib/gcc-lib/arm-elf/3.2/be/libgcc.a(_addsub_sf.o) (__unpack_f)
/usr/lib/gcc-lib/arm-elf/3.2/be/libgcc.a(_make_sf.o)
                              /usr/lib/gcc-lib/arm-elf/3.2/be/libgcc.a(_df_to_sf.o) (__make_fp)
/usr/lib/gcc-lib/arm-elf/3.2/be/libgcc.a(_pack_df.o)
                              /usr/lib/gcc-lib/arm-elf/3.2/be/libgcc.a(_div_df.o) (__pack_d)
/usr/lib/gcc-lib/arm-elf/3.2/be/libgcc.a(_unpack_df.o)
                              /usr/lib/gcc-lib/arm-elf/3.2/be/libgcc.a(_div_df.o) (__unpack_d)
/usr/lib/gcc-lib/arm-elf/3.2/be/libgcc.a(_lshrdi3.o)
                              /usr/lib/gcc-lib/arm-elf/3.2/be/libgcc.a(_pack_df.o) (__lshrdi3)
/usr/lib/gcc-lib/arm-elf/3.2/be/libgcc.a(_ashldi3.o)
                              /usr/lib/gcc-lib/arm-elf/3.2/be/libgcc.a(_pack_df.o) (__ashldi3)
../../../../lib/32b/gnu/libc.a(atof.o)
                              ./objs/EDFAWelcomePage_v.o (atof)
../../../../lib/32b/gnu/libc.a(atoi.o)
                              ./objs/menu.o (atoi)
../../../../lib/32b/gnu/libc.a(calloc.o)
                              ./objs/ipgFlash.o (calloc)
../../../../lib/32b/gnu/libc.a(callocr.o)
                              ../../../../lib/32b/gnu/libc.a(calloc.o) (_calloc_r)
../../../../lib/32b/gnu/libc.a(exit.o)
                              ../../../../lib/32b/gnu/crt0.o (exit)
../../../../lib/32b/gnu/libc.a(fflush.o)
                              ./objs/root.o (fflush)
../../../../lib/32b/gnu/libc.a(findfp.o)
                              ../../../../lib/32b/gnu/libc.a(fflush.o) (__sinit)
../../../../lib/32b/gnu/libc.a(fwalk.o)
                              ../../../../lib/32b/gnu/libc.a(fflush.o) (_fwalk)
../../../../lib/32b/gnu/libc.a(impure.o)
                              ./objs/root.o (_impure_ptr)
../../../../lib/32b/gnu/libc.a(isdigit.o)
                              ./objs/readFrom2U2.o (isdigit)
../../../../lib/32b/gnu/libc.a(isspace.o)
                              ./objs/readFrom2U2.o (isspace)
../../../../lib/32b/gnu/libc.a(lcltime.o)
                              ./objs/ipgFlash.o (localtime)
../../../../lib/32b/gnu/libc.a(lcltime_r.o)
                              ../../../../lib/32b/gnu/libc.a(lcltime.o) (localtime_r)
../../../../lib/32b/gnu/libc.a(malloc.o)
                              ./objs/root.o (malloc)
../../../../lib/32b/gnu/libc.a(mallocr.o)
                              ../../../../lib/32b/gnu/libc.a(callocr.o) (_malloc_r)
../../../../lib/32b/gnu/libc.a(memcmp.o)
                              ./objs/EARMIBAction.o (memcmp)
../../../../lib/32b/gnu/libc.a(memcpy.o)
                              ./objs/root.o (memcpy)
../../../../lib/32b/gnu/libc.a(memset.o)
                              ./objs/root.o (memset)
../../../../lib/32b/gnu/libc.a(mktm_r.o)
                              ../../../../lib/32b/gnu/libc.a(lcltime_r.o) (_mktm_r)
../../../../lib/32b/gnu/libc.a(mlock.o)
                              ../../../../lib/32b/gnu/libc.a(mallocr.o) (__malloc_lock)
../../../../lib/32b/gnu/libc.a(printf.o)
                              ./objs/root.o (printf)
../../../../lib/32b/gnu/libc.a(rget.o)
                              ./objs/root.o (__srget)
../../../../lib/32b/gnu/libc.a(sbrkr.o)
                              ../../../../lib/32b/gnu/libc.a(mallocr.o) (_sbrk_r)
../../../../lib/32b/gnu/libc.a(snprintf.o)
                              ./objs/root.o (snprintf)
../../../../lib/32b/gnu/libc.a(sprintf.o)
                              ./objs/root.o (sprintf)
../../../../lib/32b/gnu/libc.a(sscanf.o)
                              ./objs/EARMIBAction.o (sscanf)
../../../../lib/32b/gnu/libc.a(stdio.o)
                              ../../../../lib/32b/gnu/libc.a(findfp.o) (__sread)
../../../../lib/32b/gnu/libc.a(strcat.o)
                              ./objs/ipgFlash.o (strcat)
../../../../lib/32b/gnu/libc.a(strchr.o)
                              ./objs/ipgFlash.o (strchr)
../../../../lib/32b/gnu/libc.a(strcmp.o)
                              ./objs/ipgFlash.o (strcmp)
../../../../lib/32b/gnu/libc.a(strcpy.o)
                              ./objs/root.o (strcpy)
../../../../lib/32b/gnu/libc.a(strlen.o)
                              ./objs/root.o (strlen)
../../../../lib/32b/gnu/libc.a(strncmp.o)
                              ./objs/EARMIBAction.o (strncmp)
../../../../lib/32b/gnu/libc.a(strncpy.o)
                              ./objs/ipgFlash.o (strncpy)
../../../../lib/32b/gnu/libc.a(strstr.o)
                              ./objs/EARMIBAction.o (strstr)
../../../../lib/32b/gnu/libc.a(strtod.o)
                              ../../../../lib/32b/gnu/libc.a(atof.o) (strtod)
../../../../lib/32b/gnu/libc.a(strtok.o)
                              ./objs/ipgFlash.o (strtok)
../../../../lib/32b/gnu/libc.a(strtok_r.o)
                              ../../../../lib/32b/gnu/libc.a(strtok.o) (__strtok_r)
../../../../lib/32b/gnu/libc.a(strtol.o)
                              ./objs/EARMIBAction.o (strtol)
../../../../lib/32b/gnu/libc.a(tzlock.o)
                              ../../../../lib/32b/gnu/libc.a(mktm_r.o) (__tz_lock)
../../../../lib/32b/gnu/libc.a(tzset_r.o)
                              ../../../../lib/32b/gnu/libc.a(mktm_r.o) (_daylight)
../../../../lib/32b/gnu/libc.a(vfprintf.o)
                              ../../../../lib/32b/gnu/libc.a(printf.o) (vfprintf)
../../../../lib/32b/gnu/libc.a(vfscanf.o)
                              ../../../../lib/32b/gnu/libc.a(sscanf.o) (__svfscanf_r)
../../../../lib/32b/gnu/libc.a(writer.o)
                              ../../../../lib/32b/gnu/libc.a(stdio.o) (_write_r)
../../../../lib/32b/gnu/libc.a(wsetup.o)
                              ../../../../lib/32b/gnu/libc.a(vfprintf.o) (__swsetup)
../../../../lib/32b/gnu/libc.a(syscalls.o)
                              ../../../../lib/32b/gnu/libc.a(writer.o) (_write)
../../../../lib/32b/gnu/libc.a(closer.o)
                              ../../../../lib/32b/gnu/libc.a(stdio.o) (_close_r)
../../../../lib/32b/gnu/libc.a(ctype_.o)
                              ../../../../lib/32b/gnu/libc.a(isdigit.o) (_ctype_)
../../../../lib/32b/gnu/libc.a(dtoa.o)
                              ../../../../lib/32b/gnu/libc.a(vfprintf.o) (_dtoa_r)
../../../../lib/32b/gnu/libc.a(errno.o)
                              ../../../../lib/32b/gnu/libc.a(syscalls.o) (__errno)
../../../../lib/32b/gnu/libc.a(fread.o)
                              ../../../../lib/32b/gnu/libc.a(vfscanf.o) (fread)
../../../../lib/32b/gnu/libc.a(freer.o)
                              ../../../../lib/32b/gnu/libc.a(malloc.o) (_free_r)
../../../../lib/32b/gnu/libc.a(fvwrite.o)
                              ../../../../lib/32b/gnu/libc.a(vfprintf.o) (__sfvwrite)
../../../../lib/32b/gnu/libc.a(getenv_r.o)
                              ../../../../lib/32b/gnu/libc.a(tzset_r.o) (_getenv_r)
../../../../lib/32b/gnu/libc.a(locale.o)
                              ../../../../lib/32b/gnu/libc.a(vfprintf.o) (__mb_cur_max)
../../../../lib/32b/gnu/libc.a(lseekr.o)
                              ../../../../lib/32b/gnu/libc.a(stdio.o) (_lseek_r)
../../../../lib/32b/gnu/libc.a(makebuf.o)
                              ../../../../lib/32b/gnu/libc.a(wsetup.o) (__smakebuf)
../../../../lib/32b/gnu/libc.a(mbtowc_r.o)
                              ../../../../lib/32b/gnu/libc.a(vfprintf.o) (_mbtowc_r)
../../../../lib/32b/gnu/libc.a(memchr.o)
                              ../../../../lib/32b/gnu/libc.a(vfprintf.o) (memchr)
../../../../lib/32b/gnu/libc.a(memmove.o)
                              ../../../../lib/32b/gnu/libc.a(fvwrite.o) (memmove)
../../../../lib/32b/gnu/libc.a(mprec.o)
                              ../../../../lib/32b/gnu/libc.a(strtod.o) (_Balloc)
../../../../lib/32b/gnu/libc.a(readr.o)
                              ../../../../lib/32b/gnu/libc.a(stdio.o) (_read_r)
../../../../lib/32b/gnu/libc.a(reallocr.o)
                              ../../../../lib/32b/gnu/libc.a(fvwrite.o) (_realloc_r)
../../../../lib/32b/gnu/libc.a(reent.o)
                              ../../../../lib/32b/gnu/libc.a(sbrkr.o) (errno)
../../../../lib/32b/gnu/libc.a(refill.o)
                              ../../../../lib/32b/gnu/libc.a(rget.o) (__srefill)
../../../../lib/32b/gnu/libc.a(s_infconst.o)
                              ../../../../lib/32b/gnu/libc.a(strtod.o) (__infinity)
../../../../lib/32b/gnu/libc.a(s_isinf.o)
                              ../../../../lib/32b/gnu/libc.a(vfprintf.o) (isinf)
../../../../lib/32b/gnu/libc.a(s_isnan.o)
                              ../../../../lib/32b/gnu/libc.a(vfprintf.o) (isnan)
../../../../lib/32b/gnu/libc.a(setenv.o)
                              ../../../../lib/32b/gnu/libc.a(syscalls.o) (setenv)
../../../../lib/32b/gnu/libc.a(setenv_r.o)
                              ../../../../lib/32b/gnu/libc.a(setenv.o) (_setenv_r)
../../../../lib/32b/gnu/libc.a(strtoul.o)
                              ../../../../lib/32b/gnu/libc.a(vfscanf.o) (_strtoul_r)
../../../../lib/32b/gnu/libc.a(sysopen.o)
                              ../../../../lib/32b/gnu/libc.a(syscalls.o) (open)
../../../../lib/32b/gnu/libc.a(tzset.o)
                              ../../../../lib/32b/gnu/libc.a(setenv_r.o) (tzset)
../../../../lib/32b/gnu/libc.a(ungetc.o)
                              ../../../../lib/32b/gnu/libc.a(vfscanf.o) (ungetc)
../../../../lib/32b/gnu/libc.a(bcopy.o)
                              ../../../../lib/32b/gnu/libc.a(setenv_r.o) (bcopy)
../../../../lib/32b/gnu/libc.a(environ.o)
                              ../../../../lib/32b/gnu/libc.a(getenv_r.o) (environ)
../../../../lib/32b/gnu/libc.a(envlock.o)
                              ../../../../lib/32b/gnu/libc.a(getenv_r.o) (__env_lock)
../../../../lib/32b/gnu/libc.a(fstatr.o)
                              ../../../../lib/32b/gnu/libc.a(makebuf.o) (_fstat_r)
/usr/lib/gcc-lib/arm-elf/3.2/be/libgcc.a(_udivdi3.o)
                              ../../../../lib/32b/gnu/libc.a(vfprintf.o) (__udivdi3)
/usr/lib/gcc-lib/arm-elf/3.2/be/libgcc.a(_umoddi3.o)
                              ../../../../lib/32b/gnu/libc.a(vfprintf.o) (__umoddi3)
/usr/lib/gcc-lib/arm-elf/3.2/be/libgcc.a(_addsub_df.o)
                              ../../../../lib/32b/gnu/libc.a(strtod.o) (__adddf3)
/usr/lib/gcc-lib/arm-elf/3.2/be/libgcc.a(_mul_df.o)
                              ../../../../lib/32b/gnu/libc.a(strtod.o) (__muldf3)
/usr/lib/gcc-lib/arm-elf/3.2/be/libgcc.a(_eq_df.o)
                              ../../../../lib/32b/gnu/libc.a(strtod.o) (__eqdf2)
/usr/lib/gcc-lib/arm-elf/3.2/be/libgcc.a(_ne_df.o)
                              ../../../../lib/32b/gnu/libc.a(vfprintf.o) (__nedf2)
/usr/lib/gcc-lib/arm-elf/3.2/be/libgcc.a(_gt_df.o)
                              ../../../../lib/32b/gnu/libc.a(strtod.o) (__gtdf2)
/usr/lib/gcc-lib/arm-elf/3.2/be/libgcc.a(_ge_df.o)
                              ../../../../lib/32b/gnu/libc.a(strtod.o) (__gedf2)
/usr/lib/gcc-lib/arm-elf/3.2/be/libgcc.a(_lt_df.o)
                              ../../../../lib/32b/gnu/libc.a(strtod.o) (__ltdf2)
/usr/lib/gcc-lib/arm-elf/3.2/be/libgcc.a(_le_df.o)
                              ../../../../lib/32b/gnu/libc.a(strtod.o) (__ledf2)
/usr/lib/gcc-lib/arm-elf/3.2/be/libgcc.a(_si_to_df.o)
                              ../../../../lib/32b/gnu/libc.a(strtod.o) (__floatsidf)
/usr/lib/gcc-lib/arm-elf/3.2/be/libgcc.a(_df_to_si.o)
                              ../../../../lib/32b/gnu/libc.a(strtod.o) (__fixdfsi)
/usr/lib/gcc-lib/arm-elf/3.2/be/libgcc.a(_negate_df.o)
                              ../../../../lib/32b/gnu/libc.a(strtod.o) (__negdf2)
/usr/lib/gcc-lib/arm-elf/3.2/be/libgcc.a(_clz.o)
                              /usr/lib/gcc-lib/arm-elf/3.2/be/libgcc.a(_udivdi3.o) (__clz_tab)
/usr/lib/gcc-lib/arm-elf/3.2/be/libgcc.a(_fpcmp_parts_df.o)
                              /usr/lib/gcc-lib/arm-elf/3.2/be/libgcc.a(_eq_df.o) (__fpcmp_parts_d)
../../../../lib/32b/libbsp.a(bsp_api.o)
                              ./objs/ipgFlash.o (NAAppOffsetInFlash)
../../../../lib/32b/libbsp.a(nainet.o)
                              ./objs/menu.o (NAInet_addr)
../../../../lib/32b/libbsp.a(main.o)
                              ../../../../lib/32b/gnu/crt0.o (main)
../../../../lib/32b/libbsp.a(errhndlr.o)
                              ./objs/root.o (netosFatalError)
../../../../lib/32b/libbsp.a(narmbrd.o)
                              ../../../../lib/32b/libbsp.a(main.o) (NABoardInit)
../../../../lib/32b/libbsp.a(narmled.o)
                              ../../../../lib/32b/libbsp.a(errhndlr.o) (NALedBlink)
../../../../lib/32b/libbsp.a(devices.o)
                              ../../../../lib/32b/gnu/libc.a(syscalls.o) (deviceTable)
../../../../lib/32b/libbsp.a(flashnvrm.o)
                              ../../../../lib/32b/libbsp.a(narmbrd.o) (NANVInit)
../../../../lib/32b/libbsp.a(sysAccess.o)
                              ./objs/root.o (NAsetSysAccess)
../../../../lib/32b/libbsp.a(lpbkdev.o)
                              ../../../../lib/32b/libbsp.a(devices.o) (loopback_enter)
../../../../lib/32b/libbsp.a(nuldev.o)
                              ../../../../lib/32b/libbsp.a(devices.o) (nul_enter)
../../../../lib/32b/libbsp.a(nacache.o)
                              ../../../../lib/32b/libbsp.a(narmbrd.o) (NACacheSetDefaults)
../../../../lib/32b/libbsp.a(INIT.o)
                              ./objs/reset.o (Undefined_Handler)
../../../../lib/32b/libbsp.a(IRQHAND.o)
                              ./objs/reset.o (IRQ_Handler)
../../../../lib/32b/libbsp.a(NCC_INIT.o)
                              ../../../../lib/32b/libbsp.a(main.o) (nccPrivateData)
../../../../lib/32b/libbsp.a(NCC_POST.o)
                              ../../../../lib/32b/libbsp.a(main.o) (ncc_post)
../../../../lib/32b/libbsp.a(IRQREG.o)
                              ../../../../lib/32b/libbsp.a(NCC_POST.o) (init_irq_tables)
../../../../lib/32b/libbsp.a(gpio.o)
                              ../../../../lib/32b/libbsp.a(narmled.o) (NALedTable)
../../../../lib/32b/libbsp.a(cs.o)
                              ../../../../lib/32b/libbsp.a(NCC_INIT.o) (customizeGetScr)
../../../../lib/32b/libbsp.a(boardParams.o)
                              ./objs/root.o (customizeReadDevBoardParams)
../../../../lib/32b/libbsp.a(blExe.o)
                              ../../../../lib/32b/libbsp.a(gpio.o) (blExecuteImage)
../../../../lib/32b/libbsp.a(nawait.o)
                              ../../../../lib/32b/libbsp.a(errhndlr.o) (NAWait)
../../../../lib/32b/libbsp.a(nareset.o)
                              ../../../../lib/32b/libbsp.a(gpio.o) (NAReset)
../../../../lib/32b/libbsp.a(startfilesystem.o)
                              ../../../../lib/32b/gnu/libc.a(syscalls.o) (filesystem_mkdir)
../../../../lib/32b/libbsp.a(fbanks.o)
                              ./objs/EARMIBAction.o (SetFlashBankFlag)
../../../../lib/32b/libbsp.a(rtc.o)
                              ./objs/menu.o (rtcSet)
../../../../lib/32b/libbsp.a(termios.o)
                              ./objs/root.o (tcflush)
../../../../lib/32b/libbsp.a(netos_serl.o)
                              ../../../../lib/32b/libbsp.a(devices.o) (netos_serlenter)
../../../../lib/32b/libbsp.a(NA_ISR.o)
                              ../../../../lib/32b/libbsp.a(netos_serl.o) (NAInstallIsr)
../../../../lib/32b/libbsp.a(crc32h.o)
                              ../../../../lib/32b/libbsp.a(boardParams.o) (blCrc32)
../../../../lib/32b/libbsp.a(udpdb.o)
                              ../../../../lib/32b/libbsp.a(devices.o) (udpdb_enter)
../../../../lib/32b/libbsp.a(bsp.o)
                              ../../../../lib/32b/libbsp.a(cs.o) (NAOptRegWaitAndBurstMask)
../../../../lib/32b/libbsp.a(bsproot.o)
                              ../../../../lib/32b/libbsp.a(udpdb.o) (ip_configured)
../../../../lib/32b/libbsp.a(armutils.o)
                              ../../../../lib/32b/libbsp.a(netos_serl.o) (fmemcpy)
../../../../lib/32b/libbsp.a(starttcp.o)
                              ../../../../lib/32b/libbsp.a(bsproot.o) (watchThisFileDescriptor)
../../../../lib/32b/libbsp.a(bsptimer.o)
                              ../../../../lib/32b/libbsp.a(narmbrd.o) (netosSetupSystemClock)
../../../../lib/32b/libbsp.a(sysClock.o)
                              ../../../../lib/32b/libbsp.a(nawait.o) (NAgetSysClkFreq)
../../../../lib/32b/libbsp.a(hdlcdvr.o)
                              ../../../../lib/32b/libbsp.a(netos_serl.o) (serl_resource_lock)
../../../../lib/32b/libbsp.a(na_init.o)
                              ../../../../lib/32b/libbsp.a(netos_serl.o) (NASetIRQ)
../../../../lib/32b/libbsp.a(aceParams.o)
                              ../../../../lib/32b/libbsp.a(boardParams.o) (customizeAceGetDefaultConfig)
../../../../lib/32b/libbsp.a(aceCallbacks.o)
                              ../../../../lib/32b/libbsp.a(starttcp.o) (customizeStartAce)
../../../../lib/32b/libbsp.a(naip_global.o)
                              ../../../../lib/32b/libbsp.a(aceCallbacks.o) (NAIpSetDefaultIpTtl)
../../../../lib/32b/libbsp.a(naifconfig.o)
                              ../../../../lib/32b/libbsp.a(aceCallbacks.o) (NAIfconfigBringDeviceUp)
../../../../lib/32b/libbsp.a(dialog.o)
                              ../../../../lib/32b/libbsp.a(bsproot.o) (customizeDialog)
../../../../lib/32b/libbsp.a(flashutil.o)
                              ../../../../lib/32b/libbsp.a(fbanks.o) (NAFlashBase)
../../../../lib/32b/libbsp.a(event_handler.o)
                              ../../../../lib/32b/libbsp.a(netos_serl.o) (serl_cb_event)
../../../../lib/32b/libbsp.a(hdlcmem.o)
                              ../../../../lib/32b/libbsp.a(hdlcdvr.o) (hdlcInitFrames)
../../../../lib/32b/libflash.a(naflash.o)
                              ../../../../lib/32b/libbsp.a(narmbrd.o) (NAFlashInit)
../../../../lib/32b/libflash.a(naflsem.o)
                              ../../../../lib/32b/libbsp.a(bsproot.o) (NAFlashCreateSemaphores)
../../../../lib/32b/libflash.a(LWRWord.o)
                              ../../../../lib/32b/libflash.a(naflash.o) (ASMLWriteWord16)
../../../../lib/32b/libposix.a(posix_semaphore.o)
                              ../../../../lib/32b/libbsp.a(lpbkdev.o) (sem_open)
../../../../lib/32b/libposix.a(posix_thread.o)
                              ./objs/Snmp_api.o (pthread_attr_init)
../../../../lib/32b/libtx.a(tx_ike.o)
                              ../../../../lib/32b/libbsp.a(main.o) (_tx_initialize_kernel_enter)
../../../../lib/32b/libtx.a(tx_timi.o)
                              ../../../../lib/32b/libbsp.a(bsptimer.o) (_tx_timer_system_clock)
../../../../lib/32b/libtx.a(tx_ti.o)
                              ../../../../lib/32b/libtx.a(tx_ike.o) (_tx_thread_system_state)
../../../../lib/32b/libtx.a(tx_tc.o)
                              ../../../../lib/32b/libtx.a(tx_timi.o) (_tx_thread_create)
../../../../lib/32b/libtx.a(tx_tr.o)
                              ../../../../lib/32b/libtx.a(tx_tc.o) (_tx_thread_resume)
../../../../lib/32b/libtx.a(tx_tte.o)
                              ../../../../lib/32b/libtx.a(tx_timi.o) (_tx_timer_thread_entry)
../../../../lib/32b/libtx.a(tx_ta.o)
                              ../../../../lib/32b/libtx.a(tx_tte.o) (_tx_timer_activate)
../../../../lib/32b/libtx.a(tx_tto.o)
                              ../../../../lib/32b/libtx.a(tx_tc.o) (_tx_thread_timeout)
../../../../lib/32b/libtx.a(tx_tsle.o)
                              ./objs/root.o (_tx_thread_sleep)
../../../../lib/32b/libtx.a(tx_tide.o)
                              ../../../../lib/32b/libposix.a(posix_thread.o) (_tx_thread_identify)
../../../../lib/32b/libtx.a(tx_gnu.o)
                              ../../../../lib/32b/gnu/libc.a(tzlock.o) (__gnuTZLock)
../../../../lib/32b/libtx.a(txe_efc.o)
                              ../../../../lib/32b/libbsp.a(starttcp.o) (_txe_event_flags_create)
../../../../lib/32b/libtx.a(txe_efg.o)
                              ../../../../lib/32b/libbsp.a(starttcp.o) (_txe_event_flags_get)
../../../../lib/32b/libtx.a(txe_qc.o)
                              ../../../../lib/32b/libposix.a(posix_thread.o) (_txe_queue_create)
../../../../lib/32b/libtx.a(txe_qr.o)
                              ../../../../lib/32b/libposix.a(posix_thread.o) (_txe_queue_receive)
../../../../lib/32b/libtx.a(txe_qs.o)
                              ../../../../lib/32b/libposix.a(posix_thread.o) (_txe_queue_send)
../../../../lib/32b/libtx.a(txe_sc.o)
                              ./objs/semaphores.o (_txe_semaphore_create)
../../../../lib/32b/libtx.a(txe_sd.o)
                              ../../../../lib/32b/libbsp.a(hdlcdvr.o) (_txe_semaphore_delete)
../../../../lib/32b/libtx.a(txe_sg.o)
                              ./objs/semaphores.o (_txe_semaphore_get)
../../../../lib/32b/libtx.a(txe_sp.o)
                              ./objs/semaphores.o (_txe_semaphore_put)
../../../../lib/32b/libtx.a(txe_tc.o)
                              ./objs/root.o (_txe_thread_create)
../../../../lib/32b/libtx.a(txe_tdel.o)
                              ../../../../lib/32b/libposix.a(posix_thread.o) (_txe_thread_delete)
../../../../lib/32b/libtx.a(txe_trpc.o)
                              ../../../../lib/32b/libposix.a(posix_thread.o) (_txe_thread_priority_change)
../../../../lib/32b/libtx.a(txe_tra.o)
                              ../../../../lib/32b/libposix.a(posix_thread.o) (_txe_thread_resume_api)
../../../../lib/32b/libtx.a(txe_tsa.o)
                              ../../../../lib/32b/libposix.a(posix_thread.o) (_txe_thread_suspend_api)
../../../../lib/32b/libtx.a(txe_tt.o)
                              ../../../../lib/32b/libposix.a(posix_thread.o) (_txe_thread_terminate)
../../../../lib/32b/libtx.a(txe_taa.o)
                              ./objs/telnet.o (_txe_timer_activate_api)
../../../../lib/32b/libtx.a(txe_tmch.o)
                              ./objs/telnet.o (_txe_timer_change)
../../../../lib/32b/libtx.a(txe_tmcr.o)
                              ./objs/telnet.o (_txe_timer_create)
../../../../lib/32b/libtx.a(txe_tda.o)
                              ./objs/telnet.o (_txe_timer_deactivate_api)
../../../../lib/32b/libtx.a(txe_timd.o)
                              ../../../../lib/32b/libbsp.a(bsproot.o) (_txe_timer_delete)
../../../../lib/32b/libtx.a(TX_MC.o)
                              ../../../../lib/32b/libtx.a(tx_gnu.o) (_tx_mutex_create)
../../../../lib/32b/libtx.a(TX_MG.o)
                              ../../../../lib/32b/libtx.a(tx_gnu.o) (_tx_mutex_get)
../../../../lib/32b/libtx.a(TX_MP.o)
                              ../../../../lib/32b/libtx.a(tx_gnu.o) (_tx_mutex_put)
../../../../lib/32b/libtx.a(TX_MPRI.o)
                              ../../../../lib/32b/libtx.a(TX_MP.o) (_tx_mutex_prioritize)
../../../../lib/32b/libtx.a(TX_MPC.o)
                              ../../../../lib/32b/libtx.a(TX_MG.o) (_tx_mutex_priority_change)
../../../../lib/32b/libtx.a(TX_MCLE.o)
                              ../../../../lib/32b/libtx.a(TX_MG.o) (_tx_mutex_cleanup)
../../../../lib/32b/libtx.a(TXE_MC.o)
                              ./objs/ipgFlash.o (_txe_mutex_create)
../../../../lib/32b/libtx.a(TXE_MG.o)
                              ./objs/ipgFlash.o (_txe_mutex_get)
../../../../lib/32b/libtx.a(TXE_MP.o)
                              ./objs/ipgFlash.o (_txe_mutex_put)
../../../../lib/32b/libtx.a(tx_tsr.o)
                              ../../../../lib/32b/libtx.a(tx_tc.o) (_tx_thread_system_return)
../../../../lib/32b/libtx.a(tx_ts.o)
                              ../../../../lib/32b/libtx.a(tx_ike.o) (_tx_thread_schedule)
../../../../lib/32b/libtx.a(tx_timin.o)
                              ../../../../lib/32b/libbsp.a(bsptimer.o) (_tx_timer_interrupt)
../../../../lib/32b/libtx.a(tx_ill.o)
                              ../../../../lib/32b/libtx.a(tx_ike.o) (_tx_initialize_low_level)
../../../../lib/32b/libtx.a(tx_tsb.o)
                              ../../../../lib/32b/libtx.a(tx_tc.o) (_tx_thread_stack_build)
../../../../lib/32b/libtx.a(tx_tcs.o)
                              ../../../../lib/32b/libtx.a(tx_ill.o) (_tx_thread_context_save)
../../../../lib/32b/libtx.a(tx_ihl.o)
                              ../../../../lib/32b/libtx.a(tx_ike.o) (_tx_initialize_high_level)
../../../../lib/32b/libtx.a(tx_tse.o)
                              ../../../../lib/32b/libtx.a(tx_tc.o) (_tx_thread_shell_entry)
../../../../lib/32b/libtx.a(tx_tsus.o)
                              ../../../../lib/32b/libtx.a(tx_tte.o) (_tx_thread_suspend)
../../../../lib/32b/libtx.a(tx_tsa.o)
                              ../../../../lib/32b/libtx.a(txe_tsa.o) (_tx_thread_suspend_api)
../../../../lib/32b/libtx.a(tx_tra.o)
                              ../../../../lib/32b/libtx.a(txe_tra.o) (_tx_thread_resume_api)
../../../../lib/32b/libtx.a(tx_tts.o)
                              ../../../../lib/32b/libtx.a(tx_timin.o) (_tx_thread_time_slice)
../../../../lib/32b/libtx.a(tx_tdel.o)
                              ../../../../lib/32b/libtx.a(txe_tdel.o) (_tx_thread_delete)
../../../../lib/32b/libtx.a(tx_tprch.o)
                              ../../../../lib/32b/libtx.a(txe_trpc.o) (_tx_thread_priority_change)
../../../../lib/32b/libtx.a(tx_tt.o)
                              ../../../../lib/32b/libtx.a(txe_tt.o) (_tx_thread_terminate)
../../../../lib/32b/libtx.a(tx_td.o)
                              ../../../../lib/32b/libtx.a(TX_MP.o) (_tx_timer_deactivate)
../../../../lib/32b/libtx.a(tx_timcr.o)
                              ../../../../lib/32b/libtx.a(txe_tmcr.o) (_tx_timer_create)
../../../../lib/32b/libtx.a(tx_taa.o)
                              ../../../../lib/32b/libtx.a(txe_taa.o) (_tx_timer_activate_api)
../../../../lib/32b/libtx.a(tx_tda.o)
                              ../../../../lib/32b/libtx.a(txe_tda.o) (_tx_timer_deactivate_api)
../../../../lib/32b/libtx.a(tx_timch.o)
                              ../../../../lib/32b/libtx.a(txe_tmch.o) (_tx_timer_change)
../../../../lib/32b/libtx.a(tx_timd.o)
                              ../../../../lib/32b/libtx.a(txe_timd.o) (_tx_timer_delete)
../../../../lib/32b/libtx.a(tx_sc.o)
                              ../../../../lib/32b/libtx.a(txe_sc.o) (_tx_semaphore_create)
../../../../lib/32b/libtx.a(tx_sd.o)
                              ../../../../lib/32b/libtx.a(txe_sd.o) (_tx_semaphore_delete)
../../../../lib/32b/libtx.a(tx_sg.o)
                              ../../../../lib/32b/libtx.a(txe_sg.o) (_tx_semaphore_get)
../../../../lib/32b/libtx.a(tx_sp.o)
                              ../../../../lib/32b/libtx.a(txe_sp.o) (_tx_semaphore_put)
../../../../lib/32b/libtx.a(tx_scle.o)
                              ../../../../lib/32b/libtx.a(tx_sg.o) (_tx_semaphore_cleanup)
../../../../lib/32b/libtx.a(tx_qc.o)
                              ../../../../lib/32b/libtx.a(txe_qc.o) (_tx_queue_create)
../../../../lib/32b/libtx.a(tx_qs.o)
                              ../../../../lib/32b/libtx.a(txe_qs.o) (_tx_queue_send)
../../../../lib/32b/libtx.a(tx_qr.o)
                              ../../../../lib/32b/libtx.a(txe_qr.o) (_tx_queue_receive)
../../../../lib/32b/libtx.a(tx_qcle.o)
                              ../../../../lib/32b/libtx.a(tx_qs.o) (_tx_queue_cleanup)
../../../../lib/32b/libtx.a(tx_efc.o)
                              ../../../../lib/32b/libtx.a(txe_efc.o) (_tx_event_flags_create)
../../../../lib/32b/libtx.a(tx_efg.o)
                              ../../../../lib/32b/libtx.a(txe_efg.o) (_tx_event_flags_get)
../../../../lib/32b/libtx.a(tx_efcle.o)
                              ../../../../lib/32b/libtx.a(tx_efg.o) (_tx_event_flags_cleanup)
../../../../lib/32b/libtx.a(tx_tcr.o)
                              ../../../../lib/32b/libtx.a(tx_ill.o) (_tx_thread_context_restore)
../../../../lib/32b/libmanapi.a(man_env.o)
                              ./objs/MibMan.o (manSetOctetString)
../../../../lib/32b/libmanapi.a(man_init.o)
                              ../../../../lib/32b/libmanapi.a(man_env.o) (manMasterList)
../../../../lib/32b/libmanapi.a(hash.o)
                              ../../../../lib/32b/libmanapi.a(man_init.o) (hash)
../../../../lib/32b/libmanapi.a(man_row.o)
                              ../../../../lib/32b/libmanapi.a(man_init.o) (manCheckRowFieldSize)
../../../../lib/32b/libmanapi.a(man_main.o)
                              ../../../../lib/32b/libmanapi.a(man_row.o) (manLockAllSemaphores)
../../../../lib/32b/libftpsvr.a(ftposp.o)
                              ./objs/ipgFlash.o (FSStartServer)
../../../../lib/32b/libftpsvr.a(ftpsvr.o)
                              ../../../../lib/32b/libftpsvr.a(ftposp.o) (g_ftp_configp)
../../../../lib/32b/libtelnsvr.a(ts_mod.o)
                              ./objs/root.o (TSInitServer)
../../../../lib/32b/libtelnsvr.a(telnetd2.o)
                              ../../../../lib/32b/libtelnsvr.a(ts_mod.o) (telnetd)
../../../../lib/32b/libtelnsvr.a(fsminit.o)
                              ../../../../lib/32b/libtelnsvr.a(ts_mod.o) (fsminit)
../../../../lib/32b/libtelnsvr.a(ttfsm.o)
                              ../../../../lib/32b/libtelnsvr.a(ts_mod.o) (ttstab)
../../../../lib/32b/libtelnsvr.a(ttgetc.o)
                              ../../../../lib/32b/libtelnsvr.a(ttfsm.o) (ttgetc)
../../../../lib/32b/libtelnsvr.a(will_not.o)
                              ../../../../lib/32b/libtelnsvr.a(ttfsm.o) (will_notsup)
../../../../lib/32b/libtelnsvr.a(do_echo.o)
                              ../../../../lib/32b/libtelnsvr.a(ttfsm.o) (do_echo)
../../../../lib/32b/libtelnsvr.a(do_noga.o)
                              ../../../../lib/32b/libtelnsvr.a(ttfsm.o) (do_noga)
../../../../lib/32b/libtelnsvr.a(do_notsu.o)
                              ../../../../lib/32b/libtelnsvr.a(ttfsm.o) (do_notsup)
../../../../lib/32b/libtelnsvr.a(do_txbin.o)
                              ../../../../lib/32b/libtelnsvr.a(ttfsm.o) (do_txbinary)
../../../../lib/32b/libtelnsvr.a(tcga.o)
                              ../../../../lib/32b/libtelnsvr.a(ttfsm.o) (tcga)
../../../../lib/32b/libtelnsvr.a(recopt.o)
                              ../../../../lib/32b/libtelnsvr.a(ttfsm.o) (recopt)
../../../../lib/32b/libdnsclnt.a(dnsc_api.o)
                              ../../../../lib/32b/libbsp.a(aceCallbacks.o) (DNSAddServer)
../../../../lib/32b/libfastip.a(fast_ip.o)
                              ../../../../lib/32b/libbsp.a(aceCallbacks.o) (fastip_ip_up)
../../../../lib/32b/libtcpip.a(ace.o)
                              ../../../../lib/32b/libbsp.a(aceCallbacks.o) (aceInitialize)
../../../../lib/32b/libtcpip.a(ace_os.o)
                              ../../../../lib/32b/libtcpip.a(ace.o) (ace_initialize)
../../../../lib/32b/libtcpip.a(ace_dhcp.o)
                              ../../../../lib/32b/libbsp.a(aceCallbacks.o) (ace_dhcp_event_info_size)
../../../../lib/32b/libtcpip.a(ace_bootp.o)
                              ../../../../lib/32b/libbsp.a(aceCallbacks.o) (ace_bootp_event_info_size)
../../../../lib/32b/libtcpip.a(ace_autoip.o)
                              ../../../../lib/32b/libbsp.a(aceCallbacks.o) (ace_start_autoip)
../../../../lib/32b/libtcpip.a(ace_static.o)
                              ../../../../lib/32b/libbsp.a(aceCallbacks.o) (ace_start_static)
../../../../lib/32b/libtcpip.a(ace_rarp.o)
                              ../../../../lib/32b/libbsp.a(aceCallbacks.o) (ace_start_rarp)
../../../../lib/32b/libtcpip.a(ace_pingarp.o)
                              ../../../../lib/32b/libbsp.a(aceCallbacks.o) (ace_start_ping_arp)
../../../../lib/32b/libtcpip.a(fnsrr.o)
                              ../../../../lib/32b/libbsp.a(aceCallbacks.o) (ip_add_static_route)
../../../../lib/32b/libtcpip.a(heap.o)
                              ../../../../lib/32b/libtcpip.a(ace.o) (h_alloc)
../../../../lib/32b/libtcpip.a(icmp.o)
                              ../../../../lib/32b/libtcpip.a(ace_pingarp.o) (fns_ping_arp_start)
../../../../lib/32b/libtcpip.a(ipclassm.o)
                              ../../../../lib/32b/libtcpip.a(ace_dhcp.o) (ip_class_mask)
../../../../lib/32b/libtcpip.a(ipcomm.o)
                              ../../../../lib/32b/libtcpip.a(icmp.o) (ip_at_comm)
../../../../lib/32b/libtcpip.a(ipfrag.o)
                              ../../../../lib/32b/libtcpip.a(heap.o) (ip_purge_fragments)
../../../../lib/32b/libtcpip.a(ipmisc.o)
                              ../../../../lib/32b/libbsp.a(naip_global.o) (ip_forwarding_enabled)
../../../../lib/32b/libtcpip.a(ipnetd.o)
                              ../../../../lib/32b/libtcpip.a(ipfrag.o) (ip_ascend)
../../../../lib/32b/libtcpip.a(ipopt.o)
                              ../../../../lib/32b/libtcpip.a(icmp.o) (ip_stop)
../../../../lib/32b/libtcpip.a(ipxmit.o)
                              ../../../../lib/32b/libtcpip.a(icmp.o) (ip_send)
../../../../lib/32b/libtcpip.a(lkheap.o)
                              ../../../../lib/32b/libtcpip.a(heap.o) (h_malloc)
../../../../lib/32b/libtcpip.a(llconfig.o)
                              ../../../../lib/32b/libbsp.a(naifconfig.o) (ll_config)
../../../../lib/32b/libtcpip.a(m.o)
                              ../../../../lib/32b/libtcpip.a(ipnetd.o) (m_dup)
../../../../lib/32b/libtcpip.a(md.o)
                              ../../../../lib/32b/libtcpip.a(ipnetd.o) (md_cheql)
../../../../lib/32b/libtcpip.a(md5.o)
                              ../../../../lib/32b/libbsp.a(starttcp.o) (MD5Init)
../../../../lib/32b/libtcpip.a(msm.o)
                              ../../../../lib/32b/libtcpip.a(icmp.o) (sm_wqin)
../../../../lib/32b/libtcpip.a(ncaf.o)
                              ../../../../lib/32b/libtcpip.a(ipcomm.o) (llahp_tbl)
../../../../lib/32b/libtcpip.a(naadddev.o)
                              ../../../../lib/32b/libbsp.a(starttcp.o) (NAAddDeviceToTcpipDeviceTable)
../../../../lib/32b/libtcpip.a(ncdev.o)
                              ../../../../lib/32b/libbsp.a(starttcp.o) (noent_ioctl)
../../../../lib/32b/libtcpip.a(ncdid.o)
                              ../../../../lib/32b/libtcpip.a(llconfig.o) (Finitialized)
../../../../lib/32b/libtcpip.a(ncmisc.o)
                              ../../../../lib/32b/libtcpip.a(ipnetd.o) (fns_netstat_ipInDelivers)
../../../../lib/32b/libtcpip.a(ncpr.o)
                              ../../../../lib/32b/libtcpip.a(ncmisc.o) (np_init)
../../../../lib/32b/libtcpip.a(q.o)
                              ../../../../lib/32b/libtcpip.a(msm.o) (gq_in)
../../../../lib/32b/libtcpip.a(secure.o)
                              ../../../../lib/32b/libbsp.a(sysAccess.o) (SNMPMapUser)
../../../../lib/32b/libtcpip.a(select.o)
                              ../../../../lib/32b/libtcpip.a(ncmisc.o) (sel_pending_q)
../../../../lib/32b/libtcpip.a(sock.o)
                              ../../../../lib/32b/libtcpip.a(ncpr.o) (so_outaddr)
../../../../lib/32b/libtcpip.a(sop.o)
                              ../../../../lib/32b/libtcpip.a(icmp.o) (so_spcomm)
../../../../lib/32b/libtcpip.a(timer.o)
                              ../../../../lib/32b/libbsp.a(starttcp.o) (t_clock)
../../../../lib/32b/libtcpip.a(twq.o)
                              ../../../../lib/32b/libtcpip.a(sock.o) (twq_promise)
../../../../lib/32b/libtcpip.a(udpnetd.o)
                              ../../../../lib/32b/libtcpip.a(ncpr.o) (udp_icmp)
../../../../lib/32b/libtcpip.a(udpopt.o)
                              ../../../../lib/32b/libtcpip.a(ncpr.o) (udp_getopt)
../../../../lib/32b/libtcpip.a(udpsock.o)
                              ../../../../lib/32b/libtcpip.a(ncpr.o) (udp_accept)
../../../../lib/32b/libtcpip.a(tcpxmit.o)
                              ../../../../lib/32b/libtcpip.a(ncpr.o) (tcp_dink)
../../../../lib/32b/libtcpip.a(tcpnetd.o)
                              ../../../../lib/32b/libtcpip.a(tcpxmit.o) (tcp_rslf)
../../../../lib/32b/libtcpip.a(tcpsend.o)
                              ../../../../lib/32b/libtcpip.a(tcpnetd.o) (tcp_selective_ack_needed)
../../../../lib/32b/libtcpip.a(tcpsock.o)
                              ../../../../lib/32b/libtcpip.a(ncpr.o) (tcp_accept)
../../../../lib/32b/libtcpip.a(tcpmisc.o)
                              ../../../../lib/32b/libbsp.a(naip_global.o) (tcp_def_ttl)
../../../../lib/32b/libtcpip.a(tcptrans.o)
                              ../../../../lib/32b/libtcpip.a(tcpmisc.o) (t_tcp_initialize)
../../../../lib/32b/libtcpip.a(tcpimpco.o)
                              ../../../../lib/32b/libtcpip.a(tcpsock.o) (tcp_do_implied_connect)
../../../../lib/32b/libtcpip.a(igmp.o)
                              ../../../../lib/32b/libtcpip.a(fnsrr.o) (ip_add_multi_route)
../../../../lib/32b/libtcpip.a(socketopt.o)
                              ../../../../lib/32b/libtcpip.a(tcpsock.o) (process_get_sockopt)
../../../../lib/32b/libtcpip.a(sockapi.o)
                              ../../../../lib/32b/libftpsvr.a(ftpsvr.o) (accept)
../../../../lib/32b/libtcpip.a(autoip.o)
                              ../../../../lib/32b/libtcpip.a(ace_autoip.o) (fns_auto_ipv4_conf)
../../../../lib/32b/libtcpip.a(rricirc.o)
                              ../../../../lib/32b/libtcpip.a(fnsrr.o) (ipCircCreate)
../../../../lib/32b/libtcpip.a(rripfdb.o)
                              ../../../../lib/32b/libtcpip.a(fnsrr.o) (i_node)
../../../../lib/32b/libtcpip.a(rripfwd.o)
                              ../../../../lib/32b/libtcpip.a(rricirc.o) (IpGetNextHop)
../../../../lib/32b/libtcpip.a(rrrcirc.o)
                              ../../../../lib/32b/libtcpip.a(rripfdb.o) (rrLink)
../../../../lib/32b/libtcpip.a(rrtask.o)
                              ../../../../lib/32b/libtcpip.a(fnsrr.o) (send_2_router)
../../../../lib/32b/libtcpip.a(res_init.o)
                              ../../../../lib/32b/libdnsclnt.a(dnsc_api.o) (dns_rslv_add_name_server)
../../../../lib/32b/libtcpip.a(gethnama.o)
                              ../../../../lib/32b/libdnsclnt.a(dnsc_api.o) (gethostbyname)
../../../../lib/32b/libtcpip.a(dnscache.o)
                              ../../../../lib/32b/libtcpip.a(gethnama.o) (dns_cache_name_lookup)
../../../../lib/32b/libtcpip.a(pppdev.o)
                              ../../../../lib/32b/libbsp.a(starttcp.o) (ppp_init)
../../../../lib/32b/libtcpip.a(pppfsm.o)
                              ../../../../lib/32b/libtcpip.a(pppdev.o) (ppp_fsm_input_event)
../../../../lib/32b/libtcpip.a(pppipcp.o)
                              ../../../../lib/32b/libtcpip.a(pppdev.o) (ppp_ipcp_init)
../../../../lib/32b/libtcpip.a(ppplcp.o)
                              ../../../../lib/32b/libtcpip.a(pppdev.o) (ppp_lcp_init)
../../../../lib/32b/libtcpip.a(ppppap.o)
                              ../../../../lib/32b/libtcpip.a(pppfsm.o) (ppp_pap_get_actions)
../../../../lib/32b/libtcpip.a(pppsend.o)
                              ../../../../lib/32b/libbsp.a(starttcp.o) (ppp_scomm)
../../../../lib/32b/libtcpip.a(pppsess.o)
                              ../../../../lib/32b/libtcpip.a(pppdev.o) (fns_ppp_event_callback)
../../../../lib/32b/libtcpip.a(ppputil.o)
                              ../../../../lib/32b/libtcpip.a(pppsend.o) (pppfcsset)
../../../../lib/32b/libtcpip.a(pppauth.o)
                              ../../../../lib/32b/libtcpip.a(ppppap.o) (ppp_auth_agent)
../../../../lib/32b/libtcpip.a(pppuapi.o)
                              ../../../../lib/32b/libtcpip.a(pppdev.o) (ppp_install_driver)
../../../../lib/32b/libtcpip.a(dhcpapi.o)
                              ../../../../lib/32b/libtcpip.a(ace_dhcp.o) (fns_dhcp_client_initialize)
../../../../lib/32b/libtcpip.a(dhcparp.o)
                              ../../../../lib/32b/libtcpip.a(dhcpapi.o) (DHCP_arp_check)
../../../../lib/32b/libtcpip.a(options.o)
                              ../../../../lib/32b/libtcpip.a(dhcpapi.o) (dhcpc_find_option)
../../../../lib/32b/libtcpip.a(client.o)
                              ../../../../lib/32b/libtcpip.a(dhcpapi.o) (DHCP_Timer)
../../../../lib/32b/libtcpip.a(pppapi.o)
                              ../../../../lib/32b/libbsp.a(sysAccess.o) (NAPPPAddUser)
../../../../lib/32b/libtcpip.a(modem.o)
                              ../../../../lib/32b/libtcpip.a(pppuapi.o) (serial_init)
../../../../lib/32b/libtcpip.a(uart_bpool.o)
                              ../../../../lib/32b/libtcpip.a(pppapi.o) (uart_bpool_init)
../../../../lib/32b/libtcpip.a(osdep.o)
                              ../../../../lib/32b/libtcpip.a(modem.o) (am_critical)
../../../../lib/32b/libtcpip.a(bdoptlib.o)
                              ../../../../lib/32b/libtcpip.a(options.o) (bdopt_check_option_overflow)
../../../../lib/32b/libtcpip.a(bootpapi.o)
                              ../../../../lib/32b/libtcpip.a(ace_dhcp.o) (fns_bootpc_find_option)
../../../../lib/32b/libtcpip.a(udpxmit.o)
                              ../../../../lib/32b/libtcpip.a(ncpr.o) (udp_dink)
../../../../lib/32b/libtcpip.a(arp.o)
                              ../../../../lib/32b/libtcpip.a(llconfig.o) (arp_build_request)
../../../../lib/32b/libtcpip.a(bind.o)
                              ../../../../lib/32b/libtcpip.a(sockapi.o) (fns_bind)
../../../../lib/32b/libtcpip.a(connect.o)
                              ../../../../lib/32b/libtcpip.a(sockapi.o) (fns_connect)
../../../../lib/32b/libtcpip.a(enet.o)
                              ../../../../lib/32b/libtcpip.a(ncdev.o) (en_scomm)
../../../../lib/32b/libtcpip.a(frk.o)
                              ../../../../lib/32b/libtcpip.a(llconfig.o) (fr_ddown)
../../../../lib/32b/libtcpip.a(frklk.o)
                              ../../../../lib/32b/libtcpip.a(arp.o) (fr_eqtb)
../../../../lib/32b/libtcpip.a(fselect.o)
                              ../../../../lib/32b/libtcpip.a(sockapi.o) (fns_select)
../../../../lib/32b/libtcpip.a(getpeern.o)
                              ../../../../lib/32b/libtcpip.a(sockapi.o) (fns_getpeername)
../../../../lib/32b/libtcpip.a(getsockn.o)
                              ../../../../lib/32b/libtcpip.a(sockapi.o) (fns_getsockname)
../../../../lib/32b/libtcpip.a(inet_add.o)
                              ../../../../lib/32b/libtcpip.a(pppauth.o) (fns_inet_addr)
../../../../lib/32b/libtcpip.a(ip.o)
                              ../../../../lib/32b/libtcpip.a(ncaf.o) (ipinit)
../../../../lib/32b/libtcpip.a(lbdev.o)
                              ../../../../lib/32b/libtcpip.a(ncdev.o) (loopback_driver_init)
../../../../lib/32b/libtcpip.a(link.o)
                              ../../../../lib/32b/libtcpip.a(ncpr.o) (lk_recv)
../../../../lib/32b/libtcpip.a(listen.o)
                              ../../../../lib/32b/libtcpip.a(sockapi.o) (fns_listen)
../../../../lib/32b/libtcpip.a(node.o)
                              ../../../../lib/32b/libtcpip.a(select.o) (os_notify)
../../../../lib/32b/libtcpip.a(nselect.o)
                              ../../../../lib/32b/libtcpip.a(fselect.o) (fns_nselect)
../../../../lib/32b/libtcpip.a(pioctl.o)
                              ../../../../lib/32b/libtcpip.a(sockapi.o) (fns_sockatmark)
../../../../lib/32b/libtcpip.a(recv.o)
                              ../../../../lib/32b/libtcpip.a(sockapi.o) (fns_recv)
../../../../lib/32b/libtcpip.a(recvfrom.o)
                              ../../../../lib/32b/libtcpip.a(sockapi.o) (fns_recvfrom)
../../../../lib/32b/libtcpip.a(send.o)
                              ../../../../lib/32b/libtcpip.a(sockapi.o) (fns_send)
../../../../lib/32b/libtcpip.a(sendto.o)
                              ../../../../lib/32b/libtcpip.a(sockapi.o) (fns_sendto)
../../../../lib/32b/libtcpip.a(shutdown.o)
                              ../../../../lib/32b/libtcpip.a(sockapi.o) (fns_shutdown)
../../../../lib/32b/libtcpip.a(sob.o)
                              ../../../../lib/32b/libtcpip.a(tcpsock.o) (so_rbcomm)
../../../../lib/32b/libtcpip.a(socket.o)
                              ../../../../lib/32b/libtcpip.a(sockapi.o) (fns_socket)
../../../../lib/32b/libtcpip.a(accept.o)
                              ../../../../lib/32b/libtcpip.a(sockapi.o) (fns_accept)
../../../../lib/32b/libtcpip.a(tcpperf.o)
                              ../../../../lib/32b/libtcpip.a(tcpsock.o) (tcp_perftimer)
../../../../lib/32b/libtcpip.a(ndq.o)
                              ../../../../lib/32b/libtcpip.a(pppdev.o) (ndq_restart)
../../../../lib/32b/libtcpip.a(strcmpi.o)
                              ../../../../lib/32b/libtcpip.a(gethnama.o) (fns_strcmpi)
../../../../lib/32b/libtcpip.a(inet_pto.o)
                              ../../../../lib/32b/libtcpip.a(gethnama.o) (inet_pton)
../../../../lib/32b/libtcpip.a(res_comp.o)
                              ../../../../lib/32b/libtcpip.a(gethnama.o) (dn_expand)
../../../../lib/32b/libtcpip.a(res_quer.o)
                              ../../../../lib/32b/libtcpip.a(gethnama.o) (res_query)
../../../../lib/32b/libtcpip.a(res_send.o)
                              ../../../../lib/32b/libtcpip.a(res_quer.o) (res_send)
../../../../lib/32b/libtcpip.a(vjcomp.o)
                              ../../../../lib/32b/libtcpip.a(pppsend.o) (is_tcpip)
../../../../lib/32b/libtcpip.a(pppbs.o)
                              ../../../../lib/32b/libtcpip.a(ppplcp.o) (ppp_rbuildmap)
../../../../lib/32b/libtcpip.a(pppchap.o)
                              ../../../../lib/32b/libtcpip.a(pppfsm.o) (ppp_chap_ap_get_actions)
../../../../lib/32b/libtcpip.a(ppprecv.o)
                              ../../../../lib/32b/libtcpip.a(pppbs.o) (ppp_recv)
../../../../lib/32b/libtcpip.a(ppp.o)
                              ../../../../lib/32b/libtcpip.a(pppapi.o) (ppp_auth_infoset)
../../../../lib/32b/libtcpip.a(socketif.o)
                              ../../../../lib/32b/libtcpip.a(client.o) (setSockAddrIn)
../../../../lib/32b/libtcpip.a(if.o)
                              ../../../../lib/32b/libtcpip.a(client.o) (ifReset)
../../../../lib/32b/libtcpip.a(uart.o)
                              ../../../../lib/32b/libtcpip.a(pppapi.o) (uart_init)
../../../../lib/32b/libtcpip.a(nullmdm.o)
                              ../../../../lib/32b/libtcpip.a(pppapi.o) (direct_serial_connect)
../../../../lib/32b/libtcpip.a(bootp.o)
                              ../../../../lib/32b/libtcpip.a(bootpapi.o) (BOOTP_StateMachine)
../../../../lib/32b/libtcpip.a(res_mkqu.o)
                              ../../../../lib/32b/libtcpip.a(res_quer.o) (res_mkquery)
../../../../lib/32b/gnu/libc.a(assert.o)
                              ../../../../lib/32b/libbsp.a(netos_serl.o) (__assert)
../../../../lib/32b/gnu/libc.a(bzero.o)
                              ../../../../lib/32b/libposix.a(posix_thread.o) (bzero)
../../../../lib/32b/gnu/libc.a(div.o)
                              ../../../../lib/32b/libbsp.a(rtc.o) (div)
../../../../lib/32b/gnu/libc.a(fiprintf.o)
                              ../../../../lib/32b/gnu/libc.a(assert.o) (fiprintf)
../../../../lib/32b/gnu/libc.a(libcfunc.o)
                              ../../../../lib/32b/gnu/libc.a(assert.o) (abort)
../../../../lib/32b/gnu/libc.a(puts.o)
                              ../../../../lib/32b/libtcpip.a(fnsrr.o) (puts)
../../../../lib/32b/gnu/libc.a(sysclose.o)
                              ../../../../lib/32b/libbsp.a(dialog.o) (close)
../../../../lib/32b/gnu/libc.a(sysread.o)
                              ../../../../lib/32b/libbsp.a(bsproot.o) (read)
../../../../lib/32b/gnu/libc.a(syswrite.o)
                              ../../../../lib/32b/libbsp.a(bsproot.o) (write)
../../../../lib/32b/gnu/libc.a(vfiprintf.o)
                              ../../../../lib/32b/gnu/libc.a(fiprintf.o) (vfiprintf)
../../../../lib/32b/gnu/libc.a(wbuf.o)
                              ../../../../lib/32b/libbsp.a(dialog.o) (__swbuf)
/usr/lib/gcc-lib/arm-elf/3.2/be/libgcc.a(_divsi3.o)
                              ../../../../lib/32b/libbsp.a(nawait.o) (__divsi3)
/usr/lib/gcc-lib/arm-elf/3.2/be/libgcc.a(_modsi3.o)
                              ../../../../lib/32b/libflash.a(naflash.o) (__modsi3)
../../../../lib/32b/librphttpd.a(RpForm.o)
                              ./objs/EDFAWelcomePage_v.o (RpGetSubmitButtonValue)
../../../../lib/32b/librphttpd.a(RpHtml.o)
                              ../../../../lib/32b/librphttpd.a(RpForm.o) (RpExpandedMatch)
../../../../lib/32b/librphttpd.a(RpQuery.o)
                              ../../../../lib/32b/librphttpd.a(RpForm.o) (RpStoreQueryValues)
../../../../lib/32b/librphttpd.a(hserv.o)
                              ../../../../lib/32b/librphttpd.a(RpHtml.o) (theUrlReturnTo)
../../../../lib/32b/librphttpd.a(RpHttp.o)
                              ../../../../lib/32b/librphttpd.a(RpHtml.o) (RpSendReplyBuffer)
../../../../lib/32b/librphttpd.a(RpFrmItm.o)
                              ../../../../lib/32b/librphttpd.a(RpForm.o) (RpGetFormItem)
../../../../lib/32b/librphttpd.a(RmSmtp.o)
                              ../../../../lib/32b/librphttpd.a(RpHtml.o) (RmAddImageToMessage)
../../../../lib/32b/librphttpd.a(AsCommon.o)
                              ../../../../lib/32b/librphttpd.a(RpHttp.o) (RpInitializeHtmlPageReply)
../../../../lib/32b/librphttpd.a(AsDate.o)
                              ../../../../lib/32b/librphttpd.a(RpHttp.o) (RpGetSysTimeInSeconds)
../../../../lib/32b/librphttpd.a(AsGlobal.o)
                              ../../../../lib/32b/librphttpd.a(hserv.o) (gRpData)
../../../../lib/32b/librphttpd.a(AsMain.o)
                              ../../../../lib/32b/librphttpd.a(hserv.o) (kHttpRomMonth)
../../../../lib/32b/librphttpd.a(AsMimes.o)
                              ../../../../lib/32b/librphttpd.a(RpHttp.o) (gMimeTypes)
../../../../lib/32b/librphttpd.a(AsParse.o)
                              ../../../../lib/32b/librphttpd.a(RpQuery.o) (RpFindTokenDelimited)
../../../../lib/32b/librphttpd.a(AsBase64.o)
                              ../../../../lib/32b/librphttpd.a(RpHtml.o) (RpSendDataOutBase64)
../../../../lib/32b/librphttpd.a(AsConvrt.o)
                              ../../../../lib/32b/librphttpd.a(RpForm.o) (AsDotFormStrToHex)
../../../../lib/32b/librphttpd.a(AsVarAcc.o)
                              ../../../../lib/32b/librphttpd.a(RpForm.o) (AsReceiveText)
../../../../lib/32b/librphttpd.a(AsCustom.o)
                              ../../../../lib/32b/librphttpd.a(RpHtml.o) (AsRetrieveCustomItem)
../../../../lib/32b/librphttpd.a(Sfil.o)
                              ../../../../lib/32b/librphttpd.a(AsMain.o) (SfsOpenFileSystem)
../../../../lib/32b/librphttpd.a(STCP.o)
                              ../../../../lib/32b/librphttpd.a(hserv.o) (getTheAllegroTaskDataPtr)
../../../../lib/32b/librphttpd.a(RpAccess.o)
                              ../../../../lib/32b/librphttpd.a(hserv.o) (setupsingleaccess)
../../../../lib/32b/librphttpd.a(RpData.o)
                              ../../../../lib/32b/librphttpd.a(hserv.o) (gRpHttpNoObjectFoundPage)
../../../../lib/32b/librphttpd.a(RpHttpDy.o)
                              ../../../../lib/32b/librphttpd.a(RpHttp.o) (RpBuildRefresh)
../../../../lib/32b/librphttpd.a(RpUser.o)
                              ../../../../lib/32b/librphttpd.a(AsMain.o) (RpInitializeBox)
../../../../lib/32b/librphttpd.a(mcfil.o)
                              ../../../../lib/32b/librphttpd.a(Sfil.o) (MC_SfsOpenFileSystem)
../../../../lib/32b/librphttpd.a(RpHttpRq.o)
                              ../../../../lib/32b/librphttpd.a(AsMain.o) (RpHandleHttpAction)
../../../../lib/32b/librphttpd.a(RpHttpPs.o)
                              ../../../../lib/32b/librphttpd.a(RpHttpRq.o) (RpParseHeader)
../../../../lib/32b/librphttpd.a(RpFile.o)
                              ../../../../lib/32b/librphttpd.a(AsMain.o) (RpHandleFileStates)
../../../../lib/32b/librphttpd.a(RmMailer.o)
                              ../../../../lib/32b/librphttpd.a(AsMain.o) (RmSmtpInit)
../../../../lib/32b/librphttpd.a(RmData.o)
                              ../../../../lib/32b/librphttpd.a(RmMailer.o) (gRpSmtpData)
../../../../lib/32b/librphttpd.a(PrPop3.o)
                              ../../../../lib/32b/librphttpd.a(AsMain.o) (PrRomPopInit)
../../../../lib/32b/librphttpd.a(PrData.o)
                              ../../../../lib/32b/librphttpd.a(PrPop3.o) (gRpPopData)
../../../../lib/32b/librphttpd.a(maw_main.o)
                              ../../../../lib/32b/librphttpd.a(AsCustom.o) (mawRetrieveCustomItem)
../../../../lib/32b/librphttpd.a(AsMD5.o)
                              ../../../../lib/32b/librphttpd.a(RpAccess.o) (RpMD5)
../../../../lib/32b/librphttpd.a(Spwd.o)
                              ../../../../lib/32b/librphttpd.a(RpAccess.o) (SpwdGetExternalPassword)
../../../../lib/32b/librphttpd.a(RpCallBk.o)
                              ../../../../lib/32b/librphttpd.a(RpUser.o) (RpSetRomObjectList)
../../../../lib/32b/librphttpd.a(RpMulti.o)
                              ../../../../lib/32b/librphttpd.a(RpHttpRq.o) (RpSetupFileUploadRequest)
../../../../lib/32b/librphttpd.a(RpUrl.o)
                              ../../../../lib/32b/librphttpd.a(RpHttpRq.o) (RpFindHttpObject)
../../../../lib/32b/librphttpd.a(PrRomPop.o)
                              ../../../../lib/32b/librphttpd.a(PrPop3.o) (PrDisconnect)
../../../../lib/32b/libsnmp.a(snmpvar.o)
                              ./objs/MibMan.o (mibGroupRegister)
../../../../lib/32b/libsnmp.a(traps.o)
                              ./objs/ipgsnmp.o (SNMPSendTrap)
../../../../lib/32b/libsnmp.a(os_deps.o)
                              ../../../../lib/32b/libsnmp.a(traps.o) (trapSocket)
../../../../lib/32b/libsnmp.a(man_dumb.o)
                              ./objs/EARMIBAction.o (snmpGetVariableInfo)
../../../../lib/32b/libsnmp.a(man_errs.o)
                              ./objs/EARMIBAction.o (snmpErrorLookup)
../../../../lib/32b/libsnmp.a(man_fld.o)
                              ./objs/EARMIBAction.o (snmpExtractField)
../../../../lib/32b/libsnmp.a(man_indx.o)
                              ./objs/EARMIBAction.o (snmpFreeIndices)
../../../../lib/32b/libsnmp.a(man_irow.o)
                              ./objs/EARMIBAction.o (snmpInitRow)
../../../../lib/32b/libsnmp.a(man_mem.o)
                              ./objs/EARMIBAction.o (snmpFreeBufferLater)
../../../../lib/32b/libsnmp.a(snmp_port.o)
                              ../../../../lib/32b/libsnmp.a(os_deps.o) (naSnmpGetPortNumber)
../../../../lib/32b/libsnmp.a(snmp_ll.o)
                              ../../../../lib/32b/libsnmp.a(traps.o) (asn_build_header)
../../../../lib/32b/libsnmp.a(snmp_var.o)
                              ../../../../lib/32b/libsnmp.a(os_deps.o) (snmpOutPktsIncrement)
../../../../lib/32b/libsnmp.a(snmpage.o)
                              ../../../../lib/32b/libsnmp.a(os_deps.o) (snmpInput)
../../../../lib/32b/libsnmp.a(sys_var.o)
                              ../../../../lib/32b/libsnmp.a(os_deps.o) (sysMibRegister)
../../../../lib/32b/libsnmp.a(tcpip_var.o)
                              ../../../../lib/32b/libsnmp.a(os_deps.o) (tcpipMibRegister)
../../../../lib/32b/libsnmp.a(sys_local.o)
                              ../../../../lib/32b/libsnmp.a(sys_var.o) (sysLocalInitialize)
../../../../lib/32b/libsnmp.a(tcpip_local.o)
                              ../../../../lib/32b/libsnmp.a(tcpip_var.o) (tcpipLocalInitialize)
../../../../lib/32b/libmanMib.a(MibMan.o)
                              ../../../../lib/32b/libsnmp.a(os_deps.o) (manLoadSnmpV2)
../../../../lib/32b/libmanMib.a(RFC1213_MIB.o)
                              ../../../../lib/32b/libmanMib.a(MibMan.o) (RFC1213_MIB)
../../../../lib/32b/libmanMib.a(SNMPv2_MIB.o)
                              ../../../../lib/32b/libmanMib.a(MibMan.o) (SNMPv2_MIB)
../../../../lib/32b/libmanMib.a(RFC1213_MIBAction.o)
                              ../../../../lib/32b/libmanMib.a(RFC1213_MIB.o) (ifTableWrite)
../../../../lib/32b/libmanMib.a(SNMPv2_MIBAction.o)
                              ../../../../lib/32b/libmanMib.a(SNMPv2_MIB.o) (sysORTableRead)
../../../../lib/32b/libmanMib.a(man_sys.o)
                              ../../../../lib/32b/libmanMib.a(SNMPv2_MIB.o) (sysOREntryCompareFn)
../../../../lib/32b/libmanMib.a(man_if.o)
                              ../../../../lib/32b/libmanMib.a(RFC1213_MIB.o) (ifEntryCompareFn)
../../../../lib/32b/libmanMib.a(man_at.o)
                              ../../../../lib/32b/libmanMib.a(RFC1213_MIB.o) (atEntryCompareFn)
../../../../lib/32b/libmanMib.a(man_ip.o)
                              ../../../../lib/32b/libmanMib.a(RFC1213_MIB.o) (ipAddrEntryCompareFn)
../../../../lib/32b/libmanMib.a(man_icmp.o)
                              ../../../../lib/32b/libmanMib.a(RFC1213_MIB.o) (icmpInMsgsAccessFn)
../../../../lib/32b/libmanMib.a(man_tcp.o)
                              ../../../../lib/32b/libmanMib.a(RFC1213_MIB.o) (tcpConnEntryCompareFn)
../../../../lib/32b/libmanMib.a(man_upd.o)
                              ../../../../lib/32b/libmanMib.a(RFC1213_MIB.o) (udpEntryCompareFn)
../../../../lib/32b/libmanMib.a(man_egp.o)
                              ../../../../lib/32b/libmanMib.a(RFC1213_MIB.o) (egpNeighEntryCompareFn)
../../../../lib/32b/libmanMib.a(man_snmp.o)
                              ../../../../lib/32b/libmanMib.a(RFC1213_MIB.o) (snmpInPktsAccessFn)
../../../../lib/32b/libsntp.a(UDPsntp.o)
                              ../../../../lib/32b/libbsp.a(bsproot.o) (NAinstallTimeZone)
../../../../lib/32b/libfilesys.a(fss.o)
                              ../../../../lib/32b/libbsp.a(startfilesystem.o) (FSScreate)
../../../../lib/32b/libfilesys.a(rss.o)
                              ../../../../lib/32b/libbsp.a(startfilesystem.o) (RSScreate)
../../../../lib/32b/libfilesys.a(crc32h.o)
                              ../../../../lib/32b/libfilesys.a(fss.o) (crc32)
../../../../lib/32b/libfilesys.a(bheader.o)
                              ../../../../lib/32b/libfilesys.a(fss.o) (check_not_dirty_flag)
../../../../lib/32b/libfilesys.a(fs_api.o)
                              ../../../../lib/32b/libbsp.a(startfilesystem.o) (NAFSinit)
../../../../lib/32b/libfilesys.a(io.o)
                              ../../../../lib/32b/libfilesys.a(fs_api.o) (get_five_buffers)
../../../../lib/32b/libfilesys.a(parser.o)
                              ../../../../lib/32b/libbsp.a(startfilesystem.o) (check_path_format)
../../../../lib/32b/libfilesys.a(ftables.o)
                              ../../../../lib/32b/libfilesys.a(fs_api.o) (btable_init)
../../../../lib/32b/libfilesys.a(thread.o)
                              ../../../../lib/32b/libfilesys.a(fs_api.o) (media0_thread_entry)
../../../../lib/32b/libfilesys.a(sblock.o)
                              ../../../../lib/32b/libfilesys.a(fs_api.o) (sblock_write_total_blocks)
../../../../lib/32b/libfilesys.a(bpool.o)
                              ../../../../lib/32b/libfilesys.a(fs_api.o) (bpool_reset)
../../../../lib/32b/libfilesys.a(pwr_loss.o)
                              ../../../../lib/32b/libfilesys.a(fs_api.o) (power_loss_recovery)
../../../../lib/32b/libfilesys.a(inode.o)
                              ../../../../lib/32b/libfilesys.a(fs_api.o) (inode_init)
../../../../lib/32b/libfilesys.a(services.o)
                              ../../../../lib/32b/libfilesys.a(fs_api.o) (SSinit)
../../../../lib/32b/libbsp.a(cksum.o)
                              ../../../../lib/32b/libtcpip.a(osdep.o) (cksum)
../../../../lib/32b/libbsp.a(runcksum.o)
                              ../../../../lib/32b/libtcpip.a(osdep.o) (runcksum)
../../../../lib/32b/libbsp.a(MII.o)
                              ../../../../lib/32b/libsnmp.a(tcpip_local.o) (customizeMiiCheckSpeed)
../../../../lib/32b/libbsp.a(select_support.o)
                              ../../../../lib/32b/libtcpip.a(sockapi.o) (serl_select_on)
../../../../lib/32b/libbsp.a(eth_init.o)
                              ../../../../lib/32b/libfastip.a(fast_ip.o) (eth_datap)
../../../../lib/32b/libbsp.a(eth_dma.o)
                              ../../../../lib/32b/libfastip.a(fast_ip.o) (eth_rx_buffer_descriptors)
../../../../lib/32b/libbsp.a(eth_isr.o)
                              ../../../../lib/32b/libbsp.a(eth_init.o) (eth_init_isr)
../../../../lib/32b/libbsp.a(eth_mcast.o)
                              ../../../../lib/32b/libbsp.a(eth_init.o) (eth_load_mca_table)
../../../../lib/32b/libbsp.a(eth_os.o)
                              ../../../../lib/32b/libbsp.a(eth_isr.o) (ETH_RX_INT_FLAG)
../../../../lib/32b/libbsp.a(eth_recv.o)
                              ../../../../lib/32b/libbsp.a(eth_init.o) (eth_receive_task)
../../../../lib/32b/libbsp.a(eth_send.o)
                              ../../../../lib/32b/libbsp.a(eth_isr.o) (eth_tx_complete)
../../../../lib/32b/libbsp.a(eth_stack.o)
                              ../../../../lib/32b/libtcpip.a(ncdev.o) (eth0_init)
../../../../lib/32b/libbsp.a(eth_watchdog.o)
                              ../../../../lib/32b/libbsp.a(eth_recv.o) (eth_reset_rx)
../../../../lib/32b/libbsp.a(eth_reset.o)
                              ../../../../lib/32b/libbsp.a(MII.o) (eth_link_down_cnt)
../../../../lib/32b/libtx.a(tx_timeg.o)
                              ../../../../lib/32b/libtcpip.a(modem.o) (_tx_time_get)
../../../../lib/32b/libtx.a(txe_efs.o)
                              ../../../../lib/32b/libftpsvr.a(ftposp.o) (_txe_event_flags_set)
../../../../lib/32b/libtx.a(txe_tpch.o)
                              ../../../../lib/32b/libtcpip.a(osdep.o) (_txe_thread_preemption_change)
../../../../lib/32b/libtx.a(txe_trel.o)
                              ../../../../lib/32b/libtcpip.a(ace.o) (_txe_thread_relinquish)
../../../../lib/32b/libtx.a(TXE_TIG.o)
                              ../../../../lib/32b/libfilesys.a(fs_api.o) (_txe_thread_info_get)
../../../../lib/32b/libtx.a(TXE_MD.o)
                              ../../../../lib/32b/librphttpd.a(Sfil.o) (_txe_mutex_delete)
../../../../lib/32b/libtx.a(tx_trel.o)
                              ../../../../lib/32b/libtx.a(txe_trel.o) (_tx_thread_relinquish)
../../../../lib/32b/libtx.a(tx_tpch.o)
                              ../../../../lib/32b/libtx.a(txe_tpch.o) (_tx_thread_preemption_change)
../../../../lib/32b/libtx.a(tx_efs.o)
                              ../../../../lib/32b/libtx.a(txe_efs.o) (_tx_event_flags_set)
../../../../lib/32b/libtx.a(TX_TIG.o)
                              ../../../../lib/32b/libtx.a(TXE_TIG.o) (_tx_thread_info_get)
../../../../lib/32b/libtx.a(TX_MD.o)
                              ../../../../lib/32b/libtx.a(TXE_MD.o) (_tx_mutex_delete)
../../../../lib/32b/libemailc.a(allegro_mailc.o)
                              ../../../../lib/32b/librphttpd.a(PrPop3.o) (ReadAttachment)
../../../../lib/32b/libtcpip.a(udpopen.o)
                              ../../../../lib/32b/libsnmp.a(os_deps.o) (fns_udp_open)
../../../../lib/32b/libtcpip.a(strcpy.o)
                              ../../../../lib/32b/libsnmp.a(traps.o) (fns_strcpy)
../../../../lib/32b/libtcpip.a(strlen.o)
                              ../../../../lib/32b/libsnmp.a(traps.o) (fns_strlen)
../../../../lib/32b/libtcpip.a(memory.o)
                              ../../../../lib/32b/libsnmp.a(tcpip_local.o) (fns_memcmp)
../../../../lib/32b/libtcpip.a(ipbind.o)
                              ../../../../lib/32b/libtcpip.a(udpopen.o) (fns_ip_bind)
../../../../lib/32b/gnu/libc.a(atol.o)
                              ../../../../lib/32b/librphttpd.a(RmSmtp.o) (atol)
../../../../lib/32b/gnu/libc.a(rand.o)
                              ../../../../lib/32b/libfilesys.a(fss.o) (rand)
../../../../lib/32b/gnu/libc.a(time.o)
                              ../../../../lib/32b/libfilesys.a(inode.o) (time)
../../../../lib/32b/gnu/libc.a(timer.o)
                              ../../../../lib/32b/gnu/libc.a(time.o) (_gettimeofday_r)
../../../../lib/32b/libsnmp.a(man_wrtr.o)
                              ../../../../lib/32b/libmanMib.a(RFC1213_MIB.o) (genericWriter)
../../../../lib/32b/libsnmp.a(man_rnge.o)
                              ../../../../lib/32b/libmanMib.a(RFC1213_MIB.o) (snmpAgentRangeChecker)
../../../../lib/32b/libsnmp.a(man_wobj.o)
                              ../../../../lib/32b/libsnmp.a(man_wrtr.o) (snmpWriteObject)
../../../../lib/32b/libsnmp.a(man_accr.o)
                              ../../../../lib/32b/libmanMib.a(RFC1213_MIB.o) (manApiAccessor)
../../../../lib/32b/libsnmp.a(man_robj.o)
                              ../../../../lib/32b/libsnmp.a(man_accr.o) (snmpReadObject)

Allocating common symbols
Common symbol       size              file

semaphore_rtc       0x1c              ./objs/semaphores.o
m_extra             0x4               ../../../../lib/32b/libtcpip.a(ncdid.o)
ip_def_ttl          0x4               ../../../../lib/32b/libtcpip.a(ncdid.o)
password            0x640             ../../../../lib/32b/libtelnsvr.a(telnetd2.o)
_tx_thread_priority_list
                    0x80              ../../../../lib/32b/libtx.a(tx_ti.o)
savedSemWaitCount   0x4               ./objs/EARMIBAction.o
kNumberOfFiles      0x4               ../../../../lib/32b/librphttpd.a(AsMain.o)
nd_size             0x4               ../../../../lib/32b/libtcpip.a(ncdev.o)
ser_rx_bd           0x20              ../../../../lib/32b/libbsp.a(NCC_POST.o)
ip_id               0x2               ../../../../lib/32b/libtcpip.a(ip.o)
earDigiBank2FirmwareRevisionRead_buffer
                    0x28              ./objs/EARMIBAction.o
ip_initialized      0x4               ../../../../lib/32b/libtcpip.a(ncdid.o)
wq_offset           0x4               ../../../../lib/32b/libtcpip.a(ncdid.o)
fr_interval         0x4               ../../../../lib/32b/libtcpip.a(ncdid.o)
preserveLowCurrent  0x4               ./objs/EARMIBAction.o
sop_tbl             0x4               ../../../../lib/32b/libtcpip.a(ncmisc.o)
_tx_timer_current_ptr
                    0x4               ../../../../lib/32b/libtx.a(tx_timi.o)
p_name_server_list  0x4               ../../../../lib/32b/libtcpip.a(res_init.o)
earDataModeRead_value
                    0x4               ./objs/EARMIBAction.o
challengeonce       0x4               ../../../../lib/32b/libbsp.a(sysAccess.o)
earTotalOpticalOutputPower_temp
                    0x28              ./objs/EDFAWelcomePage_v.o
hdlc_mem_config     0x14              ../../../../lib/32b/libbsp.a(hdlcmem.o)
_tx_timer_list      0x80              ../../../../lib/32b/libtx.a(tx_timi.o)
manHistoryTableKey  0x4               ./objs/ipgsnmp.o
telnetStackSize     0x4               ./objs/menu.o
trapHistoryTableIndex
                    0x4               ./objs/root.o
earPowerSafetyMode_temp
                    0x28              ./objs/EDFAWelcomePage_v.o
SNMPTrapQueue       0x38              ../../../../lib/32b/libsnmp.a(traps.o)
earSerialNumber_temp
                    0x28              ./objs/EDFAWelcomePage_v.o
so_size             0x4               ../../../../lib/32b/libtcpip.a(ncdid.o)
earOutputPowerHighAlarmLevel_temp
                    0x28              ./objs/EDFAWelcomePage_v.o
tcp_port            0x4               ../../../../lib/32b/libtcpip.a(tcpmisc.o)
Mib_Leave           0x18c             ./objs/root.o
earInputPowerHighAlarmLevel_temp
                    0x28              ./objs/EDFAWelcomePage_v.o
ip_gwy_learn        0x4               ../../../../lib/32b/libtcpip.a(ncdid.o)
earPowerSafetyModeWrite_buffer
                    0x28              ./objs/EARMIBAction.o
earDigiFirmwareRev_temp
                    0x28              ./objs/EDFAWelcomePage_v.o
t_clicks            0x4               ../../../../lib/32b/libtcpip.a(timer.o)
rg_code             0x4               ../../../../lib/32b/libsnmp.a(tcpip_local.o)
empty_frame_q       0x10              ../../../../lib/32b/libbsp.a(hdlcmem.o)
ip_interval         0x4               ../../../../lib/32b/libtcpip.a(ncdid.o)
earOutputPowerTooHighAlarmLevel_temp
                    0x28              ./objs/EDFAWelcomePage_v.o
tcp_seed            0x4               ../../../../lib/32b/libtcpip.a(ncdid.o)
udp_rq_max          0x4               ../../../../lib/32b/libtcpip.a(ncpr.o)
startValue          0x14              ./objs/root.o
semaphore_0         0x1c              ./objs/semaphores.o
critical_thread     0x4               ../../../../lib/32b/libtcpip.a(osdep.o)
Mib_Leaves          0x4               ./objs/root.o
errno               0x4               ../../../../lib/32b/gnu/libc.a(reent.o)
_tx_event_flags_created_ptr
                    0x4               ../../../../lib/32b/libtx.a(tx_ihl.o)
mib_icmp            0x4               ../../../../lib/32b/libsnmp.a(tcpip_local.o)
earInputPowerLowAlarmLevel_temp
                    0x28              ./objs/EDFAWelcomePage_v.o
sockLocalfsin       0x10              ../../../../lib/32b/libtcpip.a(sockapi.o)
AliveTimerNVRamSave
                    0x1               ./objs/root.o
ar_end              0x4               ../../../../lib/32b/libtcpip.a(arp.o)
main_irq_table      0x50              ../../../../lib/32b/libbsp.a(IRQREG.o)
_tx_mutex_created_count
                    0x4               ../../../../lib/32b/libtx.a(tx_ihl.o)
Bank                0x4               ./objs/EARMIBAction.o
slppp_head          0x4               ../../../../lib/32b/libtcpip.a(ncdid.o)
TimeoutS            0x4               ./objs/telnet.o
fr_sqtb             0x10              ../../../../lib/32b/libtcpip.a(frklk.o)
ip_fq               0xc               ../../../../lib/32b/libtcpip.a(ipfrag.o)
MTWnewIndex         0xc               ./objs/earSnmpMngrTable.o
mib_udp             0x4               ../../../../lib/32b/libsnmp.a(tcpip_local.o)
gFileData           0x1680            ../../../../lib/32b/librphttpd.a(mcfil.o)
eni_fifo_bd         0x10              ../../../../lib/32b/libbsp.a(NCC_POST.o)
semHistTblMutex     0x1c              ./objs/semaphores.o
preserveLowPower    0x4               ./objs/EARMIBAction.o
timer_snmpApp       0x2c              ./objs/root.o
efe_rx_bd_ptr       0x4               ../../../../lib/32b/libbsp.a(NCC_POST.o)
prp_tbl             0x14              ../../../../lib/32b/libtcpip.a(ncpr.o)
tcp_keep_alive      0x4               ../../../../lib/32b/libtcpip.a(tcpmisc.o)
earTotalOpticalOutputPower2_temp
                    0x28              ./objs/EDFAWelcomePage_v.o
so_cnt              0x4               ../../../../lib/32b/libtcpip.a(ncdid.o)
loginFailureCallback
                    0x4               ../../../../lib/32b/libbsp.a(sysAccess.o)
_tx_mutex_created_ptr
                    0x4               ../../../../lib/32b/libtx.a(tx_ihl.o)
gRpPopData          0xd414            ../../../../lib/32b/librphttpd.a(PrData.o)
inext_sopp          0x4               ../../../../lib/32b/libtcpip.a(sock.o)
_tx_queue_created_count
                    0x4               ../../../../lib/32b/libtx.a(tx_ihl.o)
eth_tx_buffer_descriptors
                    0x400             ../../../../lib/32b/libbsp.a(eth_dma.o)
g_timedate          0x1c              ./objs/root.o
g_serialBuffer      0x100             ./objs/root.o
crc32_table         0x400             ../../../../lib/32b/libfilesys.a(crc32h.o)
_tx_semaphore_created_ptr
                    0x4               ../../../../lib/32b/libtx.a(tx_ihl.o)
_tx_byte_pool_created_ptr
                    0x4               ../../../../lib/32b/libtx.a(tx_ihl.o)
snmpStackSize       0x4               ./objs/menu.o
serialStackSize     0x4               ./objs/menu.o
_tx_thread_created_ptr
                    0x4               ../../../../lib/32b/libtx.a(tx_ti.o)
earMaximumGainSetPoint_temp
                    0x28              ./objs/EDFAWelcomePage_v.o
p_dhcp_timer        0x4               ../../../../lib/32b/libtcpip.a(timer.o)
p_auto_ipv4_arp_up  0x4               ../../../../lib/32b/libtcpip.a(arp.o)
snmpStackBegin      0x4               ./objs/menu.o
evntSelect          0x20              ../../../../lib/32b/libbsp.a(starttcp.o)
settingsTrace       0xc8              ./objs/root.o
kNumberOfConnections
                    0x4               ../../../../lib/32b/librphttpd.a(AsMain.o)
NAIsrTable          0x180             ../../../../lib/32b/libbsp.a(NA_ISR.o)
setpoint            0x4               ./objs/EDFAWelcomePage_v.o
small_frame_q       0x10              ../../../../lib/32b/libbsp.a(hdlcmem.o)
FIRST               0x2               ./objs/root.o
NASnmpSemaphore     0x1c              ../../../../lib/32b/libsnmp.a(os_deps.o)
en_rq_max           0x4               ../../../../lib/32b/libtcpip.a(ncpr.o)
earOutputPower2OffAlarmLevel_temp
                    0x28              ./objs/EDFAWelcomePage_v.o
_tx_timer_expired   0x4               ../../../../lib/32b/libtx.a(tx_timi.o)
ipnet0z             0x4               ../../../../lib/32b/libtcpip.a(ncdid.o)
icmp_rq_max         0x4               ../../../../lib/32b/libtcpip.a(ncpr.o)
_tx_initialize_unused_memory
                    0x4               ../../../../lib/32b/libtx.a(tx_ike.o)
ar_cache            0x4               ../../../../lib/32b/libtcpip.a(arp.o)
alarmTrap_app       0xa4              ./objs/root.o
serl_monitor_thread
                    0xa4              ../../../../lib/32b/libbsp.a(netos_serl.o)
tcp_max_mss         0x4               ../../../../lib/32b/libtcpip.a(ncdid.o)
tcp_rq_default      0x4               ../../../../lib/32b/libtcpip.a(ncpr.o)
serialAppStack      0x4               ./objs/root.o
drv_intr            0x4               ../../../../lib/32b/libtcpip.a(ncdev.o)
ftp_app             0xa4              ./objs/root.o
tcp_sq_max          0x4               ../../../../lib/32b/libtcpip.a(ncpr.o)
nde_size            0x4               ../../../../lib/32b/libtcpip.a(ncdev.o)
need_my_ipaddr      0x4               ../../../../lib/32b/libtcpip.a(arp.o)
services_table      0x100             ../../../../lib/32b/libfilesys.a(services.o)
dns_cache_enable    0x4               ../../../../lib/32b/libtcpip.a(dnscache.o)
cleanup_thread      0xa4              ../../../../lib/32b/libposix.a(posix_thread.o)
msd_debug           0x4               ../../../../lib/32b/libtcpip.a(ncdid.o)
earTemperatureAlarmThreshold_temp
                    0x28              ./objs/EDFAWelcomePage_v.o
_tx_timer_time_slice
                    0x4               ../../../../lib/32b/libtx.a(tx_timi.o)
thrdSlct            0xa4              ../../../../lib/32b/libbsp.a(starttcp.o)
packetTypeSemaphore
                    0x1c              ../../../../lib/32b/libbsp.a(eth_stack.o)
mib_ip              0x4               ../../../../lib/32b/libsnmp.a(tcpip_local.o)
_tx_thread_created_count
                    0x4               ../../../../lib/32b/libtx.a(tx_ti.o)
earIpAddress_temp   0x10              ./objs/EDFAWelcomePage_v.o
icmp_initialized    0x4               ../../../../lib/32b/libtcpip.a(ncdid.o)
timer_stack         0x1000            ../../../../lib/32b/libbsp.a(starttcp.o)
earInput2PowerTooHighAlarmLevel_temp
                    0x28              ./objs/EDFAWelcomePage_v.o
udp_initialized     0x4               ../../../../lib/32b/libtcpip.a(ncdid.o)
snmpd_tid           0x4               ./objs/Snmp_api.o
alarmStackSize      0x4               ./objs/menu.o
_tx_timer_priority  0x4               ../../../../lib/32b/libtx.a(tx_timi.o)
tcp_try_max         0x4               ../../../../lib/32b/libtcpip.a(ncpr.o)
write_method        0x4               ../../../../lib/32b/libsnmp.a(snmpage.o)
icmp_prp            0x4               ../../../../lib/32b/libtcpip.a(icmp.o)
g_ftp_server        0x4               ../../../../lib/32b/libftpsvr.a(ftpsvr.o)
fr_eqtb             0x10              ../../../../lib/32b/libtcpip.a(frklk.o)
ndp_tbl             0x4               ../../../../lib/32b/libtcpip.a(icmp.o)
my_ipaddr           0x4               ../../../../lib/32b/libtcpip.a(arp.o)
re_cnt              0x4               ../../../../lib/32b/libtcpip.a(ncdid.o)
earUpgradeDigiFirmwareRead_buffer
                    0x28              ./objs/EARMIBAction.o
communities         0x30              ../../../../lib/32b/libsnmp.a(os_deps.o)
sel_pending_q       0xc               ../../../../lib/32b/libtcpip.a(select.o)
g_variables_array_size
                    0x4               ./objs/root.o
udp_sq_max          0x4               ../../../../lib/32b/libtcpip.a(ncpr.o)
collectionStackSize
                    0x4               ./objs/menu.o
_tx_block_pool_created_count
                    0x4               ../../../../lib/32b/libtx.a(tx_ihl.o)
earGainControlSetpoint_temp
                    0x28              ./objs/EDFAWelcomePage_v.o
do_snmp             0x4               ../../../../lib/32b/libtcpip.a(ncdid.o)
fr_q_interval       0x4               ../../../../lib/32b/libtcpip.a(ncdid.o)
h_errno             0x4               ../../../../lib/32b/libtcpip.a(res_quer.o)
first_sector_data   0x20000           ../../../../lib/32b/libflash.a(naflash.o)
alrmTrace           0xc8              ./objs/root.o
_tx_thread_system_stack_ptr
                    0x4               ../../../../lib/32b/libtx.a(tx_ti.o)
thread_net_os_http_server
                    0x4               ../../../../lib/32b/librphttpd.a(hserv.o)
efe_rx_bd_b         0x40              ../../../../lib/32b/libbsp.a(NCC_POST.o)
alarmAppStack       0x4               ./objs/root.o
earAmbientTemperature_temp
                    0x28              ./objs/EDFAWelcomePage_v.o
efe_tx_bd           0xf0              ../../../../lib/32b/libbsp.a(NCC_POST.o)
nc_hsize            0x4               ../../../../lib/32b/libtcpip.a(ncdev.o)
snmpOutBuff         0x800             ../../../../lib/32b/libsnmp.a(os_deps.o)
inBuff              0x800             ../../../../lib/32b/libsnmp.a(os_deps.o)
mSectorBase         0x4               ../../../../lib/32b/libflash.a(naflash.o)
rteTbl_Addrs        0x100             ../../../../lib/32b/libtcpip.a(rripfdb.o)
dns_cache_lock      0x4               ../../../../lib/32b/libtcpip.a(dnscache.o)
outbound_packets    0x4               ../../../../lib/32b/libtcpip.a(ipxmit.o)
serial_write_semaphore
                    0x1c              ../../../../lib/32b/libtcpip.a(pppapi.o)
eth_activity_ttl    0x4               ../../../../lib/32b/libbsp.a(eth_init.o)
localAddress        0x10              ../../../../lib/32b/libsnmp.a(os_deps.o)
icmp_q              0xc               ../../../../lib/32b/libtcpip.a(icmp.o)
arp_cnt             0x4               ../../../../lib/32b/libtcpip.a(ncdid.o)
product_name        0x4               ../../../../lib/32b/libtcpip.a(ncdid.o)
so_used             0x4               ../../../../lib/32b/libtcpip.a(ncdid.o)
hdlc_chan           0x8               ../../../../lib/32b/libbsp.a(hdlcdvr.o)
ip_ifrag            0x4               ../../../../lib/32b/libtcpip.a(ncdid.o)
name_servers        0x4               ../../../../lib/32b/libtcpip.a(res_init.o)
earTelnetTimeoutRead_buffer
                    0x28              ./objs/EARMIBAction.o
_tx_timer_list_end  0x4               ../../../../lib/32b/libtx.a(tx_timi.o)
_tx_timer_thread    0xa4              ../../../../lib/32b/libtx.a(tx_timi.o)
gftp_data           0x10              ../../../../lib/32b/libftpsvr.a(ftpsvr.o)
semaphore_nvParams  0x1c              ./objs/semaphores.o
earDateOfManufacture_temp
                    0x28              ./objs/EDFAWelcomePage_v.o
earTotalOpticalInput2Power_temp
                    0x28              ./objs/EDFAWelcomePage_v.o
semaphore_sbuf      0x1c              ./objs/semaphores.o
dns_timer           0x24              ../../../../lib/32b/libtcpip.a(dnscache.o)
critical_as_semaphore
                    0x4               ../../../../lib/32b/libtcpip.a(osdep.o)
_res                0x1c8             ../../../../lib/32b/libtcpip.a(res_init.o)
savedLaserCurrentValue
                    0x4               ./objs/EARMIBAction.o
_tx_thread_preempted_map
                    0x4               ../../../../lib/32b/libtx.a(tx_ti.o)
pc_tx_bd            0x40              ../../../../lib/32b/libbsp.a(NCC_POST.o)
t_offset            0x4               ../../../../lib/32b/libtcpip.a(bootpapi.o)
ser_tx_bd           0x20              ../../../../lib/32b/libbsp.a(NCC_POST.o)
ipsubz              0x4               ../../../../lib/32b/libtcpip.a(ncdid.o)
eth_rxa_buffer_descriptors
                    0x200             ../../../../lib/32b/libbsp.a(eth_dma.o)
tcptargz            0x4               ../../../../lib/32b/libtcpip.a(ncdid.o)
pc_rx_buffer        0x10              ../../../../lib/32b/libbsp.a(NCC_POST.o)
tempBuf             0x5dc             ../../../../lib/32b/libsnmp.a(snmpage.o)
gFileSystemMutex    0x2c              ../../../../lib/32b/librphttpd.a(Sfil.o)
_tx_timer_system_clock_hi
                    0x4               ../../../../lib/32b/libtx.a(tx_timi.o)
earInputPowerTooHighAlarmLevel_temp
                    0x28              ./objs/EDFAWelcomePage_v.o
earDigiBank1FirmwareRevisionRead_buffer
                    0x28              ./objs/EARMIBAction.o
_tx_thread_preempt_disable
                    0x4               ../../../../lib/32b/libtx.a(tx_ti.o)
earVendorProductNameAndSerialNumberRead_buffer
                    0x28              ./objs/EARMIBAction.o
efe_rx_bd_c         0x40              ../../../../lib/32b/libbsp.a(NCC_POST.o)
the_time            0x4               ../../../../lib/32b/libtcpip.a(timer.o)
rootThread          0xa4              ../../../../lib/32b/libbsp.a(bsproot.o)
_tx_timer_list_start
                    0x4               ../../../../lib/32b/libtx.a(tx_timi.o)
gftp_socket         0x10              ../../../../lib/32b/libftpsvr.a(ftpsvr.o)
yourSnmpSetSerialNo
                    0x4               ../../../../lib/32b/libsnmp.a(snmp_var.o)
whichSubmitButton   0x4               ./objs/EDFAWelcomePage_v.o
gftp_timer_event    0x4               ../../../../lib/32b/libftpsvr.a(ftposp.o)
udp_q               0xc               ../../../../lib/32b/libtcpip.a(udpsock.o)
_tx_thread_current_ptr
                    0x4               ../../../../lib/32b/libtx.a(tx_ti.o)
slctStack           0x1000            ../../../../lib/32b/libbsp.a(starttcp.o)
tcp_idle_interval   0x4               ../../../../lib/32b/libtcpip.a(tcpmisc.o)
eth_isr_timer_cnt   0x4               ../../../../lib/32b/libbsp.a(eth_isr.o)
udp_port            0x2               ../../../../lib/32b/libtcpip.a(udpsock.o)
_tx_timer_created_ptr
                    0x4               ../../../../lib/32b/libtx.a(tx_timi.o)
_tx_thread_priority_map
                    0x4               ../../../../lib/32b/libtx.a(tx_ti.o)
tcpCurrEstab        0x4               ../../../../lib/32b/libsnmp.a(tcpip_local.o)
pri_irq_table       0x1e0             ../../../../lib/32b/libbsp.a(IRQREG.o)
TS_session_tab      0x280             ./objs/telnet.o
_tx_timer_stack_size
                    0x4               ../../../../lib/32b/libtx.a(tx_timi.o)
earPumpsOffRead_buffer
                    0x28              ./objs/earPumpsOff.o
twq_initialized     0x4               ../../../../lib/32b/libtcpip.a(ncdid.o)
mSectorBase32       0x4               ../../../../lib/32b/libflash.a(naflash.o)
hdlc_unknown_rx_ints
                    0x8               ../../../../lib/32b/libbsp.a(hdlcdvr.o)
earMinimumGainSetPoint_temp
                    0x28              ./objs/EDFAWelcomePage_v.o
eth_rxc_buffer_descriptors
                    0x8               ../../../../lib/32b/libbsp.a(eth_dma.o)
alarmStackBegin     0x4               ./objs/menu.o
msmz                0x4               ../../../../lib/32b/libtcpip.a(ncdid.o)
earModelNumber_temp
                    0x28              ./objs/EDFAWelcomePage_v.o
earMeasuredGainValue_temp
                    0x28              ./objs/EDFAWelcomePage_v.o
arp_initialized     0x4               ../../../../lib/32b/libtcpip.a(ncdid.o)
snmpTrap_app        0xa4              ./objs/root.o
uart_write_cb       0xfe90            ../../../../lib/32b/libtcpip.a(uart.o)
ipbroadz            0x4               ../../../../lib/32b/libtcpip.a(ncdid.o)
dns_cache_size      0x4               ../../../../lib/32b/libtcpip.a(dnscache.o)
t_time              0x4               ../../../../lib/32b/libtcpip.a(timer.o)
earOutputPower2TooHighAlarmLevel_temp
                    0x28              ./objs/EDFAWelcomePage_v.o
_tx_timer_stack_start
                    0x4               ../../../../lib/32b/libtx.a(tx_timi.o)
telnetStackBegin    0x4               ./objs/menu.o
earMaximumPowerSetpoint_temp
                    0x28              ./objs/EDFAWelcomePage_v.o
tcp_initialized     0x4               ../../../../lib/32b/libtcpip.a(ncdid.o)
mib_tcp             0x4               ../../../../lib/32b/libsnmp.a(tcpip_local.o)
rtc_buffer          0x28              ./objs/earRtcTime.o
tcp_prp             0x4               ../../../../lib/32b/libtcpip.a(ncdid.o)
arp_ttl             0x4               ../../../../lib/32b/libtcpip.a(ncdid.o)
MTWfieldsCommitted  0x4               ./objs/earSnmpMngrTable.o
cfg_nnets           0x4               ../../../../lib/32b/libsnmp.a(os_deps.o)
inbound_packets     0x4               ../../../../lib/32b/libtcpip.a(ipnetd.o)
large_frame_q       0x10              ../../../../lib/32b/libbsp.a(hdlcmem.o)
earOutputPower2LowAlarmLevel_temp
                    0x28              ./objs/EDFAWelcomePage_v.o
dma_mm_bd           0x140             ../../../../lib/32b/libbsp.a(NCC_POST.o)
ip_t_def            0x4               ../../../../lib/32b/libtcpip.a(ncdid.o)
earFirmwareRevision_temp
                    0x28              ./objs/EDFAWelcomePage_v.o
router_r_gq         0x1c              ../../../../lib/32b/libtcpip.a(rrtask.o)
earDigiActiveFBConfirmed_temp
                    0x28              ./objs/EDFAWelcomePage_v.o
earOutputPowerOffAlarmLevel_temp
                    0x28              ./objs/EDFAWelcomePage_v.o
igmp_tbl            0x4               ../../../../lib/32b/libtcpip.a(igmp.o)
dhcp_time_since_boot
                    0x4               ../../../../lib/32b/libtcpip.a(client.o)
gRpData             0x1d920           ../../../../lib/32b/librphttpd.a(AsGlobal.o)
powerSetpoint       0x4               ./objs/EDFAWelcomePage_v.o
earOutputPowerLowAlarmLevel_temp
                    0x28              ./objs/EDFAWelcomePage_v.o
MTWfieldsUndone     0x4               ./objs/earSnmpMngrTable.o
ttstate             0x4               ../../../../lib/32b/libtelnsvr.a(ttfsm.o)
telnetAppStack      0x4               ./objs/root.o
p_dhcp_arp          0x4               ../../../../lib/32b/libtcpip.a(arp.o)
eth_rxb_buffer_descriptors
                    0x8               ../../../../lib/32b/libbsp.a(eth_dma.o)
gftp_address        0x10              ../../../../lib/32b/libftpsvr.a(ftpsvr.o)
earOutputPower2HighAlarmLevel_temp
                    0x28              ./objs/EDFAWelcomePage_v.o
timer_task          0xa4              ../../../../lib/32b/libbsp.a(starttcp.o)
earDigiActiveFB_temp
                    0x28              ./objs/EDFAWelcomePage_v.o
_tx_thread_execute_ptr
                    0x4               ../../../../lib/32b/libtx.a(tx_ti.o)
_tx_thread_lowest_bit
                    0x100             ../../../../lib/32b/libtx.a(tx_ti.o)
_tx_timer_created_count
                    0x4               ../../../../lib/32b/libtx.a(tx_timi.o)
snmpAppStack        0x4               ./objs/root.o
efe_rx_bd_d         0x10              ../../../../lib/32b/libbsp.a(NCC_POST.o)
domain_name_server  0x4               ../../../../lib/32b/libtcpip.a(bootpapi.o)
serl_monitor_stack  0x800             ../../../../lib/32b/libbsp.a(netos_serl.o)
snmpSocket          0x4               ../../../../lib/32b/libsnmp.a(os_deps.o)
resetTimer          0x2c              ./objs/ipgFlash.o
plTrace             0x190             ./objs/root.o
int_buf             0x10              ./objs/earTrapPort.o
earDeviceTypeFD_value
                    0x4               ./objs/EARMIBAction.o
_tx_semaphore_created_count
                    0x4               ../../../../lib/32b/libtx.a(tx_ihl.o)
eth_stats           0xd0              ../../../../lib/32b/libbsp.a(eth_init.o)
max_backlog         0x4               ../../../../lib/32b/libtcpip.a(ncdid.o)
eth_rxd_buffer_descriptors
                    0x8               ../../../../lib/32b/libbsp.a(eth_dma.o)
earControlMode_temp
                    0x28              ./objs/EDFAWelcomePage_v.o
tcprackz            0x4               ../../../../lib/32b/libtcpip.a(ncdid.o)
earDigiFirmwareRevisionRead_Buffer
                    0x28              ./objs/EARMIBAction.o
earSubnetMask_temp  0x10              ./objs/EDFAWelcomePage_v.o
telnet_app          0xa4              ./objs/root.o
pc_rx_index         0x8               ../../../../lib/32b/libbsp.a(NCC_POST.o)
heap_base           0x4               ../../../../lib/32b/libtcpip.a(lkheap.o)
ss_semaphore        0x1c              ../../../../lib/32b/libfilesys.a(services.o)
dns_cache_timeout   0x4               ../../../../lib/32b/libtcpip.a(dnscache.o)
dns_errno           0x4               ../../../../lib/32b/libtcpip.a(res_init.o)
yourSnmpTrap        0x408             ../../../../lib/32b/libsnmp.a(traps.o)
_tx_thread_highest_priority
                    0x4               ../../../../lib/32b/libtx.a(tx_ti.o)
del_thrd_queue      0x38              ../../../../lib/32b/libposix.a(posix_thread.o)
endValue            0x14              ./objs/root.o
icmp_sq_max         0x4               ../../../../lib/32b/libtcpip.a(ncpr.o)
_tx_timer_expired_time_slice
                    0x4               ../../../../lib/32b/libtx.a(tx_timi.o)
tcp_quiet           0x4               ../../../../lib/32b/libtcpip.a(ncdid.o)
earCleiCodeRead_buffer
                    0x28              ./objs/EARMIBAction.o
earInput2PowerLowAlarmLevel_temp
                    0x28              ./objs/EDFAWelcomePage_v.o
critical_sem        0x1c              ../../../../lib/32b/libtcpip.a(osdep.o)
currentPowerValue   0x4               ./objs/EARMIBAction.o
udp_prp             0x4               ../../../../lib/32b/libtcpip.a(udpsock.o)
mailerproductname   0x80              ../../../../lib/32b/librphttpd.a(RmSmtp.o)
alarmsCleared       0x4               ./objs/root.o
h_low_water         0x4               ../../../../lib/32b/libtcpip.a(lkheap.o)
igmp_entries        0x4               ../../../../lib/32b/libtcpip.a(igmp.o)
trapAddress         0x10              ../../../../lib/32b/libsnmp.a(os_deps.o)
time_mib            0x4               ../../../../lib/32b/libtcpip.a(timer.o)
ttfsm               0x600             ../../../../lib/32b/libtelnsvr.a(ttfsm.o)
_tx_timer_system_clock
                    0x4               ../../../../lib/32b/libtx.a(tx_timi.o)
AliveTrapTimer      0x1               ./objs/root.o
_tx_event_flags_created_count
                    0x4               ../../../../lib/32b/libtx.a(tx_ihl.o)
alarmsSet           0x4               ./objs/root.o
arp_q_interval      0x4               ../../../../lib/32b/libtcpip.a(ncdid.o)
lastInViewOidLen    0x4               ../../../../lib/32b/libsnmp.a(snmpage.o)
ip_rte_ttl          0x4               ../../../../lib/32b/libtcpip.a(ncdid.o)
earInput2PowerOffAlarmLevel_temp
                    0x28              ./objs/EDFAWelcomePage_v.o
earTotalOpticalInputPower_temp
                    0x28              ./objs/EDFAWelcomePage_v.o
synching            0x1               ../../../../lib/32b/libtelnsvr.a(tcga.o)
gRpSmtpData         0x14364           ../../../../lib/32b/librphttpd.a(RmData.o)
_tx_block_pool_created_ptr
                    0x4               ../../../../lib/32b/libtx.a(tx_ihl.o)
tcp_q               0xc               ../../../../lib/32b/libtcpip.a(tcpmisc.o)
modem_recv_cb_semaphore
                    0x1c              ../../../../lib/32b/libtcpip.a(pppapi.o)
earOutputPower2SetpointValue_temp
                    0x28              ./objs/EDFAWelcomePage_v.o
serial_app          0xa4              ./objs/root.o
earGateway_temp     0x10              ./objs/EDFAWelcomePage_v.o
sysAccessPassword   0x640             ../../../../lib/32b/libtelnsvr.a(telnetd2.o)
collectionStackBegin
                    0x4               ./objs/menu.o
host_name           0x40              ../../../../lib/32b/libtcpip.a(bootpapi.o)
earOutputPowerSetpointValue_temp
                    0x28              ./objs/EDFAWelcomePage_v.o
earGainControlSetpoint2_temp
                    0x28              ./objs/EDFAWelcomePage_v.o
tcp_down_timer      0x2c              ../../../../lib/32b/libbsp.a(bsproot.o)
earInput2PowerHighAlarmLevel_temp
                    0x28              ./objs/EDFAWelcomePage_v.o
router_tcb          0x24              ../../../../lib/32b/libtcpip.a(fnsrr.o)
efe_rx_bd_a         0x40              ../../../../lib/32b/libbsp.a(NCC_POST.o)
irqFlag             0x80              ../../../../lib/32b/libbsp.a(NCC_POST.o)
MTWoldIndex         0xc               ./objs/earSnmpMngrTable.o
earTemperatureAlarmThresholdRead_buffer
                    0x28              ./objs/earTemperatureAlarmThreshold.o
bufferList          0x7d0             ../../../../lib/32b/libsnmp.a(man_mem.o)
serialStackBegin    0x4               ./objs/menu.o
earInputPowerOffAlarmLevel_temp
                    0x28              ./objs/EDFAWelcomePage_v.o
ppp_rq_max          0x4               ../../../../lib/32b/libtcpip.a(ncpr.o)
row                 0x4               ./objs/earSnmpMngrTable.o
tcp_rq_max          0x4               ../../../../lib/32b/libtcpip.a(ncpr.o)
manVariableChangeFn
                    0x4               ../../../../lib/32b/libmanapi.a(man_init.o)
modem_cb            0xa48             ../../../../lib/32b/libtcpip.a(modem.o)
_tx_queue_created_ptr
                    0x4               ../../../../lib/32b/libtx.a(tx_ihl.o)
_tx_byte_pool_created_count
                    0x4               ../../../../lib/32b/libtx.a(tx_ihl.o)

Memory Configuration

Name             Origin             Length             Attributes
LOW_RAM          0x00000400         0x00003c00
CODE_RAM         0x00004000         0x00200000
CACHED_CODE      0x08004000         0x00200000
HIGH_RAM         0x00204000         0x005fc000
*default*        0x00000000         0xffffffff

Linker script and memory map

LOAD ./objs/appconf_api.o
LOAD ./objs/root.o
LOAD ./objs/MibMan.o
LOAD ./objs/EARMIB.o
LOAD ./objs/EARMIBAction.o
LOAD ./objs/ipgFlash.o
LOAD ./objs/telnet.o
LOAD ./objs/menu.o
LOAD ./objs/ipgsnmp.o
LOAD ./objs/earTemperatureAlarmThreshold.o
LOAD ./objs/earSnmpMngrTable.o
LOAD ./objs/earTrapPort.o
LOAD ./objs/earPumpsOff.o
LOAD ./objs/earChassisReboot.o
LOAD ./objs/earModelNumberRead.o
LOAD ./objs/earRtcTime.o
LOAD ./objs/find_highwater.o
LOAD ./objs/readFrom2U2.o
LOAD ./objs/semaphores.o
LOAD ./objs/Snmp_api.o
LOAD ./objs/configNotification.o
LOAD ./objs/atmel.o
LOAD ./objs/EDFAWelcomePage.o
LOAD ./objs/EDFAWelcomePage_v.o
LOAD ./objs/RpPages.o
LOAD ./objs/security.o
LOAD ./objs/RpUsrDct.o
LOAD ./objs/cgi.o
LOAD ./objs/file.o
LOAD ./objs/naftpapp.o
LOAD ./objs/reset.o
LOAD ../../../../lib/32b/gnu/crt0.o
LOAD /usr/lib/gcc-lib/arm-elf/3.2/be/libgcc.a
LOAD ../../../../lib/32b/gnu/libc.a
LOAD /usr/lib/gcc-lib/arm-elf/3.2/be/libgcc.a
START GROUP
LOAD ../../../../lib/32b/libbsp.a
LOAD ../../../../lib/32b/libflash.a
LOAD ../../../../lib/32b/libposix.a
LOAD ../../../../lib/32b/libtx.a
LOAD ../../../../lib/32b/libmanapi.a
LOAD ../../../../lib/32b/libftpclnt.a
LOAD ../../../../lib/32b/libftpsvr.a
LOAD ../../../../lib/32b/libemailc.a
LOAD ../../../../lib/32b/libtelnsvr.a
LOAD ../../../../lib/32b/libdnsclnt.a
LOAD ../../../../lib/32b/libfastip.a
LOAD ../../../../lib/32b/libfsock.a
LOAD ../../../../lib/32b/libtcpip.a
LOAD ../../../../lib/32b/gnu/libc.a
LOAD /usr/lib/gcc-lib/arm-elf/3.2/be/libgcc.a
LOAD /usr/lib/gcc-lib/arm-elf/3.2/../../../../arm-elf/lib/be/libm.a
LOAD /usr/lib/gcc-lib/arm-elf/3.2/../../../../arm-elf/lib/be/libstdc++.a
LOAD ../../../../lib/32b/librphttpd.a
LOAD ../../../../lib/32b/libsnmpd.a
LOAD ../../../../lib/32b/libsnmp.a
LOAD ../../../../lib/32b/libmanMib.a
LOAD ../../../../lib/32b/libldap.a
LOAD ../../../../lib/32b/libsntp.a
LOAD ../../../../lib/32b/libfilesys.a
LOAD ../../../../lib/32b/libcrypto.a
LOAD ../../../../lib/32b/libssl.a
LOAD ../../../../lib/32b/libwln.a
LOAD ../../../../lib/32b/libwpa.a
LOAD ../../../../lib/32b/libopenssl.a
END GROUP
                0x00010000                _NAAppOffsetInFlash = 0x10000
                0x00010000                _NABootloaderSizeInFlash = 0x10000
                0x00140000                _NAAppMaxSizeInFlash = 0x140000
                0x00200000                _NABspApplicationImageSize = 0x200000
                0x02010000                _NABspApplicationFlashAddress = 0x2010000
                0x000a0000                _NABspFileSystemSizeAddress = 0xa0000

.init           0x08004000       0x68
 *(.init)
 .init          0x08004000       0x68 ./objs/reset.o
                0x08004050                ABORT
                0x08004040                NA_MAIN
                0x0800404c                PREFETCH
                0x08004048                SWI
                0x08004000                __vectors
                0x08004054                RESERVED
                0x08004058                NAIRQ
                0x08004044                UNDEFINED
                0x0800405c                FIQ

.text           0x08004070   0x12e0ac
                0x08004070                btext = .
 *(.text)
 .text          0x08004070      0x464 ./objs/appconf_api.o
                0x08004364                NAGetAppSntpPrimary
                0x08004094                NAGetDefaultEthernetDuplex
                0x0800439c                NAGetAppKerberosKdc
                0x080042b0                NAGetAppPPP1PeerAddress
                0x08004430                NAGetAppBspDelay
                0x08004250                NAGetAppUseNvram
                0x080044bc                NAGetAppDisableRouterAds
                0x080041d4                NAGetAppUseKerberos
                0x080041ec                NAKrb5GetMaxPrincipals
                0x08004154                NAGetAppDialogAppName
                0x08004280                NAGetAppEnablePPP1
                0x0800418c                NAGetAppAdministratorsAccount
                0x08004268                NAGetAppNetHeapSize
                0x080044a4                NAGetAppCpp
                0x08004234                NAGetAppStdioPort
                0x08004460                NAGetAppUseStaticIP
                0x08004348                NAGetAppIpGateway
                0x0800421c                NAGetAppPost
                0x0800448c                NAGetEnableHdlc
                0x080040e8                NAGetAppRootPriority
                0x080041a4                NAGetAppFixedGatewayKey
                0x080043e4                NAGetAppKerberosRealmName
                0x080042c8                NAGetAppEnablePPP2
                0x080041bc                NAGetAppUseNetworkTimeProtocol
                0x08004138                NAGetAppDialogPort
                0x08004070                NAGetEnableAutoIp
                0x08004380                NAGetAppSntpSecondary
                0x080042f8                NAGetAppPPP2PeerAddress
                0x080043cc                NAGetAppKerberosPassword
                0x080043b4                NAGetAppKerberosUsername
                0x08004310                NAGetAppIpAddress
                0x080043fc                NAGetAppBspSerialNum
                0x08004170                NAGetAppRootPassword
                0x08004100                NAGetAppDefaultAPIPriority
                0x08004448                NAGetAppBspBaudRate
                0x08004204                NAKrb5GetMaxApRequests
                0x080042e0                NAGetAppPPP2Address
                0x080040b8                NAGetAppErrorHandler
                0x08004120                NAGetAppFileSystemSize
                0x08004298                NAGetAppPPP1Address
                0x080040d0                NAGetAppRootStackSize
                0x08004418                NAGetAppBspMacAddress
                0x0800432c                NAGetAppIpSubnetMask
 .text          0x080044d4     0x49b4 ./objs/root.o
                0x08008a14                flushBuffer
                0x080045b0                guardset
                0x08008ad0                getLineFromSerialBuffer
                0x08004624                applicationStart
                0x080044d4                root_breakpoint
                0x080086fc                serialApp
                0x08008d70                fillTimeBuffer
                0x08008640                increment_serial_index
                0x08004dac                telnetApp
                0x08008908                flushBufferToLastCR
                0x080081d4                alarmCheck
                0x08005f80                collectionApp
                0x0800869c                decrement_serial_index
                0x0800510c                snmpApp
                0x08005488                alarmApp
                0x08004514                applicationTcpDown
                0x08008e34                isValidPwd
                0x0800453c                guardget
 .text          0x08008e88      0x6d8 ./objs/MibMan.o
                0x08009544                snmpRegisterManagementVariables
 .text          0x08009560     0x6018 ./objs/EARMIBAction.o
                0x0800acb8                earCurrentSetpointValueWrite
                0x0800aafc                earOutputPowerSetpointValueRead
                0x0800ba10                earOutputPower2ALSoffSetpointRead
                0x08009b7c                earDigiSelectedFirmwareBankWrite
                0x0800a740                earGainControlSetpointRead
                0x0800dcd4                earSetRelayOutputPowerHighAlarmRead
                0x08009f58                earUpgradeDigiFirmwareWrite
                0x0800bbe0                earDeviceTypeFDRead
                0x0800db80                earSetRelayOutputPowerHighAlarmWrite
                0x0800960c                earDateOfManufactureRead
                0x0800c6e0                earAliveTrapPeriodValueRead
                0x0800a990                earOutputPowerSetpointValueWrite
                0x08009764                earControlModeWrite
                0x0800e3a8                earOutputPower2HighAlarmLevelRead
                0x0800e280                earOutputPower2OffAlarmLevelRead
                0x0800bdac                earNominalDurationRead
                0x0800b768                earOutputPowerALSoffFDSetpointRead
                0x0800d09c                earOutputPowerOffAlarmLevelRead
                0x0800f358                earHistoryTableRead
                0x0800cf80                earInput2PowerTooHighAlarmLevelRead
                0x0800d954                earSetRelayInputPowerTooHighAlarmRead
                0x0800a8fc                earMaximumGainSetpointRead
                0x0800ba98                earControlModeFDRead
                0x0800cc9c                earInputPowerOffAlarmLevelRead
                0x0800c01c                earOSCPowerSetpointValueRead
                0x0800b168                earTotalOpticalInputPowerRead
                0x0800db14                earSetRelayOutputPowerLowAlarmRead
                0x0800a868                earMinimumGainSetpointRead
                0x0800e214                earSetRelayAmbientTemperatureHighAlarmRead
                0x0800a560                earLastTrapSentRead
                0x0800a7d4                earMeasuredGainValueRead
                0x0800b878                earOutputPowerALSonSetpointRead
                0x0800b658                earOutputPowerALSonFDSetpointRead
                0x0800d9c0                earSetRelayOutputPowerLowAlarmWrite
                0x0800a040                earCleiCodeRead
                0x08009970                earDigiFirmwareRevisionRead
                0x0800c0b0                earOutputPower2SetpointValueWrite
                0x0800a4c4                earVendorProductNameAndSerialNumberRead
                0x0800ac24                earMaximumPowerSetpointRead
                0x0800d484                earSetRelayInputPowerLowAlarmWrite
                0x0800bd18                earALSoffDurationRead
                0x0800bee4                earOSCPowerSetpointValueWrite
                0x080098d4                earControlModeRead
                0x0800d234                earStatusValueRead
                0x0800c44c                earGainControlSetpoint2Read
                0x0800c4e0                earOSCOpticalPowerRead
                0x0800a0dc                earTelnetTimeoutWrite
                0x0800d794                earSetRelayInputPowerHighAlarmRead
                0x0800dd40                earSetRelayOutputPowerTooHighAlarmWrite
                0x08009c9c                earDigiSelectedFirmwareBankRead
                0x0800b5c4                earPowerSafetyModeRead
                0x0800ceec                earInputPowerTooHighAlarmLevelRead
                0x0800a430                earGatewayRead
                0x0800c310                earGainControlSetpoint2Write
                0x0800c974                earInput2PowerLowAlarmLevelWrite
                0x08009e90                earDigiFirmwareConfirmRead
                0x0800d3f0                earAlarmStatusRead
                0x0800bb3c                earDeviceTypeRead
                0x0800df00                earSetRelayFanFailureAlarmWrite
                0x08009fa8                earUpgradeDigiFirmwareRead
                0x0800de94                earSetRelayOutputPowerTooHighAlarmRead
                0x0800be40                earDataModeRead
                0x0800ce58                earInput2PowerHighAlarmLevelRead
                0x0800ae50                earCurrentSetpointValueRead
                0x0800b00c                earPumpLaserCurrent2Read
                0x08009ac4                earDigiBank2FirmwareRevisionRead
                0x0800e314                earOutputPower2LowAlarmLevelRead
                0x0800d2c8                earRelayAlarmStatusRead
                0x08009a0c                earDigiBank1FirmwareRevisionRead
                0x0800ab90                earTotalOpticalOutputPowerRead
                0x0800e054                earSetRelayFanFailureAlarmRead
                0x0800d35c                earRelayStatusRead
                0x0800cdc4                earInputPowerHighAlarmLevelRead
                0x0800c574                earAliveTrapPeriodValueWrite
                0x080096b8                earFirmwareRevisionRead
                0x0800b7f0                earOutputPower2ALSoffFDSetpointRead
                0x0800c27c                earTotalOpticalOutputPower2Read
                0x0800bc84                earALSonDurationRead
                0x0800e9f4                earAlarmTableRead
                0x0800aee4                earMaximumCurrentSetpointRead
                0x0800ee34                earHistoryTableWrite
                0x0800c774                earTotalOpticalInput2PowerRead
                0x0800d014                earOutputPowerLowAlarmLevelRead
                0x0800cc08                earFactoryDefaultInputPowerLowAlarmLevelRead
                0x0800cb74                earInput2PowerLowAlarmLevelRead
                0x0800d800                earSetRelayInputPowerTooHighAlarmWrite
                0x0800e43c                earOutputPower2TooHighAlarmLevelRead
                0x0800d1ac                earOutputPowerTooHighAlarmLevelRead
                0x0800b988                earOutputPowerALSoffSetpointRead
                0x0800cd30                earInput2PowerOffAlarmLevelRead
                0x0800a604                earGainControlSetpointWrite
                0x0800c808                earInputPowerLowAlarmLevelWrite
                0x08009d64                earDigiFirmwareConfirmWrite
                0x0800b900                earOutputPower2ALSonSetpointRead
                0x0800a39c                earSubnetMaskRead
                0x0800a308                earIpAddressRead
                0x0800a240                earTelnetTimeoutRead
                0x0800b6e0                earOutputPower2ALSonFDSetpointRead
                0x0800d5d8                earSetRelayInputPowerLowAlarmRead
                0x0800d124                earOutputPowerHighAlarmLevelRead
                0x0800b0a0                earAmbientTemperatureRead
                0x0800c1e8                earOutputPower2SetpointValueRead
                0x0800e4d0                earAlarmTableWrite
                0x0800e0c0                earSetRelayAmbientTemperatureHighAlarmWrite
                0x0800af78                earPumpLaserCurrentRead
                0x0800b1fc                earPowerSafetyModeWrite
                0x0800ec14                earEventTableRead
                0x0800d644                earSetRelayInputPowerHighAlarmWrite
                0x08009560                earSerialNumberRead
                0x0800cae0                earInputPowerLowAlarmLevelRead
 .text          0x0800f578     0x4bb4 ./objs/ipgFlash.o
                0x08011bd0                FS_DeleteFile
                0x08012914                FS_nListDir
                0x08013af4                ProgramAppToFlash
                0x08012950                FS_MakeDir
                0x080138d0                ProgramBootLoader
                0x08012220                FS_Pwd
                0x080128d8                FS_ListDir
                0x08013198                FSInstallFileSystem
                0x080134a4                ftp_server_app_init
                0x08012314                FS_RootDirectory
                0x080120a4                FS_RenameTo
                0x08012ed0                FS_RemoveDir
                0x0801024c                get_group_id
                0x080123d8                FS_ChangeDirectory
                0x080113e4                FS_StoreFile
                0x080135f8                WriteBootLoader
                0x08011d5c                FS_RenameFrom
                0x080130c0                FS_SessionClosed
                0x0800f69c                CleanUpFileName
                0x08013130                FS_DataSessionClosed
                0x080117fc                FS_RetrieveFile
 .text          0x0801412c      0x6c4 ./objs/telnet.o
                0x0801412c                telnetInit
                0x080144b4                ts_login_session
                0x0801449c                telnetApp2
                0x08014718                ts_setup_port
                0x0801427c                ts_connect_session
                0x0801459c                ts_disconnect_session
                0x0801423c                telnetTimeout
                0x08014618                ts_receive_data
 .text          0x080147f0     0x55f4 ./objs/menu.o
                0x080173f8                stack_check
                0x0801645c                handle_snmp_edit_menu
                0x0801807c                get_ip_parameters
                0x08019320                handle_firmware_upgrade_menu
                0x08018dc4                handle_snmp_send_trap_timeout_menu
                0x08019d9c                getAccessLevel
                0x08014a14                handle_main_menu
                0x080160fc                handle_mac_address_menu
                0x08015594                handle_public_community_password_menu
                0x08018440                get_snmp_ip_parameters
                0x080190a4                handle_chassis_reboot_menu
                0x080158c4                handle_rtc_parameters_menu
                0x08018ef8                handle_snmp_send_alive_trap_period_menu
                0x080176dc                semaphore_check_2
                0x0801899c                handle_snmp_ip_addr_menu
                0x0801664c                handle_alarm_menu
                0x08015234                handle_private_community_password_menu
                0x08016004                handle_serial_number_menu
                0x080147f0                telnet_send_menu
                0x08017978                handle_rtc_menu
                0x08018628                handle_ip_addr_menu
                0x08014d14                handle_user_password_menu
                0x08018c7c                handle_gateway_addr_menu
                0x08018b34                handle_subnet_mask_menu
                0x08019b2c                handle_timeout_menu
                0x08018770                handle_snmp_station_edit_menu
                0x0801653c                handle_snmp_community_menu
                0x080162f0                handle_ip_parameters_menu
 .text          0x08019de4     0x1f00 ./objs/ipgsnmp.o
                0x08019ef0                PopulateAlarmTableRow
                0x0801b1dc                setTheTrapVariables
                0x0801b7bc                sendTheTrap
                0x0801b184                convertMIBHistoryTypeToMIBClearType
                0x0801b0dc                convertMIBAlarmTypeToMIBHistoryType
                0x0801b104                convertMIBClearTypeToMIBHistoryType
                0x08019ea8                SnmpMngrTableIndexFn
                0x0801a614                populateHistoryTableRow
                0x0801b0ac                convertMIBClearTypeToAtmelAlarm
                0x08019fa8                RemoveAlarmTableRow
                0x0801a36c                UpdateNvramFromSnmp
                0x0801a15c                GetFreeAlarmIndex
                0x0801b1b0                convertMIBHistoryTypeToMIBEventType
                0x0801a588                RemoveSnmpMngrEntry
                0x0801b07c                convertMIBAlarmTypeToAtmelAlarm
                0x0801ae80                convertMIBHistoryTypeToAtmelAlarm
                0x0801a44c                AddSnmpMngrEntry
                0x08019e60                AlarmTableIndexFn
                0x0801aa90                convertAtmelAlarmToMIBAlarmType
                0x0801a740                RemoveHistoryTableRow
                0x0801ac88                convertAtmelAlarmToMIBClearType
                0x0801b130                convertMIBEventTypeToMIBHistoryType
                0x0801a81c                HistoryTableIndexFn
                0x0801b15c                convertMIBHistoryTypeToMIBAlarmType
                0x0801a864                convertAtmelAlarmToMIBHistoryType
                0x0801a1e4                SyncSnmpFromNvram
 .text          0x0801bce4      0x168 ./objs/earTemperatureAlarmThreshold.o
                0x0801bce4                earTemperatureAlarmThresholdWrite
                0x0801bdb8                earTemperatureAlarmThresholdRead
 .text          0x0801be4c      0xc74 ./objs/earSnmpMngrTable.o
                0x0801c86c                earSnmpMngrTableRead
                0x0801be4c                earSnmpMngrTableWrite
 .text          0x0801cac0      0x254 ./objs/earTrapPort.o
                0x0801cc2c                earTrapPortRead
                0x0801cac0                earTrapPortWrite
 .text          0x0801cd14      0x154 ./objs/earPumpsOff.o
                0x0801cdd4                earPumpsOffRead
                0x0801cd14                earPumpsOffWrite
 .text          0x0801ce68      0x2c0 ./objs/earChassisReboot.o
                0x0801ce68                earChassisRebootWrite
                0x0801d09c                earChassisRebootRead
 .text          0x0801d128       0xa0 ./objs/earModelNumberRead.o
                0x0801d128                earModelNumberRead
 .text          0x0801d1c8      0x34c ./objs/earRtcTime.o
                0x0801d1c8                earRtcTimeWrite
                0x0801d400                earRtcTimeRead
 .text          0x0801d514      0x194 ./objs/find_highwater.o
                0x0801d514                find_highwater
 .text          0x0801d6a8      0xe28 ./objs/readFrom2U2.o
                0x0801db74                getUnsignedAnswerFromAtmel
                0x0801de80                getStringAnswerFromAtmel
                0x0801d8bc                readLineFrom2U
                0x0801d894                readFrom2U2
                0x0801da74                adjustLineFrom2U
                0x0801e218                getIPAddressAnswerFromAtmel
                0x0801d90c                validateLineFrom2U
 .text          0x0801e4d0      0x2a8 ./objs/semaphores.o
                0x0801e710                semaphore_put_2
                0x0801e520                semaphore_get
                0x0801e5d0                semaphore_put
                0x0801e4d0                semaphore_init_2
                0x0801e634                semaphore_get_2
 .text          0x0801e778      0x774 ./objs/Snmp_api.o
                0x0801e8c0                SNMPGetSysObjectID
                0x0801ed38                NAcheckCommunity
                0x0801ea70                SNMPGetSysName
                0x0801e9ac                SNMPSetSysContact
                0x0801eed4                NAgetEnableSnmp
                0x0801eafc                SNMPSetSysName
                0x0801ed20                SNMPGetSysServices
                0x0801e778                snmpd_load
                0x0801ec50                SNMPSetSysLocation
                0x0801ebc0                SNMPGetSysLocation
                0x0801e920                SNMPGetSysContact
                0x0801e904                SNMPGetSysDescr
 .text          0x0801eeec      0x220 ./objs/configNotification.o
                0x0801ef28                configChangeNotification
                0x0801eff4                configNotification
                0x0801eeec                configErrorNotification
 .text          0x0801f10c      0x288 ./objs/atmel.o
                0x0801f1e4                askAtmelForStringValue
                0x0801f10c                askAtmelForUnsignedValue
                0x0801f2c4                askAtmelForIPAddressValue
 .text          0x0801f394      0x850 ./objs/EDFAWelcomePage_v.o
                0x0801f9fc                getIPManager4
                0x0801f394                getEARRtcTime_temp
                0x0801f498                postProcessTheForm
                0x0801f78c                SetOutputPowerSetpointValue
                0x0801f814                getIPManager1
                0x0801f8b8                getIPManager2
                0x0801f7d0                SetOutputPower2SetpointValue
                0x0801f42c                getearDigiTelnetTimeout_temp
                0x0801fb44                getIPManager6
                0x0801faa0                getIPManager5
                0x0801f958                getIPManager3
 .text          0x0801fbe4       0x48 ./objs/security.o
                0x0801fbe4                RpHSInitSecurityTable
 .text          0x0801fc2c       0x54 ./objs/cgi.o
                0x0801fc2c                RpUserExitInit
                0x0801fc64                RpExternalCgi
                0x0801fc4c                RpUserExitDeInit
 .text          0x0801fc80      0x20c ./objs/file.o
                0x0801fd34                RpHSCloseFileStatus
                0x0801fcb8                RpHSCreateFile
                0x0801fd10                RpHSCloseFile
                0x0801fdf0                RpHSOpenFileStatus
                0x0801fe24                RpHSReadFile
                0x0801fe4c                RpHSReadFileStatus
                0x0801fca0                RpHSCloseFileSystem
                0x0801fdcc                RpHSOpenFile
                0x0801fce0                RpHSCreateFileStatus
                0x0801fc80                RpHSOpenFileSystem
                0x0801fd8c                RpHSWriteFileStatus
                0x0801fd64                RpHSWriteFile
 .text          0x0801fe8c      0x988 ./objs/naftpapp.o
                0x080206f8                ftp_init_flash_download
 .text          0x08020814       0xb0 ../../../../lib/32b/gnu/crt0.o
                0x08020814                _mainCRTStartup
                0x08020814                _start
                0x08020814                start
 .text          0x080208c4       0x98 /usr/lib/gcc-lib/arm-elf/3.2/be/libgcc.a(_udivsi3.o)
                0x080208c4                __udivsi3
 .text          0x0802095c       0xc0 /usr/lib/gcc-lib/arm-elf/3.2/be/libgcc.a(_umodsi3.o)
                0x0802095c                __umodsi3
 .text          0x08020a1c        0x4 /usr/lib/gcc-lib/arm-elf/3.2/be/libgcc.a(_dvmd_tls.o)
                0x08020a1c                __div0
 .text          0x08020a20      0x300 /usr/lib/gcc-lib/arm-elf/3.2/be/libgcc.a(_addsub_sf.o)
                0x08020c74                __subsf3
                0x08020c1c                __addsf3
 .text          0x08020d20      0x1d4 /usr/lib/gcc-lib/arm-elf/3.2/be/libgcc.a(_div_sf.o)
                0x08020d20                __divsf3
 .text          0x08020ef4       0x90 /usr/lib/gcc-lib/arm-elf/3.2/be/libgcc.a(_si_to_sf.o)
                0x08020ef4                __floatsisf
 .text          0x08020f84       0x54 /usr/lib/gcc-lib/arm-elf/3.2/be/libgcc.a(_sf_to_df.o)
                0x08020f84                __extendsfdf2
 .text          0x08020fd8      0x310 /usr/lib/gcc-lib/arm-elf/3.2/be/libgcc.a(_div_df.o)
                0x08020fd8                __divdf3
 .text          0x080212e8       0x40 /usr/lib/gcc-lib/arm-elf/3.2/be/libgcc.a(_make_df.o)
                0x080212e8                __make_dp
 .text          0x08021328       0x6c /usr/lib/gcc-lib/arm-elf/3.2/be/libgcc.a(_df_to_sf.o)
                0x08021328                __truncdfsf2
 .text          0x08021394      0x168 /usr/lib/gcc-lib/arm-elf/3.2/be/libgcc.a(_pack_sf.o)
                0x08021394                __pack_f
 .text          0x080214fc       0xa8 /usr/lib/gcc-lib/arm-elf/3.2/be/libgcc.a(_unpack_sf.o)
                0x080214fc                __unpack_f
 .text          0x080215a4       0x30 /usr/lib/gcc-lib/arm-elf/3.2/be/libgcc.a(_make_sf.o)
                0x080215a4                __make_fp
 .text          0x080215d4      0x294 /usr/lib/gcc-lib/arm-elf/3.2/be/libgcc.a(_pack_df.o)
                0x080215d4                __pack_d
 .text          0x08021868      0x140 /usr/lib/gcc-lib/arm-elf/3.2/be/libgcc.a(_unpack_df.o)
                0x08021868                __unpack_d
 .text          0x080219a8       0x50 /usr/lib/gcc-lib/arm-elf/3.2/be/libgcc.a(_lshrdi3.o)
                0x080219a8                __lshrdi3
 .text          0x080219f8       0x50 /usr/lib/gcc-lib/arm-elf/3.2/be/libgcc.a(_ashldi3.o)
                0x080219f8                __ashldi3
 .text          0x08021a48       0x10 ../../../../lib/32b/gnu/libc.a(atof.o)
                0x08021a48                atof
 .text          0x08021a58       0x14 ../../../../lib/32b/gnu/libc.a(atoi.o)
                0x08021a58                atoi
 .text          0x08021a6c       0x28 ../../../../lib/32b/gnu/libc.a(calloc.o)
                0x08021a6c                calloc
 .text          0x08021a94       0x90 ../../../../lib/32b/gnu/libc.a(callocr.o)
                0x08021a94                _calloc_r
 .text          0x08021b24       0xac ../../../../lib/32b/gnu/libc.a(exit.o)
                0x08021b24                exit
 .text          0x08021bd0       0xe0 ../../../../lib/32b/gnu/libc.a(fflush.o)
                0x08021bd0                fflush
 .text          0x08021cb0      0x234 ../../../../lib/32b/gnu/libc.a(findfp.o)
                0x08021e68                __sinit
                0x08021d10                __sfmoreglue
                0x08021e50                _cleanup
                0x08021e3c                _cleanup_r
                0x08021d74                __sfp
 .text          0x08021ee4       0x6c ../../../../lib/32b/gnu/libc.a(fwalk.o)
                0x08021ee4                _fwalk
 .text          0x08021f50       0x14 ../../../../lib/32b/gnu/libc.a(isdigit.o)
                0x08021f50                isdigit
 .text          0x08021f64       0x14 ../../../../lib/32b/gnu/libc.a(isspace.o)
                0x08021f64                isspace
 .text          0x08021f78       0x1c ../../../../lib/32b/gnu/libc.a(lcltime.o)
                0x08021f78                localtime
 .text          0x08021f94       0x10 ../../../../lib/32b/gnu/libc.a(lcltime_r.o)
                0x08021f94                localtime_r
 .text          0x08021fa4       0x40 ../../../../lib/32b/gnu/libc.a(malloc.o)
                0x08021fa4                malloc
                0x08021fc4                free
 .text          0x08021fe4      0x66c ../../../../lib/32b/gnu/libc.a(mallocr.o)
                0x080221bc                _malloc_r
 .text          0x08022650       0x78 ../../../../lib/32b/gnu/libc.a(memcmp.o)
                0x08022650                memcmp
 .text          0x080226c8       0xa4 ../../../../lib/32b/gnu/libc.a(memcpy.o)
                0x080226c8                memcpy
 .text          0x0802276c       0x7c ../../../../lib/32b/gnu/libc.a(memset.o)
                0x0802276c                memset
 .text          0x080227e8     0x1090 ../../../../lib/32b/gnu/libc.a(mktm_r.o)
                0x080232b8                __tzcalc_limits
                0x080227e8                _mktm_r
 .text          0x08023878       0x38 ../../../../lib/32b/gnu/libc.a(mlock.o)
                0x08023894                __malloc_unlock
                0x08023878                __malloc_lock
 .text          0x080238b0       0x58 ../../../../lib/32b/gnu/libc.a(printf.o)
                0x080238d4                printf
                0x080238b0                _printf_r
 .text          0x08023908       0x3c ../../../../lib/32b/gnu/libc.a(rget.o)
                0x08023908                __srget
 .text          0x08023944       0x40 ../../../../lib/32b/gnu/libc.a(sbrkr.o)
                0x08023944                _sbrk_r
 .text          0x08023984       0xd8 ../../../../lib/32b/gnu/libc.a(snprintf.o)
                0x080239ec                snprintf
                0x08023984                _snprintf_r
 .text          0x08023a5c       0xc0 ../../../../lib/32b/gnu/libc.a(sprintf.o)
                0x08023a5c                _sprintf_r
                0x08023ab8                sprintf
 .text          0x08023b1c       0xf8 ../../../../lib/32b/gnu/libc.a(sscanf.o)
                0x08023b24                sscanf
                0x08023b98                _sscanf_r
 .text          0x08023c14      0x10c ../../../../lib/32b/gnu/libc.a(stdio.o)
                0x08023cc0                __sseek
                0x08023c14                __sread
                0x08023d0c                __sclose
                0x08023c60                __swrite
 .text          0x08023d20       0x7c ../../../../lib/32b/gnu/libc.a(strcat.o)
                0x08023d20                strcat
 .text          0x08023d9c       0xd0 ../../../../lib/32b/gnu/libc.a(strchr.o)
                0x08023d9c                strchr
 .text          0x08023e6c       0xc0 ../../../../lib/32b/gnu/libc.a(strcmp.o)
                0x08023e6c                strcmp
 .text          0x08023f2c       0x84 ../../../../lib/32b/gnu/libc.a(strcpy.o)
                0x08023f2c                strcpy
 .text          0x08023fb0       0x70 ../../../../lib/32b/gnu/libc.a(strlen.o)
                0x08023fb0                strlen
 .text          0x08024020      0x110 ../../../../lib/32b/gnu/libc.a(strncmp.o)
                0x08024020                strncmp
 .text          0x08024130       0xf4 ../../../../lib/32b/gnu/libc.a(strncpy.o)
                0x08024130                strncpy
 .text          0x08024224       0x54 ../../../../lib/32b/gnu/libc.a(strstr.o)
                0x08024224                strstr
 .text          0x08024278      0xfe0 ../../../../lib/32b/gnu/libc.a(strtod.o)
                0x08024278                _strtod_r
                0x080251fc                strtod
                0x08025224                strtof
 .text          0x08025258       0x20 ../../../../lib/32b/gnu/libc.a(strtok.o)
                0x08025258                strtok
 .text          0x08025278       0xe0 ../../../../lib/32b/gnu/libc.a(strtok_r.o)
                0x08025348                strtok_r
                0x08025278                __strtok_r
 .text          0x08025358      0x1d4 ../../../../lib/32b/gnu/libc.a(strtol.o)
                0x080254fc                strtol
                0x08025358                _strtol_r
 .text          0x0802552c       0x28 ../../../../lib/32b/gnu/libc.a(tzlock.o)
                0x08025540                __tz_unlock
                0x0802552c                __tz_lock
 .text          0x08025554      0x7e8 ../../../../lib/32b/gnu/libc.a(tzset_r.o)
                0x08025554                _tzset_r
 .text          0x08025d3c     0x1b0c ../../../../lib/32b/gnu/libc.a(vfprintf.o)
                0x08025e94                _vfprintf_r
                0x08025e2c                vfprintf
 .text          0x08027848     0x1184 ../../../../lib/32b/gnu/libc.a(vfscanf.o)
                0x080278b0                __svfscanf
                0x080278e0                _vfscanf_r
                0x08027848                vfscanf
                0x0802890c                __sccl
                0x080278ec                __svfscanf_r
 .text          0x080289cc       0x4c ../../../../lib/32b/gnu/libc.a(writer.o)
                0x080289cc                _write_r
 .text          0x08028a18      0x104 ../../../../lib/32b/gnu/libc.a(wsetup.o)
                0x08028a18                __swsetup
 .text          0x08028b1c     0x1a58 ../../../../lib/32b/gnu/libc.a(syscalls.o)
                0x0802a0dc                naTimeZoneInstall
                0x08029d80                _getpid
                0x0802a3ec                ioctl
                0x08028d80                initialise_monitor_handles
                0x0802a544                creat
                0x08029e48                _fstat
                0x080298fc                _open
                0x08029da0                _sbrk
                0x08029f58                _raise
                0x0802a2e4                _times
                0x08029e94                _stat
                0x0802a098                naTimeFunctionInstall
                0x080293a0                _lseek
                0x08029f18                _link
                0x0802947c                _swiwrite
                0x0802a3bc                _rename
                0x08029238                _swilseek
                0x08029b04                _swiclose
                0x08029784                _swiopen
                0x08029f30                _unlink
                0x080294ec                _write
                0x08029d5c                _kill
                0x0802a22c                _gettimeofday
                0x08028fac                _read
                0x08029d28                _exit
                0x0802a514                mkdir
                0x0802a370                _system
                0x08028f3c                _swiread
                0x08029b8c                _close
 .text          0x0802a574       0x40 ../../../../lib/32b/gnu/libc.a(closer.o)
                0x0802a574                _close_r
 .text          0x0802a5b4     0x1650 ../../../../lib/32b/gnu/libc.a(dtoa.o)
                0x0802a7cc                _dtoa_r
 .text          0x0802bc04       0x10 ../../../../lib/32b/gnu/libc.a(errno.o)
                0x0802bc04                __errno
 .text          0x0802bc14       0xcc ../../../../lib/32b/gnu/libc.a(fread.o)
                0x0802bc14                fread
 .text          0x0802bce0      0x374 ../../../../lib/32b/gnu/libc.a(freer.o)
                0x0802bce0                _free_r
                0x0802bf40                _malloc_trim_r
 .text          0x0802c054      0x39c ../../../../lib/32b/gnu/libc.a(fvwrite.o)
                0x0802c054                __sfvwrite
 .text          0x0802c3f0      0x114 ../../../../lib/32b/gnu/libc.a(getenv_r.o)
                0x0802c3f0                _findenv_r
                0x0802c4e8                _getenv_r
 .text          0x0802c504       0xd8 ../../../../lib/32b/gnu/libc.a(locale.o)
                0x0802c504                _setlocale_r
                0x0802c580                __locale_charset
                0x0802c590                _localeconv_r
                0x0802c59c                setlocale
                0x0802c5c4                localeconv
 .text          0x0802c5dc       0x4c ../../../../lib/32b/gnu/libc.a(lseekr.o)
                0x0802c5dc                _lseek_r
 .text          0x0802c628      0x140 ../../../../lib/32b/gnu/libc.a(makebuf.o)
                0x0802c628                __smakebuf
 .text          0x0802c768       0x5c ../../../../lib/32b/gnu/libc.a(mbtowc_r.o)
                0x0802c768                _mbtowc_r
 .text          0x0802c7c4       0xd4 ../../../../lib/32b/gnu/libc.a(memchr.o)
                0x0802c7c4                memchr
 .text          0x0802c898       0xec ../../../../lib/32b/gnu/libc.a(memmove.o)
                0x0802c898                memmove
 .text          0x0802c984      0xc48 ../../../../lib/32b/gnu/libc.a(mprec.o)
                0x0802d564                _mprec_log10
                0x0802cbe8                _hi0bits
                0x0802c984                _Balloc
                0x0802d3c8                _d2b
                0x0802cd14                _multiply
                0x0802d4e8                _ratio
                0x0802cb10                _s2b
                0x0802ccec                _i2b
                0x0802cc44                _lo0bits
                0x0802d108                __mcmp
                0x0802cf2c                _pow5mult
                0x0802d29c                _ulp
                0x0802d310                _b2d
                0x0802ca40                _multadd
                0x0802d15c                __mdiff
                0x0802d018                _lshift
                0x0802ca18                _Bfree
 .text          0x0802d5cc       0x4c ../../../../lib/32b/gnu/libc.a(readr.o)
                0x0802d5cc                _read_r
 .text          0x0802d618      0x4c8 ../../../../lib/32b/gnu/libc.a(reallocr.o)
                0x0802d618                _realloc_r
 .text          0x0802dae0      0x19c ../../../../lib/32b/gnu/libc.a(reent.o)
                0x0802dae0                cleanup_glue
                0x0802db18                _reclaim_reent
                0x0802dc04                _wrapup_reent
 .text          0x0802dc7c      0x18c ../../../../lib/32b/gnu/libc.a(refill.o)
                0x0802dc9c                __srefill
 .text          0x0802de08       0x2c ../../../../lib/32b/gnu/libc.a(s_isinf.o)
                0x0802de08                isinf
 .text          0x0802de34       0x20 ../../../../lib/32b/gnu/libc.a(s_isnan.o)
                0x0802de34                isnan
 .text          0x0802de54       0x50 ../../../../lib/32b/gnu/libc.a(setenv.o)
                0x0802de84                unsetenv
                0x0802de54                setenv
 .text          0x0802dea4      0x4b4 ../../../../lib/32b/gnu/libc.a(setenv_r.o)
                0x0802e2bc                _unsetenv_r
                0x0802dea4                _setenv_r
 .text          0x0802e358      0x1cc ../../../../lib/32b/gnu/libc.a(strtoul.o)
                0x0802e4f4                strtoul
                0x0802e358                _strtoul_r
 .text          0x0802e524       0x1c ../../../../lib/32b/gnu/libc.a(sysopen.o)
                0x0802e524                open
 .text          0x0802e540       0x18 ../../../../lib/32b/gnu/libc.a(tzset.o)
                0x0802e540                tzset
 .text          0x0802e558      0x238 ../../../../lib/32b/gnu/libc.a(ungetc.o)
                0x0802e618                ungetc
                0x0802e558                __submore
 .text          0x0802e790       0x18 ../../../../lib/32b/gnu/libc.a(bcopy.o)
                0x0802e790                bcopy
 .text          0x0802e7a8        0x8 ../../../../lib/32b/gnu/libc.a(envlock.o)
                0x0802e7ac                __env_unlock
                0x0802e7a8                __env_lock
 .text          0x0802e7b0       0x48 ../../../../lib/32b/gnu/libc.a(fstatr.o)
                0x0802e7b0                _fstat_r
 .text          0x0802e7f8      0x64c /usr/lib/gcc-lib/arm-elf/3.2/be/libgcc.a(_udivdi3.o)
                0x0802e7f8                __udivdi3
 .text          0x0802ee44      0x654 /usr/lib/gcc-lib/arm-elf/3.2/be/libgcc.a(_umoddi3.o)
                0x0802ee44                __umoddi3
 .text          0x0802f498      0x478 /usr/lib/gcc-lib/arm-elf/3.2/be/libgcc.a(_addsub_df.o)
                0x0802f7fc                __adddf3
                0x0802f85c                __subdf3
 .text          0x0802f910      0x474 /usr/lib/gcc-lib/arm-elf/3.2/be/libgcc.a(_mul_df.o)
                0x0802f910                __muldf3
 .text          0x0802fd84       0x9c /usr/lib/gcc-lib/arm-elf/3.2/be/libgcc.a(_eq_df.o)
                0x0802fd84                __eqdf2
 .text          0x0802fe20       0x9c /usr/lib/gcc-lib/arm-elf/3.2/be/libgcc.a(_ne_df.o)
                0x0802fe20                __nedf2
 .text          0x0802febc       0x9c /usr/lib/gcc-lib/arm-elf/3.2/be/libgcc.a(_gt_df.o)
                0x0802febc                __gtdf2
 .text          0x0802ff58       0x9c /usr/lib/gcc-lib/arm-elf/3.2/be/libgcc.a(_ge_df.o)
                0x0802ff58                __gedf2
 .text          0x0802fff4       0x9c /usr/lib/gcc-lib/arm-elf/3.2/be/libgcc.a(_lt_df.o)
                0x0802fff4                __ltdf2
 .text          0x08030090       0x9c /usr/lib/gcc-lib/arm-elf/3.2/be/libgcc.a(_le_df.o)
                0x08030090                __ledf2
 .text          0x0803012c       0xc4 /usr/lib/gcc-lib/arm-elf/3.2/be/libgcc.a(_si_to_df.o)
                0x0803012c                __floatsidf
 .text          0x080301f0       0xf4 /usr/lib/gcc-lib/arm-elf/3.2/be/libgcc.a(_df_to_si.o)
                0x080301f0                __fixdfsi
 .text          0x080302e4       0x5c /usr/lib/gcc-lib/arm-elf/3.2/be/libgcc.a(_negate_df.o)
                0x080302e4                __negdf2
 .text          0x08030340      0x1b0 /usr/lib/gcc-lib/arm-elf/3.2/be/libgcc.a(_fpcmp_parts_df.o)
                0x08030340                __fpcmp_parts_d
 .text          0x080304f0      0x104 ../../../../lib/32b/libbsp.a(bsp_api.o)
                0x080305a0                NABspGetEepromInfo
                0x08030574                NATranslatePriorityLevel
                0x080304f0                NABspFileSystemStartOffset
                0x08030520                NABspSerialPortType
 .text          0x080305f4      0x24c ../../../../lib/32b/libbsp.a(nainet.o)
                0x08030740                NAInet_toa
                0x080305f4                NAInet_addr
                0x080307f0                NAIpAddress
 .text          0x08030840      0x1cc ../../../../lib/32b/libbsp.a(main.o)
                0x0803096c                main
 .text          0x08030a0c      0x1b4 ../../../../lib/32b/libbsp.a(errhndlr.o)
                0x08030b1c                customizeExceptionHandler
                0x08030a24                netosFatalError
                0x08030a8c                customizeErrorHandler
                0x08030a0c                netosBreakpoint
 .text          0x08030bc0      0x1f0 ../../../../lib/32b/libbsp.a(narmbrd.o)
                0x08030bd8                NABoardInit
                0x08030bc0                netosStartClocks
 .text          0x08030db0      0x4f4 ../../../../lib/32b/libbsp.a(narmled.o)
                0x080311f4                NALedGreenOff
                0x080311dc                NALedGreenOn
                0x080311ac                NALedRedOn
                0x080311c4                NALedRedOff
                0x08030f38                NALedOff
                0x0803112c                NALedDoubleBlink
                0x0803120c                NALedBlinkRed
                0x080310c0                NALedBlink
                0x08030db0                NALedOn
                0x08031258                NALedBlinkGreen
 .text          0x080312a4      0x1dc ../../../../lib/32b/libbsp.a(devices.o)
                0x080312a4                DDIFirstLevelInitialize
                0x08031394                DDISecondLevelInitialize
 .text          0x08031480      0x330 ../../../../lib/32b/libbsp.a(flashnvrm.o)
                0x08031728                NANVBackupRead
                0x08031698                NANVBackupWrite
                0x08031480                NANVInit
                0x08031608                NANVmemset
                0x080314f0                NANVWrite
                0x08031580                NANVRead
 .text          0x080317b0      0xa7c ../../../../lib/32b/libbsp.a(sysAccess.o)
                0x08031dc0                NAgetSysAccess
                0x080321fc                NARegisterTraceFailure
                0x08031f2c                NACheckAuthentication
                0x08031e60                NAChangePassword
                0x08031a94                NAsetSysAccess
 .text          0x0803222c      0x8ac ../../../../lib/32b/libbsp.a(lpbkdev.o)
                0x0803222c                loopback_enter
                0x0803224c                loopback_init
                0x0803226c                loopback_open
                0x080325b8                loopback_write
                0x080327c8                loopback_ioctl
                0x080323f8                loopback_read
                0x08032350                loopback_close
 .text          0x08032ad8      0x47c ../../../../lib/32b/libbsp.a(nuldev.o)
                0x08032d84                nul_read
                0x08032f2c                nul_ioctl
                0x08032af8                nul_init
                0x08032b18                nul_open
                0x08032e4c                nul_write
                0x08032ad8                nul_enter
                0x08032c40                nul_close
 .text          0x08032f54      0x8ac ../../../../lib/32b/libbsp.a(nacache.o)
                0x08033078                NACacheEnable
                0x08033678                NACacheSetDefaults
                0x08032f54                naIceDebugger
                0x08032f90                NACacheIdentify
                0x08032f78                naSwDebugger
                0x08033650                NACacheRestore
                0x080333e0                NACacheDisable
 .text          0x08033800      0x370 ../../../../lib/32b/libbsp.a(INIT.o)
                0x08033800                Undefined_Handler
                0x08033a74                NARamSetupAbortHandler
                0x0803380c                SWI_Handler
                0x0803382c                Abort_Handler
                0x08033a20                nccBurstTest
                0x08033864                Reset_Handler
                0x0803383c                Address_Error_Handler
                0x08033818                Prefetch_Handler
                0x08033864                Reset_Handler_ROM
                0x08033848                FIQ_Handler
                0x08033a80                NAFastMemoryTest
 .text          0x08033b70      0x170 ../../../../lib/32b/libbsp.a(IRQHAND.o)
                0x08033b70                IRQ_Handler
 .text          0x08033ce0     0x1124 ../../../../lib/32b/libbsp.a(NCC_INIT.o)
                0x08034184                nccDetermineRamType
                0x08033df8                nccDetermineRamSize
                0x08033d0c                nccChipType
                0x08033ce0                are_we_in_debugger
                0x08034c08                ncc_init
                0x08033fdc                nccCopyCSSetup
 .text          0x08034e04     0x6600 ../../../../lib/32b/libbsp.a(NCC_POST.o)
                0x0803ac80                cache_memory_test
                0x0803b0c4                ncc_post
 .text          0x0803b404      0x54c ../../../../lib/32b/libbsp.a(IRQREG.o)
                0x0803b404                init_irq_tables
                0x0803b574                register_irq_handler
 .text          0x0803b950      0x228 ../../../../lib/32b/libbsp.a(gpio.o)
                0x0803bb48                customizeRestart
                0x0803ba38                customizeSetupPortH
                0x0803bb14                customizeSetupLedTable
                0x0803b950                customizeSetupPortA
                0x0803bb64                customizeReset
                0x0803ba1c                customizeSetupPortG
                0x0803ba54                customizeReadPowerOnButtons
                0x0803b984                customizeSetupPortB
                0x0803b9e4                customizeSetupPortD
                0x0803b9a0                customizeSetupPortC
                0x0803ba00                customizeSetupPortF
 .text          0x0803bb78      0x738 ../../../../lib/32b/libbsp.a(cs.o)
                0x0803c25c                customizeSetupCS4
                0x0803bbec                customizeGetCSSize
                0x0803c208                customizeSetupCS3
                0x0803bb78                customizeGetScr
                0x0803bcc0                customizeSetupMMCR
                0x0803c09c                customizeSetupCS1
                0x0803bbc4                customizeCreateMask
                0x0803c150                customizeSetupCS2
                0x0803bddc                customizeSetupCS0
                0x0803bc64                customizeGetRamSize
 .text          0x0803c2b0      0xb14 ../../../../lib/32b/libbsp.a(boardParams.o)
                0x0803cb6c                customizeReadDevBoardParams
                0x0803c4cc                NAConvertMacAddressString
                0x0803cc68                customizeWriteDevBoardParams
                0x0803c6f8                customizeUseDefaultParams
                0x0803c350                customizeGetMACAddress
                0x0803cd44                customizeSaveIPParameters
                0x0803ccd8                customizeGetIPParameters
                0x0803c2b0                NABoardParamsSetMalloc
                0x0803c410                convertHexDigit
                0x0803c3f0                customizeSetMACAddress
 .text          0x0803cdc4       0x3c ../../../../lib/32b/libbsp.a(blExe.o)
                0x0803cdc4                blExecuteImage
 .text          0x0803ce00      0x1c8 ../../../../lib/32b/libbsp.a(nawait.o)
                0x0803cf28                NAWait
                0x0803cfa0                NAWaitRestoreSleep
                0x0803cf80                NAWaitDisableSleep
                0x0803cf48                NAWaitSetSleepFn
 .text          0x0803cfc8      0x1cc ../../../../lib/32b/libbsp.a(nareset.o)
                0x0803d100                NAReset
 .text          0x0803d194     0x4d60 ../../../../lib/32b/libbsp.a(startfilesystem.o)
                0x080408c4                filesystem_rmdir
                0x080411b4                filesystem_lseek
                0x0803ec6c                filesystem_mkdir
                0x08040c88                filesystem_rename
                0x0803d194                filesystem_init
                0x08040190                filesystem_read
                0x0803eb38                filesystem_checkname
                0x080404d4                filesystem_unlink
                0x0803fd54                filesystem_write
                0x0803f030                filesystem_open
                0x0803f9e8                filesystem_close
 .text          0x08041ef4      0x4fc ../../../../lib/32b/libbsp.a(fbanks.o)
                0x080421fc                SetFlashBankFlag
                0x08042344                GetFlashBankVersion
                0x080422c0                GetFlashBankFlag
                0x08041ef4                LocateFlashBank
 .text          0x080423f0     0x231c ../../../../lib/32b/libbsp.a(rtc.o)
                0x08042b30                rtcSet
                0x08043464                rtcReadExtraData
                0x080432bc                rtcWriteExtraData
                0x080428d4                rtcInitialize
                0x08043710                NAinstallRealTimeClockTime
                0x08043210                rtcDebugRevertVersion
                0x08042f24                rtcGet
 .text          0x0804470c      0x434 ../../../../lib/32b/libbsp.a(termios.o)
                0x080449e8                tcgetcounters
                0x08044900                cfgetospeed
                0x08044890                tcflush
                0x08044824                tcsendbreak
                0x08044ad0                tcgetbuffers
                0x08044954                cfgetispeed
                0x0804485c                tcdrain
                0x08044b08                tctxdone
                0x08044978                cfsetispeed
                0x08044a20                tcgetstats
                0x08044924                cfsetospeed
                0x0804470c                tcgetattr
                0x08044a58                tcgetsigchange
                0x08044a90                tcsetsignals
                0x080449a8                tcsendnow
                0x08044744                tcsetattr
                0x080448c8                tcflow
 .text          0x08044b40     0x7938 ../../../../lib/32b/libbsp.a(netos_serl.o)
                0x0804a2f0                netos_serlenter
                0x0804a8a4                netos_serlinit
                0x0804c39c                isatty
                0x0804ab58                netos_serlopen
                0x0804c428                serl_port_index
                0x0804b378                netos_serlread
                0x0804c110                netos_serlioctl
                0x0804afc8                netos_serlclose
                0x0804b7a4                netos_serlwrite
 .text          0x0804c478      0xd04 ../../../../lib/32b/libbsp.a(NA_ISR.o)
                0x0804c7a4                NADisableIsr
                0x0804ce90                NAInitIsr
                0x0804c478                NAInstallIsr
                0x0804c588                NAUninstallIsr
                0x0804cd9c                NAIrqHandler
                0x0804c71c                NAEnableIsr
 .text          0x0804d17c      0x1b8 ../../../../lib/32b/libbsp.a(crc32h.o)
                0x0804d2d8                blCrc32
 .text          0x0804d334      0x60c ../../../../lib/32b/libbsp.a(udpdb.o)
                0x0804d334                workerEntry
                0x0804d510                udpdb_init
                0x0804d6ac                udpdb_read
                0x0804d610                udpdb_open
                0x0804d670                udpdb_close
                0x0804d784                udpdb_write
                0x0804d4f0                udpdb_enter
                0x0804d918                udpdb_ioctl
 .text          0x0804d940      0x110 ../../../../lib/32b/libbsp.a(bsp.o)
                0x0804d9f0                zero_bss
                0x0804d940                NAusesTheInternalOscillator
                0x0804d9b0                NAgetPllValueBasedOnChipType
 .text          0x0804da50      0x8bc ../../../../lib/32b/libbsp.a(bsproot.o)
                0x0804e278                decompress
                0x0804ded8                netosStartup
                0x0804da80                netosConfigStdio
                0x0804e1a8                tx_application_define
 *fill*         0x0804e30c        0x4
 .text          0x0804e310     0x1290 ../../../../lib/32b/libbsp.a(armutils.o)
                0x0804e310                fmemcpy
                0x0804f548                NA4WordAlignedCompare
 .text          0x0804f5a0      0x5a8 ../../../../lib/32b/libbsp.a(starttcp.o)
                0x0804f65c                watchThisFileDescriptor
                0x0804f638                timer_proc
                0x0804f5a0                netosInterfaceUp
                0x0804fa8c                NA_Rand
                0x0804f71c                netosStartTCP
                0x0804f5c0                tSelect
 .text          0x0804fb48      0x504 ../../../../lib/32b/libbsp.a(bsptimer.o)
                0x0804fed0                NADeltaTicks
                0x0804ff88                NAT2Delay217uS
                0x0804fce0                netosSetupAuxClock
                0x0804fe8c                NATotalTicks
                0x0804fb48                netosSetupSystemClock
                0x0804ff68                NAT2Init
 .text          0x0805004c      0x254 ../../../../lib/32b/libbsp.a(sysClock.o)
                0x0805004c                NAgetSysClkFreq
                0x080501bc                NAgetXtalFreq
 .text          0x080502a0     0x4020 ../../../../lib/32b/libbsp.a(hdlcdvr.o)
                0x08050bdc                naHdlcFrameSend
                0x08051bb0                hdlcRxIsr
                0x080507c4                naHdlcOpen
                0x080541b0                GetResource
                0x08052a4c                naHdlcGetStats
                0x0805061c                HdlcInit
                0x080512a4                hdlcTxIsr
                0x08052b0c                naHdlcIoctl
                0x080509b0                naHdlcClose
                0x080504c4                HdlcDebugBreak
                0x08054260                ReleaseResource
                0x08051190                naHdlcFrameRecv
                0x080504e0                naHdlcLoad
 .text          0x080542c0       0x4c ../../../../lib/32b/libbsp.a(na_init.o)
                0x080542dc                NASetFIQ
                0x080542f8                NADisableIRQFIQ
                0x080542c0                NASetIRQ
 .text          0x0805430c     0x1210 ../../../../lib/32b/libbsp.a(aceParams.o)
                0x08054fdc                customizeAceSetAutoipConfig
                0x080543ac                customizeAceGetConfig
                0x08054e90                customizeAceSetBootpConfig
                0x08054bf8                customizeAceSetStaticConfig
                0x08054650                customizeAceGetDefaultConfig
                0x08055128                customizeAceSetRarpConfig
                0x08054980                customizeAceGetInterfaceConfig
                0x080544e8                customizeAceGetDefaultEthernetConfig
                0x08054ab4                customizeAceSetInterfaceConfig
                0x080552f8                customizeAceFindUnusedInterfaceConfig
                0x08054a18                customizeAceGetDefaultInterfaceConfig
                0x08055088                customizeAceGetRarpConfig
                0x080551d4                customizeAceFindInterfaceConfig
                0x08054b58                customizeAceGetStaticConfig
                0x08054df0                customizeAceGetBootpConfig
                0x08054ca4                customizeAceGetDhcpConfig
                0x0805431c                aceInstallSemaphoreFunction
                0x08054434                customizeAceSetConfig
                0x08054f3c                customizeAceGetAutoipConfig
                0x08054d44                customizeAceSetDhcpConfig
 .text          0x0805551c     0x1f2c ../../../../lib/32b/libbsp.a(aceCallbacks.o)
                0x08055728                customizeStopAce
                0x0805551c                customizeAceGetInterfaceAddrInfo
                0x080556dc                customizeAceLostAddress
                0x08056ef4                customizeAceClearInterfaceConfiguration
                0x08055694                customizeAceHaveAnotherAddress
                0x08056be8                customizeAceConfigureInterface
                0x0805577c                customizeStartAce
                0x08055600                customizeAceHaveAddress
 .text          0x08057448      0x1e0 ../../../../lib/32b/libbsp.a(naip_global.o)
                0x080574f0                NAIpGetDefaultTcpTtl
                0x080575fc                NAIpGetIpForwarding
                0x08057578                NAIpSetKaGarbage
                0x08057448                NAIpSetDefaultIpTtl
                0x08057510                NAIpSetKaInterval
                0x08057540                NAIpGetKaInterval
                0x0805748c                NAIpGetDefaultIpTtl
                0x080574ac                NAIpSetDefaultTcpTtl
                0x080575c4                NAIpSetIpForwarding
 .text          0x08057628      0x3a0 ../../../../lib/32b/libbsp.a(naifconfig.o)
                0x08057760                NAIfconfigBringDeviceUp
                0x08057628                NAIfconfigIsDeviceUp
                0x080576b8                NAIfconfigDeviceFromInterface
                0x08057808                NAIfconfigSetIpAddress
 .text          0x080579c8     0x14e8 ../../../../lib/32b/libbsp.a(dialog.o)
                0x08057abc                customizeDialog
 .text          0x08058eb0      0x158 ../../../../lib/32b/libbsp.a(flashutil.o)
                0x08058f58                NAFlashTurnWriteOn
                0x08058eb0                NAFlashIs16BitBase
                0x08058f1c                NAFlashEnable
                0x08058fd8                NAFlashGetTotalSegment
                0x08058f98                NAFlashTurnWriteOff
                0x08058ef4                NAFlashBase
 .text          0x08059008      0x298 ../../../../lib/32b/libbsp.a(event_handler.o)
                0x08059214                serl_cb_event
                0x08059018                serl_cb_add
                0x08059008                serl_cb_epoch
                0x08059184                serl_cb_remove
 .text          0x080592a0      0x70c ../../../../lib/32b/libbsp.a(hdlcmem.o)
                0x08059678                hdlcDeque
                0x08059364                naHdlcFrameAlloc
                0x08059548                hdlcEnque
                0x080592a0                hdlcInitFrames
                0x08059454                naHdlcFrameFree
                0x080595c8                hdlcAddToQ
                0x0805976c                hdlcFreeFrameQ
                0x080596ec                DeleteFrameQ
 .text          0x080599ac     0x59f0 ../../../../lib/32b/libflash.a(naflash.o)
                0x08059acc                NAflash_write_local
                0x08059a8c                NAflash_write
                0x0805ddd8                NAFlashSectors
                0x0805e284                NAFlashEraseStatus
                0x0805e0e0                NAFlashErase
                0x0805de78                NAFlashSectorSizes
                0x0805dfb8                NAFlashSectorOffsets
                0x080599ac                doesNothing
                0x0805e87c                NAFlashWrite
                0x0805e72c                NAFlashWriteSector
                0x0805dd5c                NAFlashInit
                0x0805e418                NAFlashRead
                0x080599c4                NAprogram_flash
 .text          0x0805f39c      0x148 ../../../../lib/32b/libflash.a(naflsem.o)
                0x0805f438                NAFlashCreateSemaphores
 .text          0x0805f4e4       0x18 ../../../../lib/32b/libflash.a(LWRWord.o)
                0x0805f4e4                ASMLWriteWord16
                0x0805f4f0                ASMLWriteWord32
 .text          0x0805f4fc      0x6c4 ../../../../lib/32b/libposix.a(posix_semaphore.o)
                0x0805f6e4                sem_wait
                0x0805f770                sem_post
                0x0805f85c                search_semaphore
                0x0805f5d0                sem_close
                0x0805f658                sem_trywait
                0x0805f978                add_new_semaphore
                0x0805f4fc                sem_open
                0x0805fad0                remove_samephore
                0x0805f7f8                sem_getvalue
 .text          0x0805fbc0      0xe48 ../../../../lib/32b/libposix.a(posix_thread.o)
                0x0805fc84                pthread_attr_destroy
                0x0805fd08                pthread_attr_getstacksize
                0x0805ffc4                pthread_create
                0x0805fbc0                pthread_attr_init
                0x080603bc                pthread_exit
                0x0805fe1c                pthread_attr_getstackaddr
                0x08060388                pthread_equal
                0x0805fe74                pthread_attr_setstackaddr
                0x0805fd60                pthread_attr_setstacksize
                0x0805ff28                xpthread_attr_setname
                0x08060360                pthread_self
                0x080604ec                posix_thread_start
                0x08060438                xpthread_set_priority
                0x08060524                clean_thread_entry
 .text          0x08060a08       0xbc ../../../../lib/32b/libtx.a(tx_ike.o)
                0x08060a08                _tx_initialize_kernel_enter
                0x08060a84                _tx_initialize_kernel_setup
 .text          0x08060ac4      0x140 ../../../../lib/32b/libtx.a(tx_timi.o)
                0x08060ac4                _tx_timer_initialize
 .text          0x08060c04      0x14c ../../../../lib/32b/libtx.a(tx_ti.o)
                0x08060c04                _tx_thread_initialize
 .text          0x08060d50      0x27c ../../../../lib/32b/libtx.a(tx_tc.o)
                0x08060d50                _tx_thread_create
 .text          0x08060fcc      0x2a0 ../../../../lib/32b/libtx.a(tx_tr.o)
                0x08060fcc                _tx_thread_resume
 .text          0x0806126c      0x370 ../../../../lib/32b/libtx.a(tx_tte.o)
                0x0806126c                _tx_timer_thread_entry
 .text          0x080615dc      0x188 ../../../../lib/32b/libtx.a(tx_ta.o)
                0x080615dc                _tx_timer_activate
 .text          0x08061764       0xdc ../../../../lib/32b/libtx.a(tx_tto.o)
                0x08061764                _tx_thread_timeout
 .text          0x08061840      0x134 ../../../../lib/32b/libtx.a(tx_tsle.o)
                0x08061840                _tx_thread_sleep
 .text          0x08061974       0x20 ../../../../lib/32b/libtx.a(tx_tide.o)
                0x08061974                _tx_thread_identify
 .text          0x08061994      0x144 ../../../../lib/32b/libtx.a(tx_gnu.o)
                0x08061a6c                __gnu_funlock_file
                0x08061a0c                __gnu_lock_init
                0x08061a88                __gnu_ftrylock_file
                0x080619b4                __gnuTZUnlock
                0x08061ac0                __gnu_flock_destroy
                0x08061aa8                __gnu_flock_create
                0x08061994                __gnuTZLock
                0x080619f0                __gnuUnlock
                0x08061a50                __gnu_flock_file
                0x080619d0                __gnuLock
 .text          0x08061ad8       0xe4 ../../../../lib/32b/libtx.a(txe_efc.o)
                0x08061ad8                _txe_event_flags_create
 .text          0x08061bbc       0xfc ../../../../lib/32b/libtx.a(txe_efg.o)
                0x08061bbc                _txe_event_flags_get
 .text          0x08061cb8      0x17c ../../../../lib/32b/libtx.a(txe_qc.o)
                0x08061cb8                _txe_queue_create
 .text          0x08061e34       0xd4 ../../../../lib/32b/libtx.a(txe_qr.o)
                0x08061e34                _txe_queue_receive
 .text          0x08061f08       0xd4 ../../../../lib/32b/libtx.a(txe_qs.o)
                0x08061f08                _txe_queue_send
 .text          0x08061fdc       0xec ../../../../lib/32b/libtx.a(txe_sc.o)
                0x08061fdc                _txe_semaphore_create
 .text          0x080620c8       0xb0 ../../../../lib/32b/libtx.a(txe_sd.o)
                0x080620c8                _txe_semaphore_delete
 .text          0x08062178       0xb4 ../../../../lib/32b/libtx.a(txe_sg.o)
                0x08062178                _txe_semaphore_get
 .text          0x0806222c       0x60 ../../../../lib/32b/libtx.a(txe_sp.o)
                0x0806222c                _txe_semaphore_put
 .text          0x0806228c      0x1ac ../../../../lib/32b/libtx.a(txe_tc.o)
                0x0806228c                _txe_thread_create
 .text          0x08062438       0x98 ../../../../lib/32b/libtx.a(txe_tdel.o)
                0x08062438                _txe_thread_delete
 .text          0x080624d0       0xc0 ../../../../lib/32b/libtx.a(txe_trpc.o)
                0x080624d0                _txe_thread_priority_change
 .text          0x08062590       0x60 ../../../../lib/32b/libtx.a(txe_tra.o)
                0x08062590                _txe_thread_resume_api
 .text          0x080625f0       0x98 ../../../../lib/32b/libtx.a(txe_tsa.o)
                0x080625f0                _txe_thread_suspend_api
 .text          0x08062688       0x98 ../../../../lib/32b/libtx.a(txe_tt.o)
                0x08062688                _txe_thread_terminate
 .text          0x08062720       0x60 ../../../../lib/32b/libtx.a(txe_taa.o)
                0x08062720                _txe_timer_activate_api
 .text          0x08062780       0xb4 ../../../../lib/32b/libtx.a(txe_tmch.o)
                0x08062780                _txe_timer_change
 .text          0x08062834      0x148 ../../../../lib/32b/libtx.a(txe_tmcr.o)
                0x08062834                _txe_timer_create
 .text          0x0806297c       0x60 ../../../../lib/32b/libtx.a(txe_tda.o)
                0x0806297c                _txe_timer_deactivate_api
 .text          0x080629dc       0xb0 ../../../../lib/32b/libtx.a(txe_timd.o)
                0x080629dc                _txe_timer_delete
 .text          0x08062a8c      0x140 ../../../../lib/32b/libtx.a(TX_MC.o)
                0x08062a8c                _tx_mutex_create
 .text          0x08062bcc      0x2e0 ../../../../lib/32b/libtx.a(TX_MG.o)
                0x08062bcc                _tx_mutex_get
 .text          0x08062eac      0x43c ../../../../lib/32b/libtx.a(TX_MP.o)
                0x08062eac                _tx_mutex_put
 .text          0x080632e8      0x194 ../../../../lib/32b/libtx.a(TX_MPRI.o)
                0x080632e8                _tx_mutex_prioritize
 .text          0x0806347c      0x360 ../../../../lib/32b/libtx.a(TX_MPC.o)
                0x0806347c                _tx_mutex_priority_change
 .text          0x080637dc      0x1cc ../../../../lib/32b/libtx.a(TX_MCLE.o)
                0x080637dc                _tx_mutex_cleanup
 .text          0x080639a8      0x110 ../../../../lib/32b/libtx.a(TXE_MC.o)
                0x080639a8                _txe_mutex_create
 .text          0x08063ab8       0xb4 ../../../../lib/32b/libtx.a(TXE_MG.o)
                0x08063ab8                _txe_mutex_get
 .text          0x08063b6c       0x60 ../../../../lib/32b/libtx.a(TXE_MP.o)
                0x08063b6c                _txe_mutex_put
 *fill*         0x08063bcc        0x4
 .text          0x08063bd0       0x60 ../../../../lib/32b/libtx.a(tx_tsr.o)
                0x08063bd0                _tx_thread_system_return
 .text          0x08063c30       0x70 ../../../../lib/32b/libtx.a(tx_ts.o)
                0x08063c30                _tx_thread_schedule
 .text          0x08063ca0      0x170 ../../../../lib/32b/libtx.a(tx_timin.o)
                0x08063ca0                _tx_timer_interrupt
 .text          0x08063e10       0x90 ../../../../lib/32b/libtx.a(tx_ill.o)
                0x08063e60                __tx_irq_processing_return
                0x08063e5c                __tx_irq_handler
                0x08063e10                _tx_initialize_low_level
 .text          0x08063ea0       0x70 ../../../../lib/32b/libtx.a(tx_tsb.o)
                0x08063ea0                _tx_thread_stack_build
 .text          0x08063f10       0xb0 ../../../../lib/32b/libtx.a(tx_tcs.o)
                0x08063f10                _tx_thread_context_save
 .text          0x08063fc0       0xd8 ../../../../lib/32b/libtx.a(tx_ihl.o)
                0x08063fc0                _tx_initialize_high_level
 .text          0x08064098       0xa4 ../../../../lib/32b/libtx.a(tx_tse.o)
                0x08064098                _tx_thread_shell_entry
 .text          0x0806413c      0x4a8 ../../../../lib/32b/libtx.a(tx_tsus.o)
                0x0806413c                _tx_thread_suspend
 .text          0x080645e4      0x110 ../../../../lib/32b/libtx.a(tx_tsa.o)
                0x080645e4                _tx_thread_suspend_api
 .text          0x080646f4       0xfc ../../../../lib/32b/libtx.a(tx_tra.o)
                0x080646f4                _tx_thread_resume_api
 .text          0x080647f0      0x120 ../../../../lib/32b/libtx.a(tx_tts.o)
                0x080647f0                _tx_thread_time_slice
 .text          0x08064910      0x120 ../../../../lib/32b/libtx.a(tx_tdel.o)
                0x08064910                _tx_thread_delete
 .text          0x08064a30      0x3c8 ../../../../lib/32b/libtx.a(tx_tprch.o)
                0x08064a30                _tx_thread_priority_change
 .text          0x08064df8      0x14c ../../../../lib/32b/libtx.a(tx_tt.o)
                0x08064df8                _tx_thread_terminate
 .text          0x08064f44      0x120 ../../../../lib/32b/libtx.a(tx_td.o)
                0x08064f44                _tx_timer_deactivate
 .text          0x08065064      0x16c ../../../../lib/32b/libtx.a(tx_timcr.o)
                0x08065064                _tx_timer_create
 .text          0x080651d0       0x60 ../../../../lib/32b/libtx.a(tx_taa.o)
                0x080651d0                _tx_timer_activate_api
 .text          0x08065230      0x23c ../../../../lib/32b/libtx.a(tx_tda.o)
                0x08065230                _tx_timer_deactivate_api
 .text          0x0806546c       0x80 ../../../../lib/32b/libtx.a(tx_timch.o)
                0x0806546c                _tx_timer_change
 .text          0x080654ec      0x108 ../../../../lib/32b/libtx.a(tx_timd.o)
                0x080654ec                _tx_timer_delete
 .text          0x080655f4      0x134 ../../../../lib/32b/libtx.a(tx_sc.o)
                0x080655f4                _tx_semaphore_create
 .text          0x08065728      0x224 ../../../../lib/32b/libtx.a(tx_sd.o)
                0x08065728                _tx_semaphore_delete
 .text          0x0806594c      0x1e4 ../../../../lib/32b/libtx.a(tx_sg.o)
                0x0806594c                _tx_semaphore_get
 .text          0x08065b30      0x17c ../../../../lib/32b/libtx.a(tx_sp.o)
                0x08065b30                _tx_semaphore_put
 .text          0x08065cac      0x1cc ../../../../lib/32b/libtx.a(tx_scle.o)
                0x08065cac                _tx_semaphore_cleanup
 .text          0x08065e78      0x24c ../../../../lib/32b/libtx.a(tx_qc.o)
                0x08065e78                _tx_queue_create
 .text          0x080660c4      0x8dc ../../../../lib/32b/libtx.a(tx_qs.o)
                0x080660c4                _tx_queue_send
 .text          0x080669a0      0x980 ../../../../lib/32b/libtx.a(tx_qr.o)
                0x080669a0                _tx_queue_receive
 .text          0x08067320      0x1ec ../../../../lib/32b/libtx.a(tx_qcle.o)
                0x08067320                _tx_queue_cleanup
 .text          0x0806750c      0x13c ../../../../lib/32b/libtx.a(tx_efc.o)
                0x0806750c                _tx_event_flags_create
 .text          0x08067648      0x29c ../../../../lib/32b/libtx.a(tx_efg.o)
                0x08067648                _tx_event_flags_get
 .text          0x080678e4      0x1cc ../../../../lib/32b/libtx.a(tx_efcle.o)
                0x080678e4                _tx_event_flags_cleanup
 .text          0x08067ab0      0x160 ../../../../lib/32b/libtx.a(tx_tcr.o)
                0x08067ab0                _tx_thread_context_restore
 .text          0x08067c10      0x86c ../../../../lib/32b/libmanapi.a(man_env.o)
                0x08068190                manSetOctetString
                0x0806826c                manSetWORD16
                0x080680f0                manSetINT32
                0x0806821c                manSetWORD8
                0x08067dc0                manGetWORD8
                0x08067d78                manGetOctetString
                0x080682b8                manSetWORD32
                0x08067c58                manGetINT8
                0x08067e08                manGetWORD16
                0x08068358                manSetUnknown
                0x08067c10                manGetChar
                0x08067e98                manGetWORD64
                0x08067ca0                manGetINT16
                0x08068004                manSetChar
                0x08067ee0                manGetUnknown
                0x08067ce8                manGetINT32
                0x08067e50                manGetWORD32
                0x08068304                manSetWORD64
                0x08067d30                manGetINT64
                0x080680a4                manSetINT16
                0x0806813c                manSetINT64
                0x08068054                manSetINT8
 .text          0x0806847c     0x1e78 ../../../../lib/32b/libmanapi.a(man_init.o)
                0x08069f98                manAddVariableCallback
                0x080685c8                manDecVarAccessCounter
                0x080689bc                manGetVariableTypeSize
                0x0806a1c4                manDeleteVariableCallback
                0x08069758                manAddVariableList
                0x08068550                manIncVarAccessCounter
                0x0806a230                manUnregisterChangeFn
                0x0806a284                manRegisterChangeFn
                0x08069c44                manDeleteVariableList
                0x08068c40                manSetVariableTypeSize
                0x080684f8                manLockSemaphore
                0x0806865c                manUnlockSemaphore
 .text          0x0806a2f4      0x638 ../../../../lib/32b/libmanapi.a(hash.o)
                0x0806a2f4                hash
 .text          0x0806a92c     0x1eb8 ../../../../lib/32b/libmanapi.a(man_row.o)
                0x0806b51c                manFindRowByNumericIndex
                0x0806aac8                manCalculateBoundaryOffset
                0x0806b08c                manCopyRow
                0x0806af78                manCopyOctetString
                0x0806b45c                manFindRow
                0x0806be30                manGetSnmpRow
                0x0806b740                manDeleteSnmpRow
                0x0806ab80                manFreeRow
                0x0806b5d8                manFindRowBySnmpIndex
                0x0806adc4                manAllocRow
                0x0806c0ec                manGetSnmpRowPos
                0x0806c324                manSetSnmpRow
                0x0806b294                manInsertRow
                0x0806ba54                manInsertSnmpRow
                0x0806b384                manDeleteRow
                0x0806a92c                manCheckRowFieldSize
 .text          0x0806c7e4     0x13c4 ../../../../lib/32b/libmanapi.a(man_main.o)
                0x0806c94c                manFindVar
                0x0806d15c                manSetVar
                0x0806d918                manGetArray
                0x0806c8e8                manUnlockAllSemaphores
                0x0806cf28                manGetVar
                0x0806ce50                manDoArrayCallback
                0x0806cd48                manDoCallback
                0x0806d604                manSetArray
                0x0806cb14                computeAccessPointer
                0x0806d3f8                manGetVariableInfo
                0x0806c7e4                manLockAllSemaphores
 .text          0x0806dba8      0x4a0 ../../../../lib/32b/libftpsvr.a(ftposp.o)
                0x0806df10                FSStartServer
                0x0806dba8                naftp_timer_function
                0x0806dd40                naftp_check_timer
                0x0806dbd8                naftp_start_timer
 .text          0x0806e048     0x52dc ../../../../lib/32b/libftpsvr.a(ftpsvr.o)
                0x08073264                FSGetNumberOfUser
                0x0806e578                naftp_init_config
                0x0806ea4c                naftp_init_socket
                0x08071358                naftp_cmd_list
                0x08072fa0                FSHandleToSocket
                0x08072944                FSRegisterSYST
                0x08072800                FSRegisterNLST
                0x08072db8                FSRegisterAdditionalCMD
                0x0806fabc                naftp_process_pasv
                0x08073198                FSTimeout
                0x08072c08                FSRegisterPWD
                0x08073064                FSHandleToControlSocket
                0x08071704                naftp_cmd_rnfr
                0x08072d4c                FSRegisterRNTO
                0x08070b2c                naftp_init_select
                0x0807262c                FSProperties
                0x08072ce0                FSRegisterRNFR
                0x08070264                naftp_parse
                0x080718bc                naftp_cmd_mkd
                0x08073150                FSUserName
                0x08071a80                naftp_cmd_dele
                0x08072a60                FSRegisterValidation
                0x08071b58                naftp_cmd_cwd
                0x08072c74                FSRegisterCDUP
                0x0807162c                naftp_cmd_cdup
                0x0807199c                naftp_cmd_rmd
                0x0806f650                naftp_process_user
                0x0806e4f0                naftp_record_error
                0x0806fcf8                naftp_user_data
                0x0806f618                naftp_graceful_exit
                0x080732ac                FSGetAccessCode
                0x0806f540                naftp_reset_cntlsock
                0x08072794                FSRegisterLIST
                0x08073108                FSSequenceNumber
                0x08071f14                naftp_resolve_user
                0x08072728                FSRegisterCWD
                0x08072594                naftp_data_connections
                0x08070f70                naftp_cmd_stor
                0x08072ac4                FSRegisterMKD
                0x0806e514                na_init_sockaddr
                0x08071d10                naftp_resolve_cmd
                0x0806f94c                naftp_process_port
                0x0806e474                naftp_client_start
                0x0806f180                naftp_split_command
                0x08071544                naftp_cmd_pwd
                0x08070918                naftp_prepare_user
                0x080717e4                naftp_cmd_rnto
                0x0806eef0                naftp_send_reply
                0x0806f844                naftp_process_password
                0x0806f41c                naftp_reset_datasock
                0x08072e68                FSAddUser
                0x08072b30                FSRegisterRMD
                0x08072e24                FSInitialize
                0x08072b9c                FSRegisterDELE
                0x08071c44                naftp_cmd_syst
                0x0807286c                FSRegisterRETR
                0x080729b0                FSRegisterDataClose
                0x0806e108                NAFTP_server
                0x08071238                naftp_cmd_retr
                0x0806fe40                naftp_process_data
                0x080728d8                FSRegisterSTOR
                0x08072a08                FSRegisterControlClose
 .text          0x08073324     0x1a3c ../../../../lib/32b/libtelnsvr.a(ts_mod.o)
                0x0807422c                TSSendData
                0x08074c18                TSgetSessionUsername
                0x08074454                TSSendString
                0x080737c0                TSGetPortId
                0x08074cbc                TSgetSessionPassword
                0x08074820                TSSetClientOption
                0x0807449c                TSSetServerOption
                0x08073e60                TSStartPort
                0x08074110                TSStopPort
                0x08073bfc                TSClosePort
                0x08073324                ts_getbuf_default
                0x08074b1c                TSCloseSession
                0x080738b0                TSOpenPort
                0x080733c4                TSInitServer
 .text          0x08074d60     0x2f10 ../../../../lib/32b/libtelnsvr.a(telnetd2.o)
                0x08076fec                send_string
                0x08077c28                Putc
                0x080778f0                get_data
                0x08074d60                telnetd
                0x08075ff8                DoTTFSM
                0x08075510                new_check_for_client_logins
                0x08076df8                end_session
                0x080775c8                get_string
                0x08077038                get_option
                0x080762dc                ts_clean_port
                0x08076fa8                send_data
                0x08077180                ReadAByte
                0x08076d80                telnet_free_session_info
                0x080760cc                ts_init_port
                0x08075d14                Validate_UserandPass
                0x08076d60                telnet_init_login
 .text          0x08077c70      0x250 ../../../../lib/32b/libtelnsvr.a(fsminit.o)
                0x08077c70                fsminit
 .text          0x08077ec0      0x384 ../../../../lib/32b/libtelnsvr.a(ttgetc.o)
                0x08077ec0                ttgetc
 .text          0x08078244       0x74 ../../../../lib/32b/libtelnsvr.a(will_not.o)
                0x08078244                will_notsup
 .text          0x080782b8      0x1e0 ../../../../lib/32b/libtelnsvr.a(do_echo.o)
                0x080782b8                do_echo
                0x080783a8                will_echo
 .text          0x08078498      0x1e0 ../../../../lib/32b/libtelnsvr.a(do_noga.o)
                0x08078588                will_noga
                0x08078498                do_noga
 .text          0x08078678       0x74 ../../../../lib/32b/libtelnsvr.a(do_notsu.o)
                0x08078678                do_notsup
 .text          0x080786ec      0x1e0 ../../../../lib/32b/libtelnsvr.a(do_txbin.o)
                0x080786ec                do_txbinary
                0x080787dc                will_txbinary
 .text          0x080788cc       0x2c ../../../../lib/32b/libtelnsvr.a(tcga.o)
                0x080788cc                tcga
 .text          0x080788f8       0x70 ../../../../lib/32b/libtelnsvr.a(recopt.o)
                0x080788f8                recopt
                0x08078948                no_op
 .text          0x08078968      0x234 ../../../../lib/32b/libdnsclnt.a(dnsc_api.o)
                0x080789ec                DNSGetServers
                0x08078968                DNSAddServer
                0x080789ac                DNSRemoveServer
                0x08078ad8                DNSgethostbyname
 .text          0x08078b9c      0xc84 ../../../../lib/32b/libfastip.a(fast_ip.o)
                0x08079148                isUdpExpressPacket
                0x08078c6c                fip_registerPortAutoReply
                0x080792a4                prepareExpressReply
                0x08078d40                fip_deregisterPort
                0x08079084                fastip_ip_down
                0x08079588                fip_checkForNewPackets
                0x08078b9c                fip_registerPortProcessingRtn
                0x08078e78                expressInit
                0x08078ff0                fastip_ip_up
                0x08079208                executeAppProcessingFn
                0x08078e48                expressFree
 .text          0x08079820      0xf6c ../../../../lib/32b/libtcpip.a(ace.o)
                0x08079994                aceAddressEvent
                0x08079de0                aceTask
                0x0807982c                aceStart
                0x08079820                aceInitialize
                0x08079d80                aceInterfaceName
                0x080798ec                aceStop
 .text          0x0807a78c      0x1d8 ../../../../lib/32b/libtcpip.a(ace_os.o)
                0x0807a8d8                aceTimeout
                0x0807a8b8                aceSetTime
                0x0807a908                aceWaitOnEvent
                0x0807a91c                aceTriggerEvent
                0x0807a78c                ace_initialize
                0x0807a93c                aceIsAceThread
                0x0807a8a8                aceGetTime
 .text          0x0807a964      0x6f8 ../../../../lib/32b/libtcpip.a(ace_dhcp.o)
                0x0807a964                ace_start_dhcp
                0x0807af00                ace_get_dhcp_addr_info
                0x0807ad4c                ace_get_bootp_dhcp_ip_options
                0x0807aa38                ace_release_dhcp_addr
                0x0807aa4c                ace_stop_dhcp
                0x0807ab78                ace_get_bootp_dhcp_options
 .text          0x0807b05c      0x12c ../../../../lib/32b/libtcpip.a(ace_bootp.o)
                0x0807b05c                ace_start_bootp
                0x0807b0e4                ace_get_bootp_addr_info
                0x0807b0c8                ace_stop_bootp
 .text          0x0807b188      0x164 ../../../../lib/32b/libtcpip.a(ace_autoip.o)
                0x0807b188                ace_start_autoip
                0x0807b238                ace_get_autoip_addr_info
                0x0807b1fc                ace_stop_autoip
 .text          0x0807b2ec       0xa8 ../../../../lib/32b/libtcpip.a(ace_static.o)
                0x0807b340                ace_get_static_addr_info
                0x0807b338                ace_stop_static
                0x0807b2ec                ace_start_static
 .text          0x0807b394      0x11c ../../../../lib/32b/libtcpip.a(ace_rarp.o)
                0x0807b3f8                ace_stop_rarp
                0x0807b394                ace_start_rarp
                0x0807b434                ace_get_rarp_addr_info
 .text          0x0807b4b0      0x114 ../../../../lib/32b/libtcpip.a(ace_pingarp.o)
                0x0807b548                ace_get_ping_arp_addr_info
                0x0807b50c                ace_stop_ping_arp
                0x0807b4b0                ace_start_ping_arp
 .text          0x0807b5c4      0xb28 ../../../../lib/32b/libtcpip.a(fnsrr.o)
                0x0807bd0c                ipGetRoutingTable
                0x0807bc00                router_config_primary_addr
                0x0807b5c4                router_init
                0x0807b610                ipCircFromDevName
                0x0807b82c                ip_add_static_route
                0x0807b654                lltype_2_circ_type
                0x0807bb74                router_del_alias
                0x0807b6fc                ip_config_pri_addr
                0x0807bcb4                router_unconfig_primary_addr
                0x0807bfe0                router_circ_init
                0x0807b60c                router_start
                0x0807b9b8                ipGetRTID
                0x0807b71c                ip_unconfig_pri_addr
                0x0807ba38                router_add_alias
                0x0807c0ac                oframe_free
                0x0807b958                ipRegLocalMcast
                0x0807c094                oframe_alloc
                0x0807b870                ip_router_advertisements
                0x0807c034                fns_mp_alloc
                0x0807b8f4                ip_del_static_route
                0x0807b928                ip_get_routing_table
 .text          0x0807c0ec      0x1e4 ../../../../lib/32b/libtcpip.a(heap.o)
                0x0807c124                h_alloc
                0x0807c214                h_calloc
                0x0807c2c4                h_tailtrim
                0x0807c244                h_free
 .text          0x0807c2d0     0x1158 ../../../../lib/32b/libtcpip.a(icmp.o)
                0x0807c79c                icmp_up
                0x0807cdd0                icmp_user_send
                0x0807cfd4                icmp_bind
                0x0807cff8                rrIcmpTxRtrDiscAdv
                0x0807cd14                icmp_attach
                0x0807cd7c                icmpinit
                0x0807d258                fns_ping_arp_stop
                0x0807c794                icmp_dink
                0x0807cf90                icmp_connect
                0x0807d198                fns_ping_arp_start
                0x0807cea8                icmp_user_up
                0x0807d128                iptxtofns
                0x0807c2d0                icmp_msg
 .text          0x0807d428       0x30 ../../../../lib/32b/libtcpip.a(ipclassm.o)
                0x0807d428                ip_class_mask
 .text          0x0807d458      0x330 ../../../../lib/32b/libtcpip.a(ipcomm.o)
                0x0807d5f0                ip_net0
                0x0807d53c                ip_bc_type
                0x0807d458                ip_at_comm
                0x0807d774                is_loopback
                0x0807d4d8                ip_is_ours
                0x0807d640                ip_resolve
 .text          0x0807d788      0xbf8 ../../../../lib/32b/libtcpip.a(ipfrag.o)
                0x0807dd30                ip_collect
                0x0807e36c                ip_purge_fragments
                0x0807e09c                ip_fragment
 .text          0x0807e380      0x724 ../../../../lib/32b/libtcpip.a(ipmisc.o)
                0x0807e788                ip_path_mtu_init
                0x0807e900                ip_pmtu_icmp
                0x0807ea90                fns_ip_forwarding
                0x0807ea6c                fns_ip_default_ttl
                0x0807e380                ip_hmatch
                0x0807e880                ip_get_path_mtu
                0x0807e990                fusion_ip_pmtu_set_cache_params
                0x0807e3b4                ip_inaddr
                0x0807e8a4                ip_next_lower_pmtu
 .text          0x0807eaa4      0x91c ../../../../lib/32b/libtcpip.a(ipnetd.o)
                0x0807f140                ip_net_deliver
                0x0807eaa4                ip_ascend
                0x0807f310                ip_icmp
                0x0807ec28                ip_up
 .text          0x0807f3c0     0x100c ../../../../lib/32b/libtcpip.a(ipopt.o)
                0x0807fdbc                ip_xopt
                0x0807f7a4                ip_setopt
                0x0807fbfc                ip_stop
                0x0807f5ac                ip_setopt_mcast_ttl
                0x0807f660                ip_setopt_mcast_membership
                0x080801a4                ip_route
                0x0807f3c0                ip_getopt
                0x0807f5dc                ip_setopt_mcast_loop
                0x0807f614                ip_setopt_mcast_if
 .text          0x080803cc     0x107c ../../../../lib/32b/libtcpip.a(ipxmit.o)
                0x08081338                ip_frsend
                0x080807f4                ip_xmt2
                0x080807cc                ip_xmit
                0x08080c84                ip_xmt3
                0x080803cc                ip_send
                0x08080b20                ip_xmtlocal
 .text          0x08081448      0x4fc ../../../../lib/32b/libtcpip.a(lkheap.o)
                0x08081808                h_mlow
                0x08081930                h_mend
                0x0808158c                h_mfree
                0x08081448                h_malloc
                0x080817ac                nc_hinit
                0x08081830                h_mttrim
 .text          0x08081944      0x9b4 ../../../../lib/32b/libtcpip.a(llconfig.o)
                0x0808224c                ll_check_probes
                0x08081944                ll_config
                0x08082034                ll_arp_address
                0x08081d74                ll_unconfig
 .text          0x080822f8      0x62c ../../../../lib/32b/libtcpip.a(m.o)
                0x080827ac                tmq_continue
                0x0808237c                m_dup
                0x0808272c                _tmq_block
                0x080822f8                addr_out
                0x08082840                tmq_in
                0x080828f0                tmq_wakeup
                0x080826b4                nd_lookup
                0x080825a4                m_new
                0x08082880                tmq_init
                0x0808268c                m_ttrim
 .text          0x08082924       0x8c ../../../../lib/32b/libtcpip.a(md.o)
                0x08082924                md_cheql
                0x08082974                md_strcmp
                0x08082950                md_bzero
 .text          0x080829b0      0xe18 ../../../../lib/32b/libtcpip.a(md5.o)
                0x08082ac8                MD5Final
                0x080829b0                MD5Init
                0x080829f0                MD5Update
 .text          0x080837c8      0x4d0 ../../../../lib/32b/libtcpip.a(msm.o)
                0x08083a60                sm_stay_critical
                0x08083abc                smcqin
                0x080837c8                sm_wqin
                0x08083b78                smrqin
                0x08083a30                smcritical
                0x08083b24                smhqin
                0x08083c4c                smturn
                0x0808381c                sm_msm
                0x08083a98                smerr
                0x08083a7c                smdispose
 .text          0x08083c98       0x20 ../../../../lib/32b/libtcpip.a(ncaf.o)
                0x08083ca8                sterr
                0x08083ca0                true_hmatch
                0x08083c98                zero_sub
 .text          0x08083cb8       0xf4 ../../../../lib/32b/libtcpip.a(naadddev.o)
                0x08083cb8                NAAddDeviceToTcpipDeviceTable
 .text          0x08083dac      0xacc ../../../../lib/32b/libtcpip.a(ncdev.o)
                0x08083dbc                noent_send
                0x08083dd8                ndv_init
                0x08083dd0                noent_ioctl
                0x0808425c                ll_dev_make_name
                0x080844f0                ll_set_addr
                0x0808432c                ll_ipaddr_2_ndp
                0x0808472c                ll_create_device
                0x08083dc8                noent_start
                0x08083fa8                nd_match
                0x08083dac                noent_init
                0x080841c8                ll_dev_ipinfo
                0x080841b8                ll_dev_exists
                0x080841a8                ll_dev_info
                0x08084004                ll_dev_2_ndp
                0x08084398                ll_ipaddr_2_ipas
                0x08084410                ncdev_init
                0x08083db4                noent_updown
 .text          0x08084878      0x254 ../../../../lib/32b/libtcpip.a(ncdid.o)
                0x080848d8                fusion_init
                0x08084878                init_dbg_params
 .text          0x08084acc      0x114 ../../../../lib/32b/libtcpip.a(ncmisc.o)
                0x08084bd8                so_debug
                0x08084acc                nc_init
 .text          0x08084be0      0x234 ../../../../lib/32b/libtcpip.a(ncpr.o)
                0x08084c10                no_listen
                0x08084c20                no_outaddr
                0x08084c08                no_getopt
                0x08084ccc                np_init
                0x08084c94                iponly_setopt
                0x08084c68                zero_cabort
                0x08084c30                no_recv
                0x08084c00                no_ioctl
                0x08084c38                no_send
                0x08084bf8                no_connect
                0x08084c58                no_dink
                0x08084c70                iponly_getopt
                0x08084c50                zero_close
                0x08084bf0                no_bind
                0x08084cbc                no_pr_pmtu_change_notif
                0x08084c40                no_setopt
                0x08084c18                no_inaddr
                0x08084cc4                zero_dink
                0x08084d7c                ncpr_init
                0x08084be8                no_accept
                0x08084c28                no_pair
                0x08084be0                zero_init
                0x08084c48                no_shutdown
                0x08084c60                no_reject
 .text          0x08084e14      0xc08 ../../../../lib/32b/libtcpip.a(q.o)
                0x08085914                q_outparent
                0x080853e0                _gq_wakeup
                0x08084ff4                gq_in
                0x080857e0                q_in
                0x080851cc                gq_max_set
                0x0808520c                gq_out
                0x08084e14                gq_chk
                0x080851a4                gq_init
                0x08085410                gq_wakeup
                0x080852c4                gq_sleep
                0x08084f94                gq_head
                0x08085290                _gq_sleep
                0x08084f1c                gq_hdlock
                0x08085898                q_out
                0x0808593c                q_scan
                0x080853a4                gq_unlock
                0x080858d0                q_outhead
                0x080856c0                q_chk
                0x08085260                _gq_poll
                0x08085820                q_intail
                0x08085930                q_parent
                0x080854f8                _bgq_out
                0x08085858                q_nxt
                0x0808522c                gq_out_wake
                0x08085444                mgq_out
                0x080852f8                gq_smoke
                0x080859c4                q_len
 .text          0x08085a1c      0x134 ../../../../lib/32b/libtcpip.a(secure.o)
                0x08085a1c                is_secure
                0x08085ab0                SNMPDeleteUser
                0x08085a48                SNMPMapUser
 .text          0x08085b50      0x8d8 ../../../../lib/32b/libtcpip.a(select.o)
                0x08085b50                clr_pending_notify
                0x08086184                sel_notify
                0x08086208                sel_rip
                0x080860a0                sel_anotify
                0x08085c18                rip_notify
                0x08085c7c                so_notify
                0x08085d78                so_nselect
 .text          0x08086428     0x1010 ../../../../lib/32b/libtcpip.a(sock.o)
                0x08086abc                so_ditchsop
                0x08086d40                so_iopen
                0x08086b68                so_iclose
                0x080870a0                send_notify
                0x08086744                so_open
                0x080864e4                fd_2_sock
                0x08086bf8                so_inextsocket
                0x080872f8                so_add_mcast_group
                0x08086f48                so_smoke
                0x08086590                fd_2_sock_ignore_err
                0x0808666c                ndev_ioctl
                0x08086758                so_uclose
                0x08086958                so_timeoutclose
                0x08086e9c                so_initialize
                0x08087384                so_drop_mcast_group
                0x08086dfc                so_ishutdown
                0x08086a2c                so_pclose
                0x080873f4                so_free_all_mcast
                0x080871e8                so_sq_max
                0x080869cc                so_dclose
                0x080872bc                so_in_mcast_group
                0x08086610                so_cabort
                0x08087120                so_rq_max
                0x08086428                so_outaddr
                0x08087030                sop_init
                0x080866b0                pr_lookup
 .text          0x08087438      0x1a8 ../../../../lib/32b/libtcpip.a(sop.o)
                0x080874f4                so_spcomm
                0x08087438                so_rpcomm
 .text          0x080875e0      0x638 ../../../../lib/32b/libtcpip.a(timer.o)
                0x08087afc                t_start
                0x08087bd4                fusion_os_rand
                0x08087ba4                t_stop
                0x080875e0                t_clock
                0x08087a08                t_new
                0x08087760                t_delete
 .text          0x08087c18      0x1e4 ../../../../lib/32b/libtcpip.a(twq.o)
                0x08087c9c                twq_run
                0x08087c18                twq_in
                0x08087d4c                twq_remduplicate
                0x08087dd8                twq_init
                0x08087c70                twq_promise
 .text          0x08087dfc      0x5ac ../../../../lib/32b/libtcpip.a(udpnetd.o)
                0x0808830c                udp_schedule_recover_memory
                0x0808814c                udp_up
                0x08087f24                udp_check_ocsum
                0x08087dfc                udp_icmp
                0x08088320                udp_recover_memory
 .text          0x080883a8      0x174 ../../../../lib/32b/libtcpip.a(udpopt.o)
                0x0808845c                udp_setopt
                0x080883a8                udp_getopt
 .text          0x0808851c      0x488 ../../../../lib/32b/libtcpip.a(udpsock.o)
                0x0808863c                udp_attach
                0x0808892c                udp_reject
                0x08088834                udp_connect
                0x080886a4                udp_bind
                0x080888c8                udpinit
                0x0808851c                udp_accept
 .text          0x080889a4      0x708 ../../../../lib/32b/libtcpip.a(tcpxmit.o)
                0x08089014                tcp_xmit
                0x08088a8c                tcp_dink
                0x080889a4                tcp_rwind_to_advertise
 .text          0x080890ac     0x3b28 ../../../../lib/32b/libtcpip.a(tcpnetd.o)
                0x0808b740                tcp_rsyn
                0x0808c9f4                tcp_ska
                0x0808ae58                tcp_no_more_data_in
                0x0808958c                tcp_dl
                0x0808c224                tcp_retransmit_fsm
                0x0808bb34                tcp_sndack
                0x08089d88                tcp_net_deliver
                0x0808b4d8                tcp_rslf
                0x08089754                tcp_fast_path
                0x0808ba50                tcp_schedule_delayed_ack
                0x0808b2f8                tcp_reset
 .text          0x0808cbd4     0x10ec ../../../../lib/32b/libtcpip.a(tcpsend.o)
                0x0808ce54                tcp_seg_optsize
                0x0808ced0                tcp_construct_seg_options
                0x0808ccbc                tcp_selective_ack_needed
                0x0808d184                tcp_sqxmit
                0x0808d130                tcp_find_option
 .text          0x0808dcc0     0x1dd4 ../../../../lib/32b/libtcpip.a(tcpsock.o)
                0x0808ecdc                tcp_recv
                0x0808f824                tcp_shutdown
                0x0808f780                tcp_sfin
                0x0808e5c8                tcp_connect_inner
                0x0808e3e0                tcpclose
                0x0808e12c                tcp_bind
                0x0808ef60                tcp_reject
                0x0808eb64                tcp_listen
                0x0808f698                tcp_setopt
                0x0808ea58                tcp_ioctl
                0x0808eff8                tcp_send
                0x0808e73c                tcp_connect
                0x0808f9d4                tcp_west
                0x0808e378                tcp_cabort
                0x0808dcc0                tcp_accept
                0x0808de78                tcpattach
                0x0808e8e8                tcp_gsyn
                0x0808e810                tcp_getopt
 .text          0x0808fa94     0x1b04 ../../../../lib/32b/libtcpip.a(tcpmisc.o)
                0x08090dbc                tcp_adjust_out_sack_blocks_for_rnxt
                0x080902bc                countTcpCurrEstab
                0x0809112c                tcp_in_sack_proc_suna
                0x08090104                tcp_outaddr
                0x0808fbb8                tcpabort
                0x08091194                tcp_in_sack_processing
                0x080913c0                tcp_ka_timer
                0x0809038c                _sv_bind
                0x0808fe80                tcp_icmp
                0x08091524                fns_tcp_ka_interval
                0x0809032c                _sv_detach
                0x08090574                tcp_rextimer
                0x08090238                sv_so_bind
                0x0808fe08                tcp_pmtu_change_notif
                0x08090788                tcp_set_send_mss
                0x08090274                sv_so_detach
                0x08090748                tcp_rcv_wscale_value
                0x08090ecc                print_insack_table
                0x080914f8                tcp_get_state
                0x08091378                tcp_end_ka
                0x0808fa94                sv_m_detach
                0x08090c48                tcp_add_out_sack_block
                0x080901f0                sv_nstate
                0x08091500                fns_tcp_default_ttl
                0x08091584                fns_tcp_garbage_default
                0x080909d8                tcp_target
                0x0808fafc                sv_m_bind
                0x08090934                tcp_rmax_set
                0x080911fc                tcp_up
                0x080912f8                tcp_init_ka
                0x08090074                tcpinit
                0x0808fd50                tcp_finpkt
                0x08091560                fns_tcp_garbage
                0x0808fc94                tcp_acktimer
 .text          0x08091598      0x348 ../../../../lib/32b/libtcpip.a(tcptrans.o)
                0x08091598                fusion_t_tcp_set_cache_size
                0x08091620                t_tcp_initialize
                0x080916fc                t_tcp_create_cache_entry
                0x080917a8                t_tcp_init_connection_vars
                0x080916b0                t_tcp_find_cache_entry
 .text          0x080918e0      0x1c4 ../../../../lib/32b/libtcpip.a(tcpimpco.o)
                0x08091910                tcp_do_implied_connect
 .text          0x08091aa4      0xc90 ../../../../lib/32b/libtcpip.a(igmp.o)
                0x08091aa4                igmp_is_v2
                0x08092368                igmp_find
                0x08092178                igmp_leave
                0x08092554                igmp_send_general_query
                0x08091db8                ip_del_multi_route
                0x080924dc                igmp_send_report
                0x08091f8c                igmp_report
                0x08092678                igmp_start
                0x08091ee8                igmpdummy
                0x08091aac                ip_add_multi_route
                0x080923d4                igmp_update
                0x08092610                igmp_num
                0x08092670                igmp_attach
                0x080926d8                igmpFindNdp
                0x0809217c                igmp_dink
                0x08091ef0                igmpinit
                0x080925b4                igmp_send_group_query
                0x0809223c                igmp_start_t
                0x08092404                igmp_do_send
                0x08092038                igmp_query
                0x08091f4c                igmp_no_v1_router
                0x08092190                igmp_up
                0x08091d40                igmp_send_leave
 .text          0x08092734      0x77c ../../../../lib/32b/libtcpip.a(socketopt.o)
                0x08092cac                fns_setsockopt
                0x08092d68                find_sockopt_entry
                0x08092d9c                process_get_sockopt
                0x08092e28                process_set_sockopt
                0x080928c4                fns_getsockopt
 .text          0x08092eb0      0x8b4 ../../../../lib/32b/libtcpip.a(sockapi.o)
                0x0809310c                recv
                0x08092f78                connect
                0x080935f0                sockatmark
                0x0809316c                recvfrom
                0x080936b0                socket
                0x08093268                select
                0x080934a0                send
                0x08092eb0                accept
                0x08092eec                bind
                0x08093564                setsockopt
                0x08093718                getErrno
                0x08093510                sendto
                0x080930b4                listen
                0x08093650                shutdown
                0x08092f28                closesocket
                0x08092fb4                getpeername
                0x0809302c                getsockopt
                0x08093738                setErrno
                0x080936f4                fnsErr2BSD
                0x08092ff0                getsockname
 .text          0x08093764      0x9ac ../../../../lib/32b/libtcpip.a(autoip.o)
                0x08093e24                auto_ipv4_fsm_claimed
                0x0809406c                auto_ipv4_arp_up
                0x08093b18                auto_ipv4_build_arp
                0x08093fac                auto_ipv4_timer
                0x08093f08                auto_ipv4_fsm
                0x08093d4c                auto_ipv4_up_claimed_common
                0x0809394c                fns_auto_ipv4_unconf
                0x08093c08                auto_ipv4_fsm_probing
                0x08093db4                auto_ipv4_fsm_up
                0x08093b90                auto_ipv4_fsm_init_state
                0x08093764                fns_auto_ipv4_conf
 .text          0x08094110      0x728 ../../../../lib/32b/libtcpip.a(rricirc.o)
                0x0809450c                ipCircNextId
                0x08094710                ipCircEnable
                0x0809448c                ipCircFromIFID
                0x08094748                ipCircDisable
                0x080941a8                ipCircCreate
                0x08094660                ipCircEvent
                0x08094398                ipCircFromId
                0x080947d4                ipGetMatchAddr
                0x08094798                ipIntfMtu
                0x08094400                ipGetNextHop
                0x080942c0                ipCircSetIPA
                0x08094574                ipCircFreeId
                0x08094110                ipCircuitInit
                0x0809431c                ipCircDelete
                0x0809475c                ipCircuitState
 .text          0x08094838     0x2714 ../../../../lib/32b/libtcpip.a(rripfdb.o)
                0x080959fc                ipFindOffStatic
                0x08096460                ipReplaceRoute
                0x08095c64                ipStaticRtOn
                0x08094a98                ip_rtdelete
                0x08095a04                ipAddStaticRoute
                0x080966b4                ipFindBestRoute
                0x08094bd0                ip_btnext
                0x0809638c                ipHasRoute
                0x08095f38                ipAddRouteM
                0x080964a8                ipReplaceRouteM
                0x08094e80                ip_getRteTableAddrs
                0x08094838                IrIpRtInit
                0x0809672c                ipFindBestRouteByOwner
                0x08095ea0                ipAddRoute
                0x08096c54                ipLocalIntf
                0x08095c38                ipDelStaticRouteLow
                0x08096d78                addRouteForNetos
                0x08094c1c                ip_btfirst
                0x08094c30                ip_rtver
                0x08095de4                ipDelRoute
                0x080963c8                ip_rtKey
                0x08095ef4                arpaddUnres
                0x08095b08                ipAddStaticRouteLow
                0x080959c8                ip_rtFree
                0x080967bc                ipRmapListFind
                0x08095c0c                ipDelStaticRoute
                0x08096778                ipFindNextHop
                0x080967c4                ipRedistCheck
                0x08096cb8                ipMcastOrBcast
                0x0809490c                ip_rtinsert
                0x08096334                ipFindRoute
                0x08095c68                ipStaticRtOff
                0x08096e7c                delRouteForNetos
                0x08096d34                ipRtArpDeref
                0x08095eec                arpfind
                0x0809592c                ip_rtAlloc
 .text          0x08096f4c      0x2ac ../../../../lib/32b/libtcpip.a(rripfwd.o)
                0x080970e0                ipGetRouteEntry
                0x08096f4c                IpGetNextHop
 .text          0x080971f8       0xe0 ../../../../lib/32b/libtcpip.a(rrrcirc.o)
                0x080971f8                rrLink
                0x08097220                rrGenLink
                0x080972ac                rrULink
 .text          0x080972d8      0x10c ../../../../lib/32b/libtcpip.a(rrtask.o)
                0x080972d8                send_2_router
 .text          0x080973e4      0x478 ../../../../lib/32b/libtcpip.a(res_init.o)
                0x080975c0                dns_rslv_add_name_server
                0x080973e4                res_init
                0x080977b4                dns_rslv_get_name_servers
                0x08097458                dns_rslv_set_search_list
                0x080976f8                dns_rslv_delete_name_server
                0x080974dc                dns_rslv_set_name_servers
                0x08097574                dns_rslv_set_ppp_name_servers
 .text          0x0809785c      0xbd0 ../../../../lib/32b/libtcpip.a(gethnama.o)
                0x08097f20                fns_gethostbyname
                0x080981e0                gethostbyaddr
                0x08098298                gethostbyaddr2
                0x08097e7c                gethostbyname1
                0x0809785c                dns_getanswer
                0x0809816c                fns_gethostbyaddr
                0x08097f84                gethostbyname
                0x08097f98                gethostbyname2
                0x080981f4                gethostbyaddr1
 .text          0x0809842c      0x59c ../../../../lib/32b/libtcpip.a(dnscache.o)
                0x080984e8                dns_rslv_delete_cache
                0x080987cc                dns_cache_address_lookup
                0x0809870c                dns_cache_name_lookup
                0x0809865c                dns_cache_timer
                0x080985a4                dns_rslv_flush_cache
                0x08098880                dns_cache_entry
                0x08098578                dns_rslv_disable_cache
                0x08098548                dns_rslv_enable_cache
                0x08098630                dns_rslv_unlock_cache
                0x08098600                dns_rslv_lock_cache
                0x0809842c                dns_rslv_init_cache
 .text          0x080989c8      0x5e0 ../../../../lib/32b/libtcpip.a(pppdev.o)
                0x08098c40                ppp_init
                0x08098bd4                do_ppp_up
                0x080989c8                ppp_session_init
                0x08098f6c                ppp_linkdown
                0x08098ddc                ppp_linkup
                0x08098e18                ppp_transmit_complete
                0x08098e84                ppp_session_linkdown
                0x08098d30                ppp_session_linkup
                0x08098d0c                ppp_updown
                0x08098c54                ppp_session_updown
 .text          0x08098fa8      0x5f4 ../../../../lib/32b/libtcpip.a(pppfsm.o)
                0x08099318                ppptld
                0x08099424                pppscr
                0x08098fa8                ppp_lcp_get_transition
                0x080993d4                pppircc
                0x080993f4                pppckp
                0x08099008                ppp_fsm_input_event
                0x08099584                pppser
                0x08099124                ppp_fsm_process_events
                0x080993f8                pppzrc
                0x080992d4                ppptlu
                0x080994a8                pppscn
                0x0809933c                ppptls
                0x08099360                ppptlf
                0x080993b8                pppirct
                0x08098fcc                ppp_ipcp_get_transition
                0x0809952c                pppsta
                0x080994d0                pppstr
                0x08098ff0                ppp_lcp_get_actions
                0x08099558                pppscj
                0x08099384                pppircboth
                0x08098ffc                ppp_ipcp_get_actions
                0x08099480                pppsca
 .text          0x0809959c     0x1538 ../../../../lib/32b/libtcpip.a(pppipcp.o)
                0x0809a7d4                ipcp_parse_nakrej
                0x08099a74                ppp_ipcp_tlu
                0x08099f04                ppp_ipcp_sca
                0x080996e0                ppp_ipcp_get_options
                0x0809a0c0                PppTerIpcpTimeout
                0x080995d0                ipcp_set_peer_addr
                0x080995ec                ppp_ipcp_set_peer_addr
                0x0809971c                ppp_ipcp_get_addresses
                0x0809a05c                ppp_ipcp_scj
                0x0809a06c                PppCfgIpcpTimeout
                0x08099a60                ppp_ipcp_tls
                0x08099bcc                ppp_ipcp_tld
                0x08099f40                ppp_ipcp_scn
                0x08099814                ppp_ipcp_set_nameservers
                0x08099618                ipcp_set_options
                0x08099c90                ppp_ipcp_scr
                0x08099870                ppp_ipcp_init
                0x0809a04c                ppp_ipcp_sta
                0x0809959c                ppp_ipcp_is_open
                0x08099c80                ppp_ipcp_tlf
                0x0809a110                ipcp_parse_cfg
                0x08099f5c                ppp_ipcp_str
                0x080996b4                ppp_ipcp_set_options
                0x0809aa58                ipcp_respond
                0x080997b0                ppp_ipcp_get_nameservers
 .text          0x0809aad4     0x1a8c ../../../../lib/32b/libtcpip.a(ppplcp.o)
                0x0809b198                ppp_lcp_tld
                0x0809aba0                ppp_lcp_set_async_map
                0x0809b778                ppp_lcp_scj
                0x0809c43c                lcp_respond
                0x0809b7d0                PppCfgLcpTimeout
                0x0809b678                ppp_lcp_str
                0x0809b768                ppp_lcp_sta
                0x0809c12c                lcp_parse_nakrej
                0x0809aad4                ppp_set_server_mode
                0x0809b78c                ppp_lcp_ser
                0x0809b65c                ppp_lcp_scn
                0x0809b8a8                ppp_persist_timeout
                0x0809b260                ppp_lcp_tlf
                0x0809b640                ppp_lcp_sca
                0x0809b874                ppp_start_timeout
                0x0809ab24                ppp_lcp_is_closed
                0x0809afcc                ppp_lcp_tls
                0x0809ab60                ppp_lcp_set_mru
                0x0809abdc                lcp_set_options
                0x0809b2e4                ppp_lcp_scr
                0x0809b824                PppTerLcpTimeout
                0x0809ad10                ppp_lcp_init
                0x0809b8f0                ppp_echo_timeout
                0x0809acd4                ppp_lcp_get_options
                0x0809afe0                ppp_lcp_tlu
                0x0809ba7c                lcp_parse_cfg
                0x0809aca8                ppp_lcp_set_options
 .text          0x0809c560      0x9b8 ../../../../lib/32b/libtcpip.a(ppppap.o)
                0x0809c9e4                ppp_pap_stm
                0x0809cee8                ppp_pap_get_actions
                0x0809cacc                ppp_pap_peer_auth_timeout
                0x0809c710                ppp_pap_scr
                0x0809cef4                ppp_pap_get_transition
                0x0809c6f8                ppp_pap_tlf
                0x0809cb38                ppp_pap_tls
                0x0809c670                ppp_pap_apc
                0x0809c6cc                ppp_pap_tld
                0x0809c9c4                ppp_pap_irc
                0x0809c92c                ppp_pap_scn
                0x0809ca60                ppp_pap_auth_peer_timeout
                0x0809cd24                ppp_pap_sar
                0x0809ca14                ppp_pap_htm
                0x0809cbcc                pap_validate_peer
                0x0809c560                ppp_pap_recv
                0x0809c894                ppp_pap_sca
                0x0809ca2c                ppp_pap_trm
                0x0809c614                ppp_pap_pac
 .text          0x0809cf18      0x314 ../../../../lib/32b/libtcpip.a(pppsend.o)
                0x0809d164                ppp_start
                0x0809d184                ppp_local_start
                0x0809d1ac                auth_respond
                0x0809cf6c                ppp_scomm
                0x0809cfdc                ppp_bstart
 .text          0x0809d22c       0x14 ../../../../lib/32b/libtcpip.a(pppsess.o)
                0x0809d230                ppp_set_event_callback
                0x0809d22c                ppp_ncp_is_finished
 .text          0x0809d240      0x360 ../../../../lib/32b/libtcpip.a(ppputil.o)
                0x0809d2e8                pppgetoption
                0x0809d454                pppsetoption
                0x0809d574                psp_from_devname
                0x0809d528                pppsetnetoption
                0x0809d3d4                pppgetnetoption
                0x0809d2a4                ppptryfcs
                0x0809d240                pppfcsset
 .text          0x0809d5a0      0x810 ../../../../lib/32b/libtcpip.a(pppauth.o)
                0x0809ddac                ppp_auth_server_init
                0x0809d5a0                ppp_auth_add_user
                0x0809db20                ppp_auth_peer_lookup
                0x0809d890                ppp_auth_init_address_pool
                0x0809da20                ppp_auth_fail
                0x0809dbc4                ppp_auth_login_peer
                0x0809d7f8                ppp_auth_del_user
                0x0809d914                ppp_auth_register_callback
                0x0809dc3c                ppp_auth_logout_peer
                0x0809dd5c                assign_peer_ipaddr
                0x0809d928                ppp_auth_success
 .text          0x0809ddb0      0x28c ../../../../lib/32b/libtcpip.a(pppuapi.o)
                0x0809df7c                ppp_install_driver
                0x0809ddf8                fns_ppp_register_driver
                0x0809ddb0                ppp_register_driver
 .text          0x0809e03c      0xf98 ../../../../lib/32b/libtcpip.a(dhcpapi.o)
                0x0809eaa4                fns_dhcpc_discover
                0x0809e510                fns_dhcp_client
                0x0809e46c                fns_dhcp_client_reboot
                0x0809e4f8                dhcp_callback
                0x0809e5d4                fns_dhcp_client_register_callback
                0x0809e760                fns_dhcp_client_get_next_option
                0x0809e6fc                fns_dhcp_client_get_option
                0x0809e7bc                fns_dhcp_client_delete
                0x0809ef7c                fns_dhcpc_find_option
                0x0809e4b4                fns_dhcp_client_configure
                0x0809ebe8                fns_dhcpc_inform
                0x0809efc0                fns_dhcpc_find_nth_item
                0x0809ee98                fns_dhcpc_release
                0x0809e03c                fns_dhcp_client_initialize
                0x0809eb48                fns_dhcpc_reuse
                0x0809ec84                fns_dhcpc_resume
                0x0809e660                fns_dhcp_client_delete_callback
                0x0809ef1c                fns_dhcpc_stop
 .text          0x0809efd4      0x460 ../../../../lib/32b/libtcpip.a(dhcparp.o)
                0x0809f284                DHCP_WaitForArp
                0x0809f3ec                sendArpReply
                0x0809efd4                setupSendArp
                0x0809f314                DHCP_arp_check
                0x0809f394                arpCheck
 .text          0x0809f434      0x40c ../../../../lib/32b/libtcpip.a(options.o)
                0x0809f434                dhcpc_find_option
                0x0809f4ec                parseDhcpMsg
 .text          0x0809f840     0x2074 ../../../../lib/32b/libtcpip.a(client.o)
                0x080a0e68                mkDhcpInformMsg
                0x0809f840                DHCP_Timer
                0x080a15f4                setupIfInfo
                0x0809fd38                DHCP_Rebooting_4
                0x0809fd50                DHCP_Rebooting_5
                0x080a0270                DHCP_Renewing_1
                0x080a05bc                DHCP_Inform
                0x080a18a4                dhcp_GetTime
                0x080a0058                DHCP_Requesting_2
                0x080a0558                DHCP_Rebinding_4
                0x080a0194                DHCP_Bound_1
                0x080a00c0                DHCP_Requesting_4
                0x080a1708                getNextTimeout
                0x080a0684                DHCP_Informing
                0x080a0710                DHCP_Informing_2
                0x0809ff24                DHCP_Selecting_2
                0x080a050c                DHCP_Rebinding_3
                0x080a0118                DHCP_Bound
                0x080a01ac                DHCP_Renewing
                0x080a188c                DHCP_Terminated
                0x080a02f4                DHCP_Renewing_2
                0x0809f8b0                DHCP_StateMachine
                0x080a1060                mkDhcpDeclineMsg
                0x080a1798                SetupDelay
                0x0809f98c                DHCP_InitReboot
                0x080a1370                setDhcpInfo
                0x080a0100                DHCP_Requesting_5
                0x0809fce8                DHCP_Rebooting_3
                0x0809fac8                DHCP_Init
                0x080a06cc                DHCP_Informing_1
                0x080a1804                DHCP_Delay
                0x080a0448                DHCP_Rebinding_1
                0x080a0384                DHCP_Rebinding
                0x0809fb1c                DHCP_Init_1
                0x0809fc2c                DHCP_Rebooting_1
                0x080a04e0                DHCP_Rebinding_2
                0x0809fbd4                DHCP_Rebooting
                0x080a00a8                DHCP_Requesting_3
                0x080a032c                DHCP_Renewing_3
                0x0809fd90                DHCP_Rebooting_6
                0x0809fda8                DHCP_Selecting
                0x080a1648                initHost
                0x080a1194                sendDhcpDecline
                0x0809f9dc                DHCP_InitReboot_1
                0x0809fdf0                DHCP_Selecting_1
                0x080a07a8                mkDhcpDiscoverMsg
                0x080a0aa0                mkDhcpRequestMsg
                0x0809ffc0                DHCP_Requesting_1
                0x0809fc78                DHCP_Rebooting_2
                0x0809ff68                DHCP_Requesting
                0x080a1758                dhcpMsgInit
 .text          0x080a18b4     0x1098 ../../../../lib/32b/libtcpip.a(pppapi.o)
                0x080a1d68                PPPDeviceSetAuth
                0x080a2384                PPPSetModemDialStr
                0x080a18b4                ppp_direct_in
                0x080a23f0                PPPSetModemAutoAnswer
                0x080a22c4                PPPGetPeerAssignedAddress
                0x080a1cb4                NAPPPAddUser
                0x080a2238                PPPAddRoute
                0x080a1ce0                PPPSetPeerAddr
                0x080a27a0                PPPSerialInit
                0x080a290c                netosCreatePPPSemaphores
                0x080a1c90                PPPAddUser
                0x080a1cc0                PPPDelUser
                0x080a196c                findMyLineByPppDeviceName
                0x080a2738                PPPCreateDevice
                0x080a2148                PPPCheckLink
                0x080a237c                PPPSetModemDialString
                0x080a24e0                PPPModemInit
                0x080a2608                PPPModemClose
                0x080a1f04                PPPSetAuth
                0x080a21c0                PPPSetVJ
                0x080a22a4                PPPDelRoute
                0x080a2868                PPPSerialClose
                0x080a2320                PPPGetPeerAddress
                0x080a1f5c                PPPSetAuthentication
 .text          0x080a294c      0xf74 ../../../../lib/32b/libtcpip.a(modem.o)
                0x080a2d84                modem_gets
                0x080a3750                cb_full
                0x080a3084                modem_hangup
                0x080a3794                cb_reset
                0x080a3814                cb_remove
                0x080a35bc                modem_write
                0x080a37ac                cb_add
                0x080a2c04                modem_init
                0x080a370c                cb_empty
                0x080a2fd4                dial
                0x080a3698                modem_reset
                0x080a29d0                serial_write
                0x080a2ea0                modem_cmd
                0x080a36d0                modem_close
                0x080a35f4                modem_connect
                0x080a3884                cb_get_char
                0x080a294c                serial_init
                0x080a2d14                modem_getc
                0x080a2b70                modem_state
                0x080a30d0                dial_check
                0x080a295c                serial_updown
                0x080a2a74                modemDialCheckThread
                0x080a387c                cb_nbuffer
 .text          0x080a38c0      0x1dc ../../../../lib/32b/libtcpip.a(uart_bpool.o)
                0x080a396c                uart_bpool_add
                0x080a3a3c                uart_bpool_put_buffer
                0x080a3934                uart_bpool_check_full
                0x080a3948                uart_bpool_reset
                0x080a39dc                uart_bpool_get_buffer
                0x080a399c                uart_bpool_remove
                0x080a38c0                uart_bpool_init
                0x080a39d4                uart_bpool_get_count
                0x080a3920                uart_bpool_check_empty
 .text          0x080a3a9c      0x53c ../../../../lib/32b/libtcpip.a(osdep.o)
                0x080a3ad0                os_panic
                0x080a3a9c                os_warn
                0x080a3da0                os_critical
                0x080a3b04                oc_sum
                0x080a3e38                os_normal
                0x080a3ccc                os_wakeup
                0x080a3b28                running_oc_sum
                0x080a3f0c                osdep_init
                0x080a3b58                os_hinit
                0x080a3ba0                os_sleep
 .text          0x080a3fd8      0x1c4 ../../../../lib/32b/libtcpip.a(bdoptlib.o)
                0x080a4188                bdopt_get_nth_item
                0x080a3fd8                bdopt_check_option_overflow
                0x080a4034                bdopt_get_option
 .text          0x080a419c      0x5cc ../../../../lib/32b/libtcpip.a(bootpapi.o)
                0x080a4698                fns_bootpc_stop
                0x080a44e4                fns_bootp_client
                0x080a419c                fns_bootp_client_initialize
                0x080a4558                fns_bootpc_start
                0x080a44d0                bootp_client_callback
                0x080a4754                fns_bootpc_find_nth_item
                0x080a43f4                fns_bootp_client_configure
                0x080a4714                fns_bootpc_find_option
 .text          0x080a4768      0x2c4 ../../../../lib/32b/libtcpip.a(udpxmit.o)
                0x080a4768                udp_dink
                0x080a4998                udp_xmit
                0x080a4864                udp_send
 .text          0x080a4a2c     0x1a34 ../../../../lib/32b/libtcpip.a(arp.o)
                0x080a5e84                fns_rarp_stop_client
                0x080a61e0                arp_del_multi_from_list
                0x080a5d44                fns_rarp_ask
                0x080a630c                arp_multi_add
                0x080a4af4                arp_build_request
                0x080a60cc                arp_add_multi_to_list
                0x080a578c                clear_rarp_wait
                0x080a57ac                rarp_ask
                0x080a54e0                arp_reply
                0x080a50b4                arp_up
                0x080a63b8                arp_multi_del
                0x080a4d4c                arp_init
                0x080a4f5c                _arp_resolve
 .text          0x080a6460      0x140 ../../../../lib/32b/libtcpip.a(bind.o)
                0x080a6460                fns_bind
 .text          0x080a65a0       0x60 ../../../../lib/32b/libtcpip.a(connect.o)
                0x080a65a0                fns_connect
 .text          0x080a6600      0x5ec ../../../../lib/32b/libtcpip.a(enet.o)
                0x080a68e8                en_up
                0x080a6600                en_scomm
 .text          0x080a6bec      0x30c ../../../../lib/32b/libtcpip.a(frk.o)
                0x080a6d10                fr_dup
                0x080a6cc8                type_2_af
                0x080a6bec                fr_ddown
                0x080a6dd0                fr_send
                0x080a6c88                af_2_type
                0x080a6e20                fr_up
 .text          0x080a6ef8      0x444 ../../../../lib/32b/libtcpip.a(frklk.o)
                0x080a6ef8                fr_in
                0x080a7024                fr_qin
                0x080a71f0                fr_unsafe
                0x080a6fd4                fr_multi
                0x080a6f90                fr_linit
 .text          0x080a733c      0x4c4 ../../../../lib/32b/libtcpip.a(fselect.o)
                0x080a733c                fns_select
 .text          0x080a7800       0x64 ../../../../lib/32b/libtcpip.a(getpeern.o)
                0x080a7800                fns_getpeername
 .text          0x080a7864       0x64 ../../../../lib/32b/libtcpip.a(getsockn.o)
                0x080a7864                fns_getsockname
 .text          0x080a78c8      0x1d0 ../../../../lib/32b/libtcpip.a(inet_add.o)
                0x080a78c8                fns_inet_addr
                0x080a78f0                fns_inet_aton
 .text          0x080a7a98       0x3c ../../../../lib/32b/libtcpip.a(ip.o)
                0x080a7a98                ipinit
 .text          0x080a7ad4       0x8c ../../../../lib/32b/libtcpip.a(lbdev.o)
                0x080a7ad4                loopback_driver_init
                0x080a7af8                loopback_driver_send
                0x080a7ae8                loopback_driver_updown
                0x080a7af0                loopback_driver_ioctl
                0x080a7b04                loopback_driver_start
 .text          0x080a7b60      0x190 ../../../../lib/32b/libtcpip.a(link.o)
                0x080a7c08                lk_close
                0x080a7b60                lk_bind
                0x080a7c28                lk_recv
                0x080a7c78                lk_send
 .text          0x080a7cf0       0x58 ../../../../lib/32b/libtcpip.a(listen.o)
                0x080a7cf0                fns_listen
 .text          0x080a7d48       0x5c ../../../../lib/32b/libtcpip.a(node.o)
                0x080a7d64                os_nselect
                0x080a7d48                os_notify
 .text          0x080a7da4      0x2d4 ../../../../lib/32b/libtcpip.a(nselect.o)
                0x080a7f08                uselect
                0x080a7f68                _inselect
                0x080a7da4                fns_nselect
 .text          0x080a8078       0xb4 ../../../../lib/32b/libtcpip.a(pioctl.o)
                0x080a80e0                fns_sockatmark
                0x080a8078                fns_pioctl
 .text          0x080a812c       0x28 ../../../../lib/32b/libtcpip.a(recv.o)
                0x080a812c                fns_recv
 .text          0x080a8154      0x230 ../../../../lib/32b/libtcpip.a(recvfrom.o)
                0x080a8154                fns_recvfrom
 .text          0x080a8384       0xb0 ../../../../lib/32b/libtcpip.a(send.o)
                0x080a8384                fns_send
 .text          0x080a8434      0x120 ../../../../lib/32b/libtcpip.a(sendto.o)
                0x080a8434                fns_sendto
 .text          0x080a8554       0x50 ../../../../lib/32b/libtcpip.a(shutdown.o)
                0x080a8554                fns_shutdown
 .text          0x080a85a4      0x4c4 ../../../../lib/32b/libtcpip.a(sob.o)
                0x080a85a4                so_rbcomm
                0x080a86a8                so_sbcomm
 .text          0x080a8a68      0x1cc ../../../../lib/32b/libtcpip.a(socket.o)
                0x080a8c0c                fns_close
                0x080a8a68                fns_socket
 .text          0x080a8c34      0x118 ../../../../lib/32b/libtcpip.a(accept.o)
                0x080a8c34                fns_accept
 .text          0x080a8d4c      0x12c ../../../../lib/32b/libtcpip.a(tcpperf.o)
                0x080a8d4c                tcp_perftimer
 .text          0x080a8e78      0x458 ../../../../lib/32b/libtcpip.a(ndq.o)
                0x080a8e78                ndq_restart
                0x080a917c                ndq_start
                0x080a9090                ndq_smoke
 .text          0x080a92d0       0x8c ../../../../lib/32b/libtcpip.a(strcmpi.o)
                0x080a92d0                fns_strcmpi
 .text          0x080a935c      0x134 ../../../../lib/32b/libtcpip.a(inet_pto.o)
                0x080a935c                inet_pton
 .text          0x080a9490      0x63c ../../../../lib/32b/libtcpip.a(res_comp.o)
                0x080a9918                __res_hnok
                0x080a9774                __dn_skipname
                0x080a99ec                __res_ownok
                0x080a9a14                __res_mailok
                0x080a9a94                __res_dnok
                0x080a9490                dn_expand
                0x080a95c8                dn_comp
 .text          0x080a9acc      0x5a0 ../../../../lib/32b/libtcpip.a(res_quer.o)
                0x080a9c38                res_search
                0x080a9f48                res_querydomain
                0x080a9acc                res_query
                0x080aa064                __hostalias
 .text          0x080aa06c      0x8ec ../../../../lib/32b/libtcpip.a(res_send.o)
                0x080aa06c                __res_nameinquery
                0x080aa13c                __res_queriesmatch
                0x080aa214                res_send
 .text          0x080aa958     0x10e0 ../../../../lib/32b/libtcpip.a(vjcomp.o)
                0x080ab958                sl_compress_init
                0x080aa958                is_tcpip
                0x080ab300                sl_uncompress_tcp
                0x080aaa34                fns_uncompress
                0x080aaaac                sl_compress_tcp
                0x080ab9c8                OVBCOPY
                0x080aa988                fns_compress
 .text          0x080aba38      0x494 ../../../../lib/32b/libtcpip.a(pppbs.o)
                0x080aba84                ppp_stuff
                0x080aba38                ppp_rbuildmap
                0x080abc14                ppp_onechar_input
                0x080aba58                ppp_tbuildmap
 .text          0x080abecc      0xcac ../../../../lib/32b/libtcpip.a(pppchap.o)
                0x080ac9ec                ppp_chap_ap_get_transition
                0x080ac810                ppp_chap_rau
                0x080ac070                ppp_chap_tlu
                0x080aca10                ppp_chap_pa_get_transition
                0x080ac3f0                ppp_chap_sap
                0x080ac1b8                ppp_chap_srt
                0x080ac47c                ppp_chap_saf
                0x080ac9e0                ppp_chap_pa_get_actions
                0x080ac13c                ppp_chap_tld
                0x080abfdc                ppp_chap_tls
                0x080ac234                ppp_chap_sch
                0x080acb1c                ppp_chap_get_chall_value
                0x080ac1a0                ppp_chap_zrc
                0x080abecc                ppp_chap_set_rechall_int
                0x080abf04                ppp_chap_peer_auth_timeout
                0x080abf70                ppp_chap_auth_peer_timeout
                0x080ac168                ppp_chap_tlf
                0x080ac82c                ppp_chap_scr
                0x080ac180                ppp_chap_irc
                0x080ac9d4                ppp_chap_ap_get_actions
                0x080ac5f4                ppp_chap_validate_peer
                0x080aca34                ppp_chap_recv
                0x080ac500                ppp_chap_compute_hash
                0x080ac21c                ppp_chap_htm
                0x080ac1e8                ppp_chap_sct
 .text          0x080acb78      0x844 ../../../../lib/32b/libtcpip.a(ppprecv.o)
                0x080acb78                ppp_up
                0x080acc04                ppp_recv
 .text          0x080ad3bc      0x280 ../../../../lib/32b/libtcpip.a(ppp.o)
                0x080ad580                ppp_set_max_restarts
                0x080ad3bc                ppp_auth_infoset
                0x080ad5f4                ppp_set_restart_interval
 .text          0x080ad63c      0x634 ../../../../lib/32b/libtcpip.a(socketif.o)
                0x080adb54                setWaitMsgType
                0x080ada8c                waitChkReXmitMsg
                0x080ad760                DhcpSendTo
                0x080adb6c                setup_rcvAndDiscardDhcpMsg
                0x080ad858                setup_rcvAndCheckDhcpMsg
                0x080adba0                rcvAndDiscardDhcpMsg
                0x080adc50                flushRcvDhcpMsgs
                0x080ad63c                setSockAddrIn
                0x080ad8e8                rcvAndCheckDhcpMsg
                0x080ada2c                setup_waitChkReXmitMsg
                0x080ad67c                DhcpOpenSocket
                0x080ad730                DhcpCloseSocket
 .text          0x080adc70      0x104 ../../../../lib/32b/libtcpip.a(if.o)
                0x080adc70                ifReset
                0x080adce8                getNaturalMask
                0x080add34                getNaturalBcast
 .text          0x080add74      0x824 ../../../../lib/32b/libtcpip.a(uart.o)
                0x080adf3c                uart_clr_dtr
                0x080ae2d0                uart_write
                0x080adf8c                uart_set_dtr
                0x080add74                uart_init
                0x080ade74                uart_send_write_request
                0x080ae024                uart_close
                0x080adfdc                uart_DCD
                0x080ae070                uart_read
 .text          0x080ae598       0x90 ../../../../lib/32b/libtcpip.a(nullmdm.o)
                0x080ae5f0                direct_serial_write
                0x080ae5c4                direct_serial_hangup
                0x080ae598                direct_serial_connect
 .text          0x080ae628      0x7bc ../../../../lib/32b/libtcpip.a(bootp.o)
                0x080ae6a4                BOOTP_Init
                0x080ae9a4                BOOTP_Select
                0x080ae628                BOOTP_StateMachine
                0x080aeb98                BOOTP_Finish
                0x080ae85c                BOOTP_Send
 .text          0x080aede4      0x2bc ../../../../lib/32b/libtcpip.a(res_mkqu.o)
                0x080aede4                res_mkquery
 .text          0x080af0a0       0x40 ../../../../lib/32b/gnu/libc.a(assert.o)
                0x080af0a0                __assert
 .text          0x080af0e0       0x24 ../../../../lib/32b/gnu/libc.a(bzero.o)
                0x080af0e0                bzero
 .text          0x080af104       0x6c ../../../../lib/32b/gnu/libc.a(div.o)
                0x080af104                div
 .text          0x080af170       0x20 ../../../../lib/32b/gnu/libc.a(fiprintf.o)
                0x080af170                fiprintf
 .text          0x080af190       0x28 ../../../../lib/32b/gnu/libc.a(libcfunc.o)
                0x080af190                abort
                0x080af1b4                alarm
 .text          0x080af1b8       0x94 ../../../../lib/32b/gnu/libc.a(puts.o)
                0x080af1b8                _puts_r
                0x080af22c                puts
 .text          0x080af24c        0xc ../../../../lib/32b/gnu/libc.a(sysclose.o)
                0x080af24c                close
 .text          0x080af258        0xc ../../../../lib/32b/gnu/libc.a(sysread.o)
                0x080af258                read
 .text          0x080af264        0xc ../../../../lib/32b/gnu/libc.a(syswrite.o)
                0x080af264                write
 .text          0x080af270      0xf64 ../../../../lib/32b/gnu/libc.a(vfiprintf.o)
                0x080af360                vfiprintf
                0x080af3c8                _vfiprintf_r
 .text          0x080b01d4      0x100 ../../../../lib/32b/gnu/libc.a(wbuf.o)
                0x080b01d4                __swbuf
 .text          0x080b02d4       0xb0 /usr/lib/gcc-lib/arm-elf/3.2/be/libgcc.a(_divsi3.o)
                0x080b02d4                __divsi3
 .text          0x080b0384       0xd4 /usr/lib/gcc-lib/arm-elf/3.2/be/libgcc.a(_modsi3.o)
                0x080b0384                __modsi3
 .text          0x080b0458     0x1870 ../../../../lib/32b/librphttpd.a(RpForm.o)
                0x080b16cc                RpConvertDotFormString
                0x080b1888                RpConvertStringToSigned32
                0x080b09c0                RpSetFormObject
                0x080b0eb8                RpReceiveText
                0x080b0a04                RpReceiveItem
                0x080b0458                RpProcessForm
                0x080b1728                RpConvertStringToSigned8
                0x080b05f4                RpGetFormBufferPtr
                0x080b165c                RpConvertHexString
                0x080b0628                RpGetSubmitButtonValue
                0x080b1780                RpConvertStringToSigned16
                0x080b19d4                RpSetRedirect
                0x080b18e0                RpConvertStringToUnsigned32
                0x080b1a0c                RpGetCurrentUrl
                0x080b1998                RpSetNextPage
                0x080b17d8                RpConvertStringToUnsigned8
                0x080b1938                RpSetNextFilePage
                0x080b1830                RpConvertStringToUnsigned16
                0x080b1a48                RpFindItemFromName
 .text          0x080b1cc8     0x43a4 ../../../../lib/32b/librphttpd.a(RpHtml.o)
                0x080b3724                RpGetBytesPtr
                0x080b5fcc                RpExpandedMatch
                0x080b23ac                RpGetDynamicDisplayIndex
                0x080b2488                RpSendItem
                0x080b51fc                RpSendData
                0x080b1cf0                RpBuildHtmlPageReply
                0x080b55b8                RpSendDataOutZeroTerminated
                0x080b5b04                RpSendDataOutDecimalUnsigned
                0x080b1db0                RpBuildHtmlItemReply
 .text          0x080b606c      0x364 ../../../../lib/32b/librphttpd.a(RpQuery.o)
                0x080b6330                RpGetQueryIndexLevel
                0x080b6360                RpGetRepeatWhileValue
                0x080b606c                RpCheckQuery
                0x080b61b4                RpStoreQueryValues
                0x080b628c                RpPushQueryIndex
                0x080b6300                RpPopQueryIndex
 .text          0x080b63d0      0xa80 ../../../../lib/32b/librphttpd.a(hserv.o)
                0x080b6d4c                RpHSRemoteAddress
                0x080b6d94                RpGetConnectionInformation
                0x080b6874                RpHSBeginServer
                0x080b63f8                RpHSGetServerData
                0x080b63d0                HSInitServerData
                0x080b6bb8                NAHttpSetRealmSecurity
                0x080b692c                RpHSStartServer
                0x080b6418                RpHSDeleteUser
                0x080b6448                NAHSStartServer
                0x080b6a7c                RpHSSetRealm
                0x080b6d7c                HSStartServer
 .text          0x080b6e50     0x1c54 ../../../../lib/32b/librphttpd.a(RpHttp.o)
                0x080b7180                RpHandleCgiResponse
                0x080b8944                RpBuildHostName
                0x080b7448                RpBuildReply
                0x080b77dc                RpSendReplyBuffer
                0x080b89ac                RpBuildQueryValues
                0x080b6e50                RpInitRequestStates
                0x080b7b14                RpBuildHttpResponseHeader
                0x080b78b0                RpAnalyzeHttpRequest
                0x080b890c                RpSetConnectionClose
                0x080b70f8                RpHandleUserExit
 .text          0x080b8aa4      0x350 ../../../../lib/32b/librphttpd.a(RpFrmItm.o)
                0x080b8c9c                RpEscapeDecodeString
                0x080b8aa4                RpGetFormItem
 .text          0x080b8df4     0x35c0 ../../../../lib/32b/librphttpd.a(RmSmtp.o)
                0x080b9010                RmSmtpClientFiniteStateMachine
                0x080b8ef0                RmHandleTimers
                0x080bb0e4                RmBuildAddressPath
                0x080b8df4                RmStartSmtp
                0x080bb650                RmBuildSmtpContentType
                0x080bb880                RmBuildBoundaryStart
                0x080bb8f8                RmBuildBoundaryEnd
                0x080bbf68                RmAddImageToMessage
                0x080bc284                RmFreeSmtpRequestBlock
                0x080bbaac                RmStartSmtpResponse
 .text          0x080bc3b4      0xde8 ../../../../lib/32b/librphttpd.a(AsCommon.o)
                0x080bd0e8                RpWriteIpAddressInDotForm
                0x080bc808                RpConvertUnsigned32ToHex
                0x080bc6ec                RpCloseChunkedBuffer
                0x080bcd84                RpHexToNibble
                0x080bcc98                RpCatSigned32ToString
                0x080bcc38                RpBuildSeparator
                0x080bc560                RpSendDataOutExtendedAscii
                0x080bc3b4                RpInitializeHtmlPageReply
                0x080bcf68                RpStrLenCpy
                0x080bd008                RpBuildIpAddressHostName
                0x080bc99c                RpCatUnsigned32ToString
                0x080bccf4                RpConvertSigned32ToAscii
                0x080bcfb8                RpStrLenCpyTruncate
                0x080bcaa8                RpGetRemoteIpAddress
                0x080bce44                RpHexToString
                0x080bc624                RpSetupChunkedBuffer
                0x080bc428                RpFlipResponseBuffers
                0x080bcad0                RpConvertUnsigned32ToAscii
 .text          0x080bd19c      0x60c ../../../../lib/32b/librphttpd.a(AsDate.o)
                0x080bd3e0                RpBuildDateString
                0x080bd264                RpGetDateInSeconds
                0x080bd1ec                RpGetMonthDayYearInSeconds
                0x080bd19c                RpGetSysTimeInSeconds
 .text          0x080bd7a8     0x1a18 ../../../../lib/32b/librphttpd.a(AsMain.o)
                0x080bd888                AllegroTaskInitMemory
                0x080bf074                RpConnectionCloseTcp
                0x080bf138                RpHandleSendReceiveError
                0x080bdb98                AllegroTaskInitPort
                0x080bf010                RpConnectionAbortTcp
                0x080beca4                RpFreeRequestControlBlock
                0x080bde34                AllegroTaskDeInit
                0x080bee44                RpConnectionCheckTcpClose
                0x080bdf7c                AllegroMainTask
                0x080bed7c                RpConnectionReceiveTcp
                0x080bdc58                AllegroTaskInitStart
                0x080bd7a8                AllegroTaskInit
 .text          0x080bf1c0      0x2c0 ../../../../lib/32b/librphttpd.a(AsMimes.o)
                0x080bf1c0                RpStringToMimeType
                0x080bf418                RpConvertMimeTypeToFileExtension
                0x080bf240                RpConvertFileExtensionToMimeType
 .text          0x080bf480      0xc20 ../../../../lib/32b/librphttpd.a(AsParse.o)
                0x080bf7c0                RpParseDate
                0x080bf4f4                RpFindTokenDelimitedPtr
                0x080bfb84                RpParseReplyBuffer
                0x080c0008                RpFindCookieEnd
                0x080bf644                RpFindLineEnd
                0x080bff58                RpFindValueStart
                0x080bf6ac                RpFindTokenEnd
                0x080bf5c4                RpConvertTokenToLowerCase
                0x080bfecc                RpFindValueLength
                0x080bf754                RpFindTokenStart
                0x080bf568                RpConvertHeaderToLowerCase
                0x080bf480                RpFindTokenDelimited
 .text          0x080c00a0      0x8ac ../../../../lib/32b/librphttpd.a(AsBase64.o)
                0x080c040c                RpSendDataOutBase64
                0x080c00a0                RpDecodeBase64Data
                0x080c0650                RpSendOutBase64Padding
 .text          0x080c094c      0xda4 ../../../../lib/32b/librphttpd.a(AsConvrt.o)
                0x080c120c                AsSendDataOutDotForm
                0x080c094c                AsDotFormStrToHex
                0x080c1134                AsSetupChunkedBuffer
                0x080c12e0                AsSendDataOutHex
                0x080c0ff4                AsStrToUnsigned32
                0x080c0e04                AsStrToSigned32
                0x080c114c                AsCloseChunkedBuffer
                0x080c1548                AsFlipResponseBuffers
                0x080c1494                AsInitializeResponse
                0x080c1164                AsSendDataOutDecimalSigned
                0x080c0aac                AsStrToHex
                0x080c0c84                AsStrToSigned8
                0x080c0d40                AsStrToSigned16
                0x080c1644                AsSendDataOutDecimalUnsigned
                0x080c0efc                AsStrToUnsigned8
                0x080c0f74                AsStrToUnsigned16
 .text          0x080c16f0     0x1564 ../../../../lib/32b/librphttpd.a(AsVarAcc.o)
                0x080c2b30                AsPushVariableIndex
                0x080c16f0                AsSetVarAccessItemList
                0x080c17e4                AsSetItemValue
                0x080c18a8                AsReceiveText
                0x080c1fc8                AsGetItemValue
                0x080c2ba4                AsPopVariableIndex
                0x080c2c24                AsGetVariableIndexLevel
                0x080c20ec                AsExpandString
 .text          0x080c2c54       0xf8 ../../../../lib/32b/librphttpd.a(AsCustom.o)
                0x080c2c90                mawGetPassword
                0x080c2c54                mawGetUsername
                0x080c2d0c                AsStoreCustomItem
                0x080c2ccc                AsRetrieveCustomItem
 .text          0x080c2d4c     0x2824 ../../../../lib/32b/librphttpd.a(Sfil.o)
                0x080c2f50                NAFileSystem_Register
                0x080c5070                SfsWriteFile
                0x080c3f6c                SfsOpenFileSystem
                0x080c2eb4                NAFileSystem_Init
                0x080c2f08                NAFileSystem_DeInit
                0x080c354c                NAFileSystem_ReadFile
                0x080c4c28                SfsCloseStatus
                0x080c4348                SfsOpenStatus
                0x080c41d4                SfsOpenFile
                0x080c4ef4                SfsReadStatus
                0x080c414c                SfsCloseFileSystem
                0x080c3bec                NADeleteFileByName
                0x080c3308                NAFileSystem_CreateFile
                0x080c51bc                SfsWriteStatus
                0x080c3e78                NAFindFileByNumber
                0x080c36f0                NAFileSystem_WriteFile
                0x080c44e8                SfsCreateFile
                0x080c34c4                NAFileSystem_CreateStatus
                0x080c3258                NAFileSystem_OpenStatus
                0x080c3a7c                NAFindFileNumberByName
                0x080c4968                SfsCreateStatus
                0x080c3190                NAFileSystem_OpenFile
                0x080c3de0                NAFindAnOpenSpot
                0x080c4da8                SfsReadFile
                0x080c5338                SfsSetFilePosition
                0x080c3958                NAFileSystem_CloseStatus
                0x080c3788                NAFileSystem_WriteStatus
                0x080c3074                NAFileSystem_DeRegister
                0x080c4aa8                SfsCloseFile
                0x080c35e4                NAFileSystem_ReadStatus
                0x080c47a4                SfsCreateEmailFile
                0x080c544c                SfsSetFilePositionStatus
                0x080c38dc                NAFileSystem_CloseFile
 .text          0x080c5570     0x1fc8 ../../../../lib/32b/librphttpd.a(STCP.o)
                0x080c5b50                StcpInit
                0x080c6d9c                StcpCloseStatus
                0x080c639c                StcpSend
                0x080c5f6c                StcpConnectionStatus
                0x080c5f00                StcpOpenPassive
                0x080c6864                StcpReceive
                0x080c563c                HTTPMainThread
                0x080c5590                getTheMaxNumberOfHttpConnections
                0x080c7330                StcpOpenSocket
                0x080c5570                getTheAllegroTaskDataPtr
                0x080c5d6c                StcpDeInit
                0x080c750c                StcpSetServerPortNumbers
                0x080c6c7c                StcpCloseConnection
                0x080c6e28                StcpOpenActive
                0x080c7014                StcpActiveConnectionStatus
                0x080c55b0                CheckSocketStatus
                0x080c6dd0                StcpAbortConnection
                0x080c6648                StcpSendStatus
                0x080c691c                StcpReceiveStatus
 .text          0x080c7538     0x2d3c ../../../../lib/32b/librphttpd.a(RpAccess.o)
                0x080c7890                RpCheckPasswordTimers
                0x080c8610                RpResetUserSession
                0x080c9a40                GetEmptyNonce
                0x080c86c4                RpSetServerPasswordTimeout
                0x080c89f8                RpSetUserAttributes
                0x080c7ce8                RpGenerateNonce
                0x080c8d0c                RpCheckAuthorization
                0x080c83cc                RpSetSecurityLevel
                0x080ca1d0                NASetRealmChallenge
                0x080c8424                RpGetLeastSecureRealm
                0x080c8e98                RpStartUserSession
                0x080c884c                RpGetPasswordCookie
                0x080c88a4                RpSetPasswordCookie
                0x080c8298                RpSetRealmLocking
                0x080c7958                RpCheckAccess2
                0x080c84fc                RpCheckSession
                0x080c87dc                RpGetCurrentUserName
                0x080c7a70                RpHandleExternalSecurity
                0x080ca124                RpDeleteCurrentUser
                0x080c864c                RpSetCurrentSessionCloseFunction
                0x080c8378                RpGetSecurityLevel
                0x080c7564                RpCheckAccess
                0x080c85b4                RpResetCurrentSession
                0x080c88f0                RpGetUserAttributes
                0x080c8320                RpSetRealmName
                0x080c86f8                RpDeleteUser
                0x080c82d0                RpGetRealmName
                0x080c7538                setupsingleaccess
 .text          0x080ca274      0x2d4 ../../../../lib/32b/librphttpd.a(RpData.o)
                0x080ca4a8                RpGetConversionErrorCode
                0x080ca4e8                RpSetUserErrorMessage
 .text          0x080ca548      0x1d4 ../../../../lib/32b/librphttpd.a(RpHttpDy.o)
                0x080ca6a0                RpSetRefreshTime
                0x080ca548                RpBuildRefresh
                0x080ca6e0                RpSetRefreshPage
 .text          0x080ca71c       0xb4 ../../../../lib/32b/librphttpd.a(RpUser.o)
                0x080ca71c                RpInitializeBox
 .text          0x080ca7d0     0x13fc ../../../../lib/32b/librphttpd.a(mcfil.o)
                0x080cb09c                MC_SfsCloseStatus
                0x080cb75c                MC_SfsSetFilePositionStatus
                0x080caf24                MC_SfsCreateStatus
                0x080cb8d8                SfsReadFileMC
                0x080cb264                MC_SfsReadStatus
                0x080caf84                MC_SfsCloseFile
                0x080cb0fc                MC_SfsReadFile
                0x080ca904                MC_SfsDeleteFile
                0x080ca87c                MC_SfsCloseFileSystem
                0x080cb7bc                SfsCloseFileMC
                0x080ca7d0                MC_SfsOpenFileSystem
                0x080cb524                MC_SfsWriteStatus
                0x080cb3b8                MC_SfsWriteFile
                0x080cacb0                MC_SfsCreateFile
                0x080cb644                MC_SfsSetFilePosition
                0x080cba68                SfsWriteFileMC
                0x080ca9d8                MC_SfsOpenFile
                0x080cab90                MC_SfsOpenStatus
 .text          0x080cbbcc     0x1208 ../../../../lib/32b/librphttpd.a(RpHttpRq.o)
                0x080cca34                RpSetUrlState
                0x080cbbcc                RpHandleHttpAction
                0x080cc3c4                RpStartHttpResponse
                0x080cca74                RpGetChunkedData
                0x080cca00                RpGetUrlState
                0x080cc064                RpParseHttpHeaders
                0x080cc8b8                RpCheckUrlState
                0x080cc690                RpGetChunkedObjectData
                0x080cc490                RpGetObjectData
 .text          0x080ccdd4     0x1bd0 ../../../../lib/32b/librphttpd.a(RpHttpPs.o)
                0x080ce6dc                RpInitMpPatternTable
                0x080ce770                RpInitDispositionPatternTable
                0x080cd6f8                RpGetUserAgent
                0x080ccdd4                RpParseHeader
                0x080cdf98                RpProcessMpContentDisposition
                0x080ce01c                RpProcessMpContentType
                0x080ce530                RpInitAuthPatternTable
                0x080cd798                RpGetHostName
                0x080ce1c4                RpInitPatternTable
 .text          0x080ce9a4      0x7a4 ../../../../lib/32b/librphttpd.a(RpFile.o)
                0x080cef68                RpFileClose
                0x080cf0d4                RpSendFileInsertItemError
                0x080ce9a4                RpHandleFileStates
 .text          0x080cf148     0x1108 ../../../../lib/32b/librphttpd.a(RmMailer.o)
                0x080cfb90                RmSetExtraHeaders
                0x080d0020                RmSetMessageCookie
                0x080cf918                RmSetBccAddress
                0x080d013c                RmGetLastAddress
                0x080cf7c4                RmSetCcAddress
                0x080cfbd0                RmSetBodyBuffer
                0x080cfd54                RmQueueMessage
                0x080cf934                RmSetAttachment
                0x080cffc0                RmGetMessageCookie
                0x080cf2b4                RmSmtpDeInit
                0x080cfa80                RmSetSubject
                0x080cf788                RmSetReplyToAddress
                0x080cf634                RmSetToAddress
                0x080cf518                RmCreateMessage
                0x080d016c                RmSetSendCallback
                0x080cf398                RmSetMailGlobals
                0x080cfb2c                RmSetBodyFile
                0x080cf2cc                RmCaptureSmtpRequest
                0x080cff00                RmCancelMessage
                0x080d0084                RmSetProtocolTimeouts
                0x080cfac0                RmSetBodyObject
                0x080cf148                RmSmtpInit
                0x080d01dc                RmUnSetSendCallback
                0x080cfecc                RmGetMessageStatus
 .text          0x080d0250     0x4e7c ../../../../lib/32b/librphttpd.a(PrPop3.o)
                0x080d42f8                PrReleaseRequestBlock
                0x080d0658                PrCapturePop3Request
                0x080d0744                PrStartPop3
                0x080d0818                PrPop3ClientFiniteStateMachine
                0x080d3fb4                SendCommand
                0x080d0640                PrRomPopDeInit
                0x080d0250                PrRomPopInit
 .text          0x080d50cc      0xc8c ../../../../lib/32b/librphttpd.a(maw_main.o)
                0x080d511c                mawInstallErrorHandler
                0x080d5144                mawSetAccessTimeout
                0x080d50cc                mawInstallSubscriptsFunction
                0x080d50f4                mawInstallTimeoutFunction
                0x080d5c28                mawStoreCustomItem
                0x080d5ae4                mawRetrieveCustomItem
 .text          0x080d5d58     0x1c90 ../../../../lib/32b/librphttpd.a(AsMD5.o)
                0x080d5d58                RpMD5
 .text          0x080d79e8      0x300 ../../../../lib/32b/librphttpd.a(Spwd.o)
                0x080d7c74                SpwdHandleExternalUser
                0x080d7bfc                SpwdExternalAccessCode
                0x080d79e8                SpwdGetExternalPassword
                0x080d7c1c                SpwdSetExternalUser
                0x080d7bd0                SpwdIsExternalUserHandler
 .text          0x080d7ce8      0x608 ../../../../lib/32b/librphttpd.a(RpCallBk.o)
                0x080d7d3c                RpSetRequestUserPhraseDictionary
                0x080d7fec                RpSetCurrentConnection
                0x080d80f4                RpSetCookie
                0x080d8124                RpGetRequestCookie
                0x080d7dd4                RpSetRequestCloseFunction
                0x080d7f64                RpGetCurrentConnection
                0x080d7ef4                RpCompleteDelayedFunction
                0x080d8264                RpSetHttpCookie
                0x080d7e54                RpInitiateDelayedFunction
                0x080d8208                RpGetHttpCookie
                0x080d8190                RpSetRequestCookie
                0x080d80c8                RpGetCookie
                0x080d7ce8                RpSetUserPhraseDictionary
                0x080d7d9c                RpSetRomObjectList
 .text          0x080d82f0     0x1328 ../../../../lib/32b/librphttpd.a(RpMulti.o)
                0x080d8550                RpProcessMultipart
                0x080d82f0                RpGetFileUploadStatus
                0x080d8328                RpSetupFileUploadRequest
 .text          0x080d9618      0x710 ../../../../lib/32b/librphttpd.a(RpUrl.o)
                0x080d967c                RpFindUrl
                0x080d9c2c                RpFinishUrlSearch
                0x080d99a0                RpIdentifyObjectSource
                0x080d9618                RpFindHttpObject
                0x080d9a8c                RpSearchRomObjectList
 .text          0x080d9d28     0x14d4 ../../../../lib/32b/librphttpd.a(PrRomPop.o)
                0x080db044                PrSetRetrCallback
                0x080da64c                PrReadMessageToBuffer
                0x080da294                PrReadAllMessages
                0x080d9e4c                PrGetMailSummary
                0x080d9fa8                PrGetMailStatusList
                0x080da558                PrReadMessageTop
                0x080da1b8                PrReadMessage
                0x080db0b0                PrReadMessageToBufferWithHeader
                0x080da404                PrReadAllMessageHeaders
                0x080da8dc                PrDisconnect
                0x080d9d28                PrConnect
                0x080da050                PrGetMailStatusUidl
                0x080d9f00                PrGetMailStatus
                0x080db004                PrSetListflag
                0x080db07c                PrUnSetRetrCallback
                0x080da798                PrDeleteMessage
                0x080da864                PrUndeleteMessages
 .text          0x080db1fc      0xe84 ../../../../lib/32b/libsnmp.a(snmpvar.o)
                0x080dbfe8                isAscii
                0x080dbf10                scalar_handler
                0x080dbd90                compare_tree
                0x080db4b8                getMibVal
                0x080db298                mibGroupRegister
                0x080dbc98                compare
                0x080db244                removeAllMibGroups
                0x080db3ec                mibGroupUnregister
 .text          0x080dc080     0x17d4 ../../../../lib/32b/libsnmp.a(traps.o)
                0x080dc654                warmStartTrap
                0x080dd800                SNMPEnableTrapsSet
                0x080dc448                snmpTrapOIDOidSet
                0x080dc144                naSnmpSendTrap
                0x080dce54                snmp_generate_trap
                0x080dc834                authenticationFailureTrap
                0x080dc520                snmpTrapGet
                0x080dd4e4                naSnmpSetTrapAddress
                0x080dc498                snmpTrapEnterpriseOidGet
                0x080dc410                snmpTrapOIDOidGet
                0x080dc5ec                coldStartTrap
                0x080dd238                SNMPSetTrapsIpaddr
                0x080dc080                SNMPSendTrap
                0x080dc4d0                snmpTrapEnterpriseOidSet
                0x080dc778                linkupTrap
                0x080dc3a4                trapMibRegister
                0x080dc6bc                linkdownTrap
 .text          0x080dd854      0x79c ../../../../lib/32b/libsnmp.a(os_deps.o)
                0x080ddde0                set_addr_port
                0x080dde38                snmpSend
                0x080ddbc4                get_mib_uptime
                0x080ddc6c                snmpReceive
                0x080dd8c0                doSnmpTask
                0x080dded8                snmpOpenSocket
 .text          0x080ddff0      0x214 ../../../../lib/32b/libsnmp.a(man_dumb.o)
                0x080de0cc                snmpMissingField
                0x080ddff0                snmpGetVariableInfo
                0x080de08c                snmpGetFieldCode
                0x080de030                snmpGetVariableIdentifier
 .text          0x080de204      0xd80 ../../../../lib/32b/libsnmp.a(man_fld.o)
                0x080deca8                snmpFreeOctetStringBuffers
                0x080dea74                snmpAllocateFieldBuffer
                0x080de7bc                snmpSetField
                0x080deda0                snmpReadRow
                0x080de508                snmpExtractField
 .text          0x080def84     0x1540 ../../../../lib/32b/libsnmp.a(man_indx.o)
                0x080df200                snmpExtractIndices
                0x080dfebc                snmpEncodeIndices
                0x080def84                snmpFreeIndices
 .text          0x080e04c4      0x120 ../../../../lib/32b/libsnmp.a(man_irow.o)
                0x080e04c4                snmpInitRow
 .text          0x080e05e4       0xec ../../../../lib/32b/libsnmp.a(man_mem.o)
                0x080e0668                snmpFreeBuffersNow
                0x080e05e4                snmpFreeBufferLater
 .text          0x080e06d0      0x1a4 ../../../../lib/32b/libsnmp.a(snmp_port.o)
                0x080e081c                naSnmpGetTrapSendPortNumber
                0x080e075c                naSnmpSetTrapPortNumber
                0x080e0704                naSnmpGetPortNumber
                0x080e06d0                naSnmpSetPortNumber
                0x080e0790                naSnmpGetTrapPortNumber
                0x080e07e8                naSnmpSetTrapSendPortNumber
 .text          0x080e0874     0x23dc ../../../../lib/32b/libsnmp.a(snmp_ll.o)
                0x080e153c                asn_build_string
                0x080e2484                asn_parse_null
                0x080e1150                asn_build_unsigned_int
                0x080e2548                asn_build_null
                0x080e0f10                asn_build_int
                0x080e1778                asnBuildLength
                0x080e1408                asn_parse_string
                0x080e1908                asnBuildSequence
                0x080e09d8                asn_parse_int
                0x080e16e8                asn_build_header
                0x080e1c40                asn_parse_objid
                0x080e27b8                asn_parse_unsigned_int64
                0x080e1604                asn_parse_header
                0x080e0b98                asn_parse_unsigned_int
                0x080e19a0                asn_parse_length
                0x080e0874                asn_parse_int_short
                0x080e1ab8                asn_build_length
                0x080e26e4                asn_build_bitstring
                0x080e258c                asn_parse_bitstring
                0x080e0d54                asn_build_int_short
                0x080e29bc                asn_build_unsigned_int64
                0x080e1f00                asn_build_objid
 .text          0x080e2c50     0x1528 ../../../../lib/32b/libsnmp.a(snmp_var.o)
                0x080e2e84                snmpInTooBigsValGet
                0x080e32e0                snmpOutNoSuchNamesValGet
                0x080e3258                snmpInTrapsIncrement
                0x080e32ac                snmpOutTooBigsIncrement
                0x080e3bc8                snmpGroupSet
                0x080e3238                snmpInTrapsValGet
                0x080e30e8                snmpInGetRequestsValGet
                0x080e3088                snmpInTotalSetVarsValGet
                0x080e3624                snmpProxyDropsValGet
                0x080e3580                snmpEnableAuthenTrapsValGet
                0x080e3028                snmpInTotalReqVarsValGet
                0x080e35f0                snmpSilentDropsIncrement
                0x080e3484                snmpOutSetRequestsValGet
                0x080e3450                snmpOutGetNextsIncrement
                0x080e34f8                snmpOutGetResponsesIncrement
                0x080e328c                snmpOutTooBigsValGet
                0x080e315c                snmpInGetNextsIncrement
                0x080e354c                snmpOutTrapsIncrement
                0x080e3e08                snmpSetSerialNoGroupSet
                0x080e33a8                snmpOutGenErrsIncrement
                0x080e3108                snmpInGetRequestsIncrement
                0x080e2ce0                snmpOutPktsValGet
                0x080e2da8                snmpInBadCommunityNamesIncrement
                0x080e2c8c                snmpInPktsValGet
                0x080e2d00                snmpOutPktsIncrement
                0x080e2fa0                snmpInReadOnlysIncrement
                0x080e2ddc                snmpInBadCommunityUsesValGet
                0x080e3764                snmpGet
                0x080e313c                snmpInGetNextsValGet
                0x080e3698                snmpSetSerialNoValSet
                0x080e2d88                snmpInBadCommunityNamesValGet
                0x080e34a4                snmpOutSetRequestsIncrement
                0x080e3f54                varSnmpMpdStats
                0x080e3678                snmpSetSerialNoValGet
                0x080e4144                snmpMpdUnknownPDUHandlersIncrement
                0x080e40dc                snmpMpdUnknownSecurityModelsIncrement
                0x080e3204                snmpInGetResponsesIncrement
                0x080e2d54                snmpInBadVersionsIncrement
                0x080e3d60                snmpSetSerialNoGet
                0x080e2f80                snmpInReadOnlysValGet
                0x080e3388                snmpOutGenErrsValGet
                0x080e3354                snmpOutBadValuesIncrement
                0x080e3430                snmpOutGetNextsValGet
                0x080e2ef8                snmpInNoSuchNamesIncrement
                0x080e31b0                snmpInSetRequestsIncrement
                0x080e2ff4                snmpInGenErrsIncrement
                0x080e2f4c                snmpInBadValuesIncrement
                0x080e2ea4                snmpInTooBigsIncrement
                0x080e3300                snmpOutNoSuchNamesIncrement
                0x080e3190                snmpInSetRequestsValGet
                0x080e4110                snmpMpdInvalidMsgsIncrement
                0x080e2fd4                snmpInGenErrsValGet
                0x080e2ed8                snmpInNoSuchNamesValGet
                0x080e33fc                snmpOutGetRequestsIncrement
                0x080e3334                snmpOutBadValuesValGet
                0x080e35d0                snmpSilentDropsValGet
                0x080e33dc                snmpOutGetRequestsValGet
                0x080e34d8                snmpOutGetResponsesValGet
                0x080e3644                snmpProxyDropsIncrement
                0x080e2e50                snmpInASNParseErrsIncrement
                0x080e35a0                snmpEnableAuthenTrapsValSet
                0x080e2f2c                snmpInBadValuesValGet
                0x080e30a8                snmpInTotalSetVarsIncrement
                0x080e2dfc                snmpInBadCommunityUsesIncrement
                0x080e31e4                snmpInGetResponsesValGet
                0x080e36f4                snmpMibRegister
                0x080e2e30                snmpInASNParseErrsValGet
                0x080e3048                snmpInTotalReqVarsIncrement
                0x080e2cac                snmpInPktsIncrement
                0x080e352c                snmpOutTrapsValGet
                0x080e2d34                snmpInBadVersionsValGet
 .text          0x080e4178     0x3050 ../../../../lib/32b/libsnmp.a(snmpage.o)
                0x080e4a74                snmpBuildVar
                0x080e6cb4                dupVarBind
                0x080e5918                parseVarOpList
                0x080e42d8                parseMsgVersion
                0x080e6c6c                freeVarBindList
                0x080e48b0                snmp_agent_parse
                0x080e711c                snmpVarListBuild
                0x080e45cc                parseCommunityString
                0x080e57a0                getInViewVal
                0x080e7050                newVarBind
                0x080e6724                parseVarBind
                0x080e487c                snmpMsgFree
                0x080e531c                snmpSet
                0x080e4178                snmpInput
                0x080e653c                checkCommunity
                0x080e61cc                snmpMsgBuild
                0x080e5648                parseVarOp
                0x080e48dc                snmpMsgParse
                0x080e6ba4                freeVarBind
                0x080e6da4                buildVarBind
                0x080e43b8                validateMsg
                0x080e46f0                parsePduHeader
                0x080e468c                parseHeader
 .text          0x080e71c8      0x830 ../../../../lib/32b/libsnmp.a(sys_var.o)
                0x080e76b4                sysORTableIndexFromOid
                0x080e7274                sysMibRegister
                0x080e7710                sysORTableGet
                0x080e71c8                naSnmpSetsysORDescr
                0x080e747c                sysGroupSet
                0x080e72c0                sysGet
 .text          0x080e79f8     0x20e0 ../../../../lib/32b/libsnmp.a(tcpip_var.o)
                0x080e819c                var_ip
                0x080e9390                setRouteEntry
                0x080e7ac0                var_ifEntry
                0x080e7c58                setIfEntry
                0x080e7d78                var_ipNetToMediaTable
                0x080e79f8                tcpipMibRegister
                0x080e89c8                var_tcpConnState
                0x080e9230                setIp
                0x080e9564                setTcpState
                0x080e825c                var_ipRouteEntry
                0x080e8ddc                var_ipAddrEntry
                0x080e86e4                var_udpListener
                0x080e91b0                var_udp
                0x080e97b8                setN2MEntry
                0x080e90b0                var_icmp
                0x080e7a14                var_ifNumber
                0x080e9130                var_tcp
 .text          0x080e9ad8      0x94c ../../../../lib/32b/libsnmp.a(sys_local.o)
                0x080ea024                sysORLastChangeValGet
                0x080e9f1c                sysLocationStrGet
                0x080e9c70                sysDescrStrGet
                0x080e9e08                sysContactStrSet
                0x080e9cdc                sysObjectIDOidGet
                0x080e9e5c                sysNameStrGet
                0x080e9ad8                sysLocalInitialize
                0x080e9d9c                sysContactStrGet
                0x080e9f88                sysLocationStrSet
                0x080e9fdc                sysServicesValGet
                0x080e9d58                sysUpTimeValGet
                0x080ea3a4                sysORTableLocalInsert
                0x080ea0b4                sysORTableEntryGet
                0x080ea1e4                sysORTableLocalGet
                0x080ea248                sysORTableSerialAdd
                0x080e9ec8                sysNameStrSet
 .text          0x080ea424     0x2254 ../../../../lib/32b/libsnmp.a(tcpip_local.o)
                0x080ec130                rip2_stat_table_entry_get
                0x080eb01c                udp_group_info_get
                0x080ec178                write_ip
                0x080eb73c                n2m_table_entry_get
                0x080ea43c                get_number_ifs
                0x080ea4dc                if_group_info_get
                0x080eb0c8                udp_table_entry_get
                0x080ec634                write_n2m_entry
                0x080ec520                write_rip2_entry
                0x080eb290                tcp_table_entry_get
                0x080ea424                tcpipLocalInitialize
                0x080ec19c                write_ip_route_entry
                0x080ebe10                ip_route_table_entry_get
                0x080eaa1c                ip_group_info_get
                0x080ec658                write_tcp_state
                0x080ea9e8                rip_group_info_get
                0x080ea534                if_group_info_get_real
                0x080ec548                write_admin_stat
                0x080eb9f8                ip_addr_table_entry_get
                0x080eae24                tcp_group_info_get
                0x080ea4b4                sysIfNumberGet
                0x080ec154                rip2_conf_table_entry_get
                0x080eabe4                icmp_group_info_get
 .text          0x080ec678      0x9fc ../../../../lib/32b/libmanMib.a(MibMan.o)
                0x080ed058                manLoadSnmpV2
 .text          0x080ed074      0x9cc ../../../../lib/32b/libmanMib.a(RFC1213_MIBAction.o)
                0x080ed0dc                ifTableRead
                0x080ed548                ipNetToMediaTableWrite
                0x080ed878                udpTableWrite
                0x080ed60c                ipNetToMediaTableRead
                0x080ed9dc                egpNeighTableRead
                0x080ed344                ipAddrTableRead
                0x080ed2e4                ipAddrTableWrite
                0x080ed740                tcpConnTableWrite
                0x080ed9a4                egpNeighTableWrite
                0x080ed8d8                udpTableRead
                0x080ed47c                ipRouteTableRead
                0x080ed7a8                tcpConnTableRead
                0x080ed1ac                atTableWrite
                0x080ed414                ipRouteTableWrite
                0x080ed074                ifTableWrite
                0x080ed214                atTableRead
 .text          0x080eda40      0x620 ../../../../lib/32b/libmanMib.a(SNMPv2_MIBAction.o)
                0x080edfb0                sysORTableRead
                0x080eda40                sysORTableWrite
 .text          0x080ee060      0xce0 ../../../../lib/32b/libmanMib.a(man_sys.o)
                0x080eea28                sysServicesAccessFn
                0x080ee818                sysNameAccessFn
                0x080ee14c                manAccessSysORTable
                0x080eea8c                sysORLastChangeAccessFn
                0x080eeb54                sysORIDAccessFn
                0x080ee284                manFindSysOREntry
                0x080ee6b0                sysUpTimeAccessFn
                0x080eecdc                sysORUpTimeAccessFn
                0x080ee3cc                sysORTableAccessFn
                0x080ee224                sysOREntryCompareFn
                0x080eeaf0                sysORIndexAccessFn
                0x080ee510                sysDescrAccessFn
                0x080ee710                sysContactAccessFn
                0x080ee060                dvtGetOctStrBuf
                0x080ee57c                sysObjectIDAccessFn
                0x080ee920                sysLocationAccessFn
                0x080eec6c                sysORDescrAccessFn
                0x080ee0d4                dvtCopyOctStr
 .text          0x080eed40     0x1678 ../../../../lib/32b/libmanMib.a(man_if.o)
                0x080eed40                manAccessIfTable
                0x080ef638                ifIndexAccessFn
                0x080ef308                ifEntryCompareFn
                0x080f015c                ifOutNUcastPktsAccessFn
                0x080f006c                ifOutOctetsAccessFn
                0x080f00e4                ifOutUcastPktsAccessFn
                0x080ef7f4                ifTypeAccessFn
                0x080ef1e8                manGetIfEntry
                0x080ef768                ifTypeTestFn
                0x080ef4a0                ifTableAccessFn
                0x080f02c4                ifOutQLenAccessFn
                0x080ef6b4                ifDescrAccessFn
                0x080efa60                ifPhysAddressAccessFn
                0x080efd28                ifLastChangeAccessFn
                0x080efbb4                ifAdminStatusAccessFn
                0x080efd9c                ifInOctetsAccessFn
                0x080efb58                ifAdminStatusTestFn
                0x080ef96c                ifSpeedAccessFn
                0x080efe14                ifInUcastPktsAccessFn
                0x080f01d4                ifOutDiscardsAccessFn
                0x080efc90                ifOperStatusAccessFn
                0x080ef5dc                ifNumberAccessFn
                0x080ef8b0                ifMtuAccessFn
                0x080ef368                manFindIfEntry
                0x080efff4                ifInUnknownProtosAccessFn
                0x080efe8c                ifInNUcastPktsAccessFn
                0x080f024c                ifOutErrorsAccessFn
                0x080eff04                ifInDiscardsAccessFn
                0x080eff7c                ifInErrorsAccessFn
                0x080f0344                ifSpecificAccessFn
 .text          0x080f03b8      0x628 ../../../../lib/32b/libmanMib.a(man_at.o)
                0x080f06c8                atTableAccessFn
                0x080f088c                atPhysAddressAccessFn
                0x080f0554                manFindAtEntry
                0x080f0804                atIfIndexAccessFn
                0x080f0454                atEntryCompareFn
                0x080f0958                atNetAddressAccessFn
                0x080f03b8                manAccessAtEntry
 .text          0x080f09e0     0x2780 ../../../../lib/32b/libmanMib.a(man_ip.o)
                0x080f1f38                ipReasmReqdsAccessFn
                0x080f2284                ipAdEntNetMaskAccessFn
                0x080f2190                ipAdEntAddrAccessFn
                0x080f2370                ipAdEntReasmMaxSizeAccessFn
                0x080f1384                ipRouteTableAccessFn
                0x080f2fa0                ipNetToMediaNetAddressAccessFn
                0x080f1c7c                ipInUnknownProtosAccessFn
                0x080f09e0                manAccessIpAddrTable
                0x080f2cec                ipRouteMaskAccessFn
                0x080f288c                ipRouteMetric3AccessFn
                0x080f2208                ipAdEntIfIndexAccessFn
                0x080f1e0c                ipOutDiscardsAccessFn
                0x080f0e7c                manAccessIpRouteTable
                0x080f22fc                ipAdEntBcastAddrAccessFn
                0x080f2c80                ipRouteAgeAccessFn
                0x080f2064                ipFragOKsAccessFn
                0x080f1d44                ipInDeliversAccessFn
                0x080f1c18                ipForwDatagramsAccessFn
                0x080f2ed4                ipNetToMediaPhysAddressAccessFn
                0x080f15c0                ipNetToMediaEntryCompareFn
                0x080f2820                ipRouteMetric2AccessFn
                0x080f2000                ipReasmFailsAccessFn
                0x080f19cc                ipForwardingAccessFn
                0x080f1978                ipForwardingStatusTestFn
                0x080f3090                ipNetToMediaTypeAccessFn
                0x080f30fc                ipRoutingDiscardsAccessFn
                0x080f1150                ipRouteEntryCompareFn
                0x080f20c8                ipFragFailsAccessFn
                0x080f2c04                ipRouteProtoAccessFn
                0x080f1a54                ipDefaultTTLAccessFn
                0x080f0b14                ipAddrEntryCompareFn
                0x080f1228                manFindIpRouteEntry
                0x080f28f8                ipRouteMetric4AccessFn
                0x080f25d4                ipRouteIfIndexAccessFn
                0x080f1aec                ipInReceivesAccessFn
                0x080f2b0c                mapIpRouteProto
                0x080f2d6c                ipRouteMetric5AccessFn
                0x080f2e4c                ipNetToMediaIfIndexAccessFn
                0x080f2758                ipRouteMetric1AccessFn
                0x080f3034                ipNetToMediaTypeTestFn
                0x080f2dd8                ipRouteInfoAccessFn
                0x080f1e70                ipOutNoRoutesAccessFn
                0x080f1da8                ipOutRequestsAccessFn
                0x080f2964                ipRouteNextHopAccessFn
                0x080f0d40                ipAddrTableAccessFn
                0x080f212c                ipFragCreatesAccessFn
                0x080f183c                ipNetToMediaTableAccessFn
                0x080f1ed4                ipReasmTimeoutAccessFn
                0x080f2ba8                ipRouteProtoTestFn
                0x080f1bb4                ipInAddrErrorsAccessFn
                0x080f2a54                ipRouteTypeAccessFn
                0x080f0bec                manFindIpAddrEntry
                0x080f14c0                manAccessIpNetToMediaTable
                0x080f1f9c                ipReasmOKsAccessFn
                0x080f23e8                ipRouteDestAccessFn
                0x080f29f8                ipRouteTypeTestFn
                0x080f1ce0                ipInDiscardsAccessFn
                0x080f1b50                ipInHdrErrorsAccessFn
                0x080f16c8                manFindIpNetToMediaEntry
 .text          0x080f3160      0xa28 ../../../../lib/32b/libmanMib.a(man_icmp.o)
                0x080f36d8                icmpOutErrorsAccessFn
                0x080f3610                icmpInAddrMaskRepsAccessFn
                0x080f38cc                icmpOutRedirectsAccessFn
                0x080f3354                icmpInSrcQuenchsAccessFn
                0x080f3b24                icmpOutAddrMaskRepsAccessFn
                0x080f373c                icmpOutDestUnreachsAccessFn
                0x080f39f8                icmpOutTimestampsAccessFn
                0x080f328c                icmpInTimeExcdsAccessFn
                0x080f3480                icmpInEchoRepsAccessFn
                0x080f32f0                icmpInParmProbsAccessFn
                0x080f3804                icmpOutParmProbsAccessFn
                0x080f3548                icmpInTimestampRepsAccessFn
                0x080f31c4                icmpInErrorsAccessFn
                0x080f35ac                icmpInAddrMasksAccessFn
                0x080f37a0                icmpOutTimeExcdsAccessFn
                0x080f3228                icmpInDestUnreachsAccessFn
                0x080f3674                icmpOutMsgsAccessFn
                0x080f33b8                icmpInRedirectsAccessFn
                0x080f341c                icmpInEchosAccessFn
                0x080f3ac0                icmpOutAddrMasksAccessFn
                0x080f3930                icmpOutEchosAccessFn
                0x080f3160                icmpInMsgsAccessFn
                0x080f3868                icmpOutSrcQuenchsAccessFn
                0x080f34e4                icmpInTimestampsAccessFn
                0x080f3a5c                icmpOutTimestampRepsAccessFn
                0x080f3994                icmpOutEchoRepsAccessFn
 .text          0x080f3b88      0xf30 ../../../../lib/32b/libmanMib.a(man_tcp.o)
                0x080f4798                tcpConnStateAccessFn
                0x080f49f0                tcpInErrsAccessFn
                0x080f4404                tcpAttemptFailsAccessFn
                0x080f43a0                tcpPassiveOpensAccessFn
                0x080f4a54                tcpOutRstsAccessFn
                0x080f42d8                tcpMaxConnAccessFn
                0x080f3b88                manAccessTcpConnTable
                0x080f473c                tcpConnStateTestFn
                0x080f4888                tcpConnLocalPortAccessFn
                0x080f4468                tcpEstabResetsAccessFn
                0x080f4978                tcpConnRemPortAccessFn
                0x080f3cbc                tcpConnEntryCompareFn
                0x080f4014                tcpConnTableAccessFn
                0x080f4654                mapTcpConnState
                0x080f4900                tcpConnRemAddressAccessFn
                0x080f458c                tcpOutSegsAccessFn
                0x080f4810                tcpConnLocalAddressAccessFn
                0x080f3e6c                manFindTcpConnEntry
                0x080f4528                tcpInSegsAccessFn
                0x080f45f0                tcpRetransSegsAccessFn
                0x080f44cc                tcpCurrEstabAccessFn
                0x080f4210                tcpRMinAccessFn
                0x080f41ac                tcpRtoAlgorithmAccessFn
                0x080f433c                tcpActiveOpensAccessFn
                0x080f4150                tcpRtoAlgorithmTestFn
                0x080f4274                tcpRMaxAccessFn
 .text          0x080f4ab8      0x6d0 ../../../../lib/32b/libmanMib.a(man_upd.o)
                0x080f4f08                udpInDatagramsAccessFn
                0x080f4f6c                udpNoPortsAccessFn
                0x080f5034                udpOutDatagramsAccessFn
                0x080f5110                udpLocalPortAccessFn
                0x080f4dcc                udpTableAccessFn
                0x080f4ab8                manAccessUdpTable
                0x080f4fd0                udpInErrorsAccessFn
                0x080f4c40                manFindUdpEntry
                0x080f4b50                udpEntryCompareFn
                0x080f5098                udpLocalAddressAccessFn
 .text          0x080f5188      0xd14 ../../../../lib/32b/libmanMib.a(man_egp.o)
                0x080f57b8                egpNeighInErrorsAccessFn
                0x080f5374                egpNeighTableAccessFn
                0x080f5b48                egpNeighStateDownsAccessFn
                0x080f5720                egpNeighInMsgsAccessFn
                0x080f5ab0                egpNeighStateUpsAccessFn
                0x080f5e40                egpAsAccessFn
                0x080f53e8                egpInMsgsAccessFn
                0x080f54fc                egpOutErrorsAccessFn
                0x080f58e8                egpNeighOutErrorsAccessFn
                0x080f5980                egpNeighInErrMsgsAccessFn
                0x080f5a18                egpNeighOutErrMsgsAccessFn
                0x080f5558                egpNeighStateAccessFn
                0x080f5da8                egpNeighEventTriggerAccessFn
                0x080f5688                egpNeighAsAccessFn
                0x080f5188                netos_getEgpEntry
                0x080f5c78                egpNeighIntervalPollAccessFn
                0x080f55f0                egpNeighAddrAccessFn
                0x080f5be0                egpNeighIntervalHelloAccessFn
                0x080f5d10                egpNeighModeAccessFn
                0x080f54a0                egpOutMsgsAccessFn
                0x080f5294                egpNeighEntryCompareFn
                0x080f5850                egpNeighOutMsgsAccessFn
                0x080f5444                egpInErrorsAccessFn
 .text          0x080f5e9c      0xba0 ../../../../lib/32b/libmanMib.a(man_snmp.o)
                0x080f5efc                snmpOutPktsAccessFn
                0x080f67fc                snmpOutGetResponsesAccessFn
                0x080f607c                snmpInASNParseErrsAccessFn
                0x080f649c                snmpInGetResponsesAccessFn
                0x080f655c                snmpOutTooBigsAccessFn
                0x080f631c                snmpInTotalSetVarsAccessFn
                0x080f661c                snmpOutBadValuesAccessFn
                0x080f69dc                snmpProxyDropsAccessFn
                0x080f625c                snmpInGenErrsAccessFn
                0x080f64fc                snmpInTrapsAccessFn
                0x080f685c                snmpOutTrapsAccessFn
                0x080f5fbc                snmpInBadCommunityNamesAccessFn
                0x080f679c                snmpOutSetRequestsAccessFn
                0x080f65bc                snmpOutNoSuchNamesAccessFn
                0x080f61fc                snmpInReadOnlysAccessFn
                0x080f697c                snmpSilentDropsAccessFn
                0x080f5f5c                snmpInBadVersionsAccessFn
                0x080f63dc                snmpInGetNextsAccessFn
                0x080f619c                snmpInBadValuesAccessFn
                0x080f66dc                snmpOutGetRequestsAccessFn
                0x080f60dc                snmpInTooBigsAccessFn
                0x080f68bc                snmpEnableAuthenTrapsAccessFn
                0x080f601c                snmpInBadCommunityUsesAccessFn
                0x080f637c                snmpInGetRequestsAccessFn
                0x080f62bc                snmpInTotalReqVarsAccessFn
                0x080f643c                snmpInSetRequestsAccessFn
                0x080f5e9c                snmpInPktsAccessFn
                0x080f673c                snmpOutGetNextsAccessFn
                0x080f613c                snmpInNoSuchNamesAccessFn
                0x080f667c                snmpOutGenErrsAccessFn
 .text          0x080f6a3c     0x1c80 ../../../../lib/32b/libsntp.a(UDPsntp.o)
                0x080f6ebc                sntpThread
                0x080f7524                convert_time
                0x080f83b4                NAgetSntpAsciiTime
                0x080f8594                NAinstallSntpTime
                0x080f823c                NAgetSntpCtxTime
                0x080f6b5c                NAremoveSntpCtx
                0x080f6c08                NAgetSntpCtx
                0x080f8214                sntp_GetTimezoneOffset
                0x080f837c                NAgetSntpTime
                0x080f8630                NAinstallTimeZone
                0x080f6af0                NAdeleteSntpCtx
                0x080f8078                NArestartSntpServer
                0x080f7b10                NAstartSntp
 .text          0x080f86bc     0x4e10 ../../../../lib/32b/libfilesys.a(fss.o)
                0x080f9604                FSSwrite_block
                0x080f9b04                FSSdelete_block
                0x080f9124                FSSremove
                0x080f93bc                FSSread_block
                0x080f86bc                FSScreate
                0x080f9d94                FSSget_block_count
 .text          0x080fd4cc      0x958 ../../../../lib/32b/libfilesys.a(rss.o)
                0x080fd7e0                RSSread_block
                0x080fdc4c                RSSget_block_count
                0x080fd70c                RSSremove
                0x080fd4cc                RSScreate
                0x080fd968                RSSwrite_block
                0x080fdb00                RSSdelete_block
 .text          0x080fde24      0x194 ../../../../lib/32b/libfilesys.a(crc32h.o)
                0x080fde24                gen_crc32_table
                0x080fdf80                crc32
                0x080fdee8                update_crc32
 .text          0x080fdfb8      0x22c ../../../../lib/32b/libfilesys.a(bheader.o)
                0x080fe0a4                check_logical_block_range
                0x080fe13c                write_serial_number
                0x080fdffc                check_checksum
                0x080fe114                write_checksum
                0x080fe05c                check_logical_block
                0x080fe0ec                write_logical_block
                0x080fe164                write_status
                0x080fdfb8                check_not_dirty_flag
                0x080fe1b8                mark_block_not_dirty
                0x080fe18c                mark_block_dirty
 .text          0x080fe1e4     0x4ec0 ../../../../lib/32b/libfilesys.a(fs_api.o)
                0x080fe4bc                NAFSmedia_cb_table_size
                0x08101380                NAFSrename_file
                0x08101158                NAFSdelete_file
                0x08101824                NAFSread_file
                0x080fe60c                NAFSmedia_cb_volume_table_status
                0x080fef14                NAFSinit_volume_cb
                0x080ff43c                NAFSio_request_cb_status
                0x08101f30                NAFScreate_dir
                0x08101da8                NAFSclose_file
                0x08102a6c                NAFSvolume_stats
                0x080fe284                NAFSshut_down
                0x080fe5c4                NAFSmedia_cb_volume_table_size
                0x08100eac                NAFScreate_file
                0x080ff3b8                NAFSinit_io_request_cb
                0x080fe1e4                NAFSinit
                0x081019f8                NAFSwrite_file
                0x0810286c                NAFSlist_dir
                0x08102690                NAFSdir_entry_count
                0x080fe79c                NAFSinstall_media_cb
                0x080fe6d0                NAFSmedia_cb_block_size
                0x080ff0fc                NAFSinstall_services
                0x0810160c                NAFSopen_file
                0x08102404                NAFSrename_dir
                0x08101c04                NAFSopen_file_size
                0x080fedd4                NAFSinit_io_intf
                0x080ff4f4                NAFScreate_volume
                0x080fe504                NAFSmedia_cb_table_status
                0x081021dc                NAFSdelete_dir
 .text          0x081030a4     0xce4c ../../../../lib/32b/libfilesys.a(io.o)
                0x08107cd8                add_dir_entry
                0x0810fe08                check_file_inode
                0x08109904                get_dir_entry_info
                0x08108278                rename_dir_entry
                0x08109174                list_dir
                0x0810f92c                get_four_buffers
                0x08106afc                create_dir_entry
                0x0810d3b0                delete_dir_entry
                0x08105cb4                find_dir_inode
                0x0810e034                remove_dir_entry
                0x0810fb5c                free_five_buffers
                0x0810608c                find_dir_entry
                0x08106828                search_dir_entry
                0x081030a4                process_message
                0x0810f5e8                get_one_buffer
                0x08109c00                read_file
                0x0810fbdc                execute_callback
                0x0810f668                free_one_buffer
                0x0810fc18                get_vol_data_from_name
                0x0810fa00                free_four_buffers
                0x0810f8b8                free_three_buffers
                0x0810fcc8                check_dir_inode
                0x0810a994                write_file
                0x0810d010                write_file_block
                0x0810a5d4                read_file_block
                0x0810f3e0                dir_entry_size
                0x0810eba8                delete_file
                0x0810fa78                get_five_buffers
                0x0810ea8c                ftable_update
                0x08108eec                get_dir_entry_count
                0x0810f784                free_two_buffers
                0x0810f7f0                get_three_buffers
                0x0810885c                directory_entry_count
                0x0810f6c4                get_two_buffers
 .text          0x0810fef0      0x924 ../../../../lib/32b/libfilesys.a(parser.o)
                0x08110164                get_dir_name
                0x0811027c                get_volume_name
                0x081103b8                check_file_name
                0x0811007c                check_nonprintable_chars
                0x0811076c                get_parent_dir_path
                0x081104e0                check_dir_path
                0x08110364                get_dir_path
                0x0810fef0                check_path_format
                0x08110118                check_double_forward_slash
                0x08110628                check_volume_name
 .text          0x08110814     0x1de4 ../../../../lib/32b/libfilesys.a(ftables.o)
                0x08112090                ftable_add
                0x08111504                dtable_reset_close_sequence
                0x08110c04                dtable_search_dir
                0x08110d90                dtable_search_dir_cb
                0x08111908                ftable_decr_open_files
                0x081111a0                dtable_remove
                0x081118dc                ftable_incr_open_files
                0x08111720                dir_cb_read
                0x08111e0c                ftable_search_free
                0x08110858                btable_add
                0x08111d78                ftable_check_write_access
                0x0811101c                dtable_add
                0x08112378                ftable_write_block_info
                0x08111c84                ftable_check_status
                0x08111960                ftable_update_close_sequence
                0x08110bd8                dtable_update_close_sequence
                0x081122e8                ftable_read_block_info
                0x0811198c                ftable_search_file
                0x081109f8                itable_get
                0x0811093c                btable_count
                0x08110814                btable_init
                0x081118a8                ftable_deallocate
                0x081108a8                btable_get
                0x081123f8                file_cb_init
                0x081111f4                dtable_search_free
                0x08110b4c                dtable_deallocate
                0x08111d28                ftable_set_user_permissions
                0x08110e90                dtable_check_status
                0x08111b40                ftable_close
                0x08110964                itable_init
                0x08110eec                dtable_set_status
                0x08112520                file_cb_read
                0x08110ab4                dtable_init
                0x08111558                dir_cb_init
                0x0811248c                file_cb_write
                0x081109a8                itable_add
                0x08110e38                dtable_rename
                0x081125d0                file_cb_rename
                0x08110a8c                itable_count
                0x08110f44                dtable_check_write_access
                0x081117cc                dir_cb_rename
                0x081117f4                ftable_init
                0x08111a98                ftable_search_file_cb
                0x081115e8                dir_cb_write
                0x08111934                ftable_open_files
                0x08110bac                dtable_decr_open_dirs
                0x08112240                ftable_remove
                0x08110b80                dtable_incr_open_dirs
                0x08112294                ftable_reset_close_sequence
                0x08111480                dtable_group_id_info
                0x08111be4                ftable_rename
                0x08111cd8                ftable_set_status
 .text          0x081125f8      0x280 ../../../../lib/32b/libfilesys.a(thread.o)
                0x08112788                media5_thread_entry
                0x08112648                media1_thread_entry
                0x081127d8                media6_thread_entry
                0x081126e8                media3_thread_entry
                0x08112738                media4_thread_entry
                0x08112828                media7_thread_entry
                0x08112698                media2_thread_entry
                0x081125f8                media0_thread_entry
 .text          0x08112878      0x3cc ../../../../lib/32b/libfilesys.a(sblock.o)
                0x08112b8c                sblock_write_double_iblock_ptr
                0x08112ab0                sblock_read_direct_iblock_ptr
                0x08112b30                sblock_write_indirect_iblock_ptr
                0x081128f4                sblock_read_root_dir_inode
                0x0811297c                sblock_write_inode_count
                0x08112be8                sblock_write_reserved_area0
                0x08112a08                sblock_read_inode_blocks
                0x08112b60                sblock_read_indirect_iblock_ptr
                0x08112950                sblock_read_root_dir_iblock
                0x081128a0                sblock_read_total_blocks
                0x08112920                sblock_write_root_dir_iblock
                0x08112a34                sblock_write_direct_iblock_ptr
                0x08112878                sblock_write_total_blocks
                0x081129d8                sblock_write_inode_blocks
                0x08112c18                sblock_read_reserved_area0
                0x081128c4                sblock_write_root_dir_inode
                0x08112bbc                sblock_read_double_iblock_ptr
                0x081129ac                sblock_read_inode_count
 .text          0x08112c44      0x29c ../../../../lib/32b/libfilesys.a(bpool.o)
                0x08112d88                bpool_remove
                0x08112d14                bpool_add
                0x08112e38                bpool_get_buffer
                0x08112cc4                bpool_reset
                0x08112c84                bpool_check_full
                0x08112e14                bpool_get_count
                0x08112e8c                bpool_put_buffer
                0x08112c44                bpool_check_empty
 .text          0x08112ee0     0x459c ../../../../lib/32b/libfilesys.a(pwr_loss.o)
                0x081135dc                delete_inode_block_array
                0x08117398                adjust_inode_stats
                0x081169c8                check_dir_inode_valid
                0x08115de0                check_dir_entries_in_block
                0x081136a4                scan_directory
                0x08116e10                last_dir_double_indirect_block_deallocated
                0x08112ee0                power_loss_recovery
                0x08113d68                traverse_dir_entries
                0x08116bac                last_dir_direct_block_deallocated
                0x081140b8                check_data_blocks
                0x081162b8                search_duplicate_dir_entry
                0x081170dc                adjust_dir_inode
                0x0811670c                get_inode_block
                0x08116c94                last_dir_indirect_block_deallocated
                0x081168c8                free_inode_block
                0x0811301c                create_inode_block_array
                0x08114c2c                check_directory_entries
                0x08116ae0                check_file_inode_valid
 .text          0x0811747c      0x6a8 ../../../../lib/32b/libfilesys.a(inode.o)
                0x081177fc                inode_write_direct_ptr
                0x0811773c                inode_read_inode_mtime
                0x08117698                inode_read_file_blocks
                0x081178f8                inode_read_group_id
                0x081176bc                inode_write_file_blocks
                0x08117860                inode_read_indirect_ptr
                0x08117884                inode_write_indirect_ptr
                0x08117710                inode_write_file_mtime
                0x08117670                inode_write_file_size
                0x08117a0c                inode_update_inode_mtime
                0x08117620                inode_write_file_type
                0x081175fc                inode_read_file_type
                0x08117a98                inode_update_file_mtime
                0x081178d0                inode_write_double_indirect_ptr
                0x081176e4                inode_read_file_mtime
                0x081178ac                inode_read_double_indirect_ptr
                0x0811791c                inode_write_group_id
                0x08117794                inode_read_direct_ptr
                0x08117944                inode_update_time
                0x08117768                inode_write_inode_mtime
                0x0811764c                inode_read_file_size
                0x0811747c                inode_init
 .text          0x08117b24      0x9bc ../../../../lib/32b/libfilesys.a(services.o)
                0x081182bc                check_duplicate_ss_table
                0x08117f60                SSdelete_block
                0x08117b24                SSinit
                0x08117ff0                SSget_block_count
                0x08117c60                SScreate_volume
                0x08117eb0                SSwrite_block
                0x08117ba4                SSinstall_services
                0x08117e00                SSread_block
                0x08118148                read_ss_table
                0x08118098                write_ss_table
                0x08118210                delete_ss_table
                0x08117d30                SSremove_volume
                0x0811836c                check_media_type_intf
 .text          0x081184e0      0x1b0 ../../../../lib/32b/libbsp.a(cksum.o)
                0x081184e0                cksum
 .text          0x08118690      0x1e0 ../../../../lib/32b/libbsp.a(runcksum.o)
                0x08118690                runcksum
 .text          0x08118870     0x12c8 ../../../../lib/32b/libbsp.a(MII.o)
                0x081188bc                customizeMiiReset
                0x08118870                customizeMiiInit
                0x08118afc                customizeMiiAutonegotiationComplete
                0x0811943c                customizeMiiSetAuto
                0x081190a4                customizeMiiCheckLink
                0x081197e0                customizeLinkChangeIsr
                0x0811899c                customizeMiiNegotiate
                0x08119674                miiRestartLinkUp
                0x081197c8                customizeEnableMiiInterrupt
                0x081191b8                customizeMiiSetLoopback
                0x08118a98                customizeMiiRestartAutonegotiation
                0x08118bc0                customizeMiiCheckSpeed
                0x08118de0                customizeMiiCheckDuplex
                0x08118fc4                customizeMiiSetSpeed
                0x081195dc                miiRestartLinkDown
                0x08119b28                print_link_status
                0x08119ac0                mii_check_negotiable
 .text          0x08119b38      0x444 ../../../../lib/32b/libbsp.a(select_support.o)
                0x08119b38                serl_select_on
                0x08119f2c                serl_select_off
 .text          0x08119f7c      0x648 ../../../../lib/32b/libbsp.a(eth_init.o)
                0x08119f7c                na_eth_statistics
                0x0811a484                eth_check_link
                0x0811a3fc                eth_disable
                0x0811a2f0                eth_enable
                0x08119fcc                eth_init
 .text          0x0811a5c4      0x684 ../../../../lib/32b/libbsp.a(eth_dma.o)
                0x0811a828                eth_disable_dma
                0x0811a954                eth_reset_rx_buffers_descriptors
                0x0811a5c4                eth_enable_dma
                0x0811a8f4                eth_reset_tx_buffers_descriptors
                0x0811aaa0                eth_init_buffer_descriptors
 .text          0x0811ac48      0x3a8 ../../../../lib/32b/libbsp.a(eth_isr.o)
                0x0811acec                eth_disable_isr
                0x0811ac48                eth_init_isr
                0x0811acc4                eth_enable_isr
 .text          0x0811aff0      0x870 ../../../../lib/32b/libbsp.a(eth_mcast.o)
                0x0811aff0                eth_add_multicast
                0x0811b178                eth_del_multicast
                0x0811b2f0                eth_load_mca_table
 .text          0x0811b860      0x708 ../../../../lib/32b/libbsp.a(eth_os.o)
                0x0811bed4                eth_task_sleep
                0x0811bd14                eth_start_os_services
                0x0811bdc0                eth_stop_os_services
                0x0811be6c                eth_task_wake
                0x0811b860                eth_init_os_services
 .text          0x0811bf68      0x6e0 ../../../../lib/32b/libbsp.a(eth_recv.o)
                0x0811bf68                eth_receive_task
 .text          0x0811c648      0x774 ../../../../lib/32b/libbsp.a(eth_send.o)
                0x0811cbc4                eth_transmit_task
                0x0811c918                eth_fastip_packet_transmit
                0x0811c6ec                eth_reserve_tx_dma_entry
                0x0811c9c4                eth_fastip_buffer_cnt
                0x0811ca20                eth_tx_complete
                0x0811c648                na_eth_send
                0x0811c750                eth_packet_buffer_transmit
 .text          0x0811cdbc     0x1630 ../../../../lib/32b/libbsp.a(eth_stack.o)
                0x0811cf60                eth0_start
                0x0811d440                NAEthMsgFree
                0x0811ce2c                NABlockUDPBroadcasts
                0x0811e0e8                eth_fastip_msg_init
                0x0811d220                eth_fastip_start
                0x0811cdbc                NAEthRegisterUnclaimedPacketFn
                0x0811ce70                eth0_init
                0x0811d8f0                eth0_updown
                0x0811d1d8                eth_start
                0x0811d240                eth_restart
                0x0811e2cc                eth_fastip_msg_avail
                0x0811d2ec                NAEthMsgAllocate
                0x0811d264                eth_msg_allocate
                0x0811e330                eth_get_tx_queue_head
                0x0811d200                NAEthTransmit
                0x0811dde8                eth_recv_up
                0x0811e084                eth_fastip_msg_allocate
                0x0811d53c                NAEthAddPacketType
                0x0811d138                eth0_ioctl
                0x0811e248                eth_fastip_msg_free
                0x0811d39c                eth_msg_free
 .text          0x0811e3ec      0x620 ../../../../lib/32b/libbsp.a(eth_watchdog.o)
                0x0811e3ec                eth_reset_rx
                0x0811e584                eth_watchdog
                0x0811e810                eth_reset_tx
 .text          0x0811ea0c      0xe10 ../../../../lib/32b/libbsp.a(eth_reset.o)
                0x0811f220                eth_read_autosense
                0x0811ea0c                is20UM
                0x0811f168                eth_init_clk
                0x0811f08c                eth_disable_efe
                0x0811ea9c                eth_reset
                0x0811ef98                eth_enable_efe
                0x0811ea54                ethGetDefaultDuplex
                0x0811f768                eth_update_link
 .text          0x0811f81c       0x54 ../../../../lib/32b/libtx.a(tx_timeg.o)
                0x0811f81c                _tx_time_get
 .text          0x0811f870       0x94 ../../../../lib/32b/libtx.a(txe_efs.o)
                0x0811f870                _txe_event_flags_set
 .text          0x0811f904       0xc0 ../../../../lib/32b/libtx.a(txe_tpch.o)
                0x0811f904                _txe_thread_preemption_change
 .text          0x0811f9c4       0x3c ../../../../lib/32b/libtx.a(txe_trel.o)
                0x0811f9c4                _txe_thread_relinquish
 .text          0x0811fa00      0x114 ../../../../lib/32b/libtx.a(TXE_TIG.o)
                0x0811fa00                _txe_thread_info_get
 .text          0x0811fb14       0xb0 ../../../../lib/32b/libtx.a(TXE_MD.o)
                0x0811fb14                _txe_mutex_delete
 .text          0x0811fbc4      0x11c ../../../../lib/32b/libtx.a(tx_trel.o)
                0x0811fbc4                _tx_thread_relinquish
 .text          0x0811fce0      0x19c ../../../../lib/32b/libtx.a(tx_tpch.o)
                0x0811fce0                _tx_thread_preemption_change
 .text          0x0811fe7c      0x69c ../../../../lib/32b/libtx.a(tx_efs.o)
                0x0811fe7c                _tx_event_flags_set
 .text          0x08120518       0xd4 ../../../../lib/32b/libtx.a(TX_TIG.o)
                0x08120518                _tx_thread_info_get
 .text          0x081205ec      0x224 ../../../../lib/32b/libtx.a(TX_MD.o)
                0x081205ec                _tx_mutex_delete
 .text          0x08120810     0x3334 ../../../../lib/32b/libemailc.a(allegro_mailc.o)
                0x08120f74                MCReadLogin
                0x08121278                MCList
                0x08122194                NARetrWithAttachments
                0x08122b94                MCSendSimpleMailWithDomain
                0x08121070                MCReadLogout
                0x08123a90                NAMCSetCharsetandMailername
                0x08121200                MCRegisterLIST
                0x08121aec                NAMCRetr
                0x08123960                NADeRegisterSendCallback
                0x08122c2c                MCSendSimpleMail
                0x08122cc8                NASendMailWithAttachmentsAndDomain
                0x08122760                MCNoop
                0x081218a4                NAGetMailHeader
                0x08121e38                MCRegisterRETRWithAttachments
                0x08122788                MCDele
                0x081238e8                NARegisterSendCallback
                0x08123a34                NADeRegisterRetrCallback
                0x081234c0                MCSendMailWithAttachments
                0x08122924                NASendSimpleMailWithDomain
                0x081239bc                NARegisterRetrCallback
                0x08121a74                MCRegisterRETR
                0x08121cb8                MCRetr
                0x081237a4                WriteHeader
                0x08121368                NAListMail
                0x08120810                CheckStatus
                0x0812285c                MCRset
                0x08121138                MCStat
                0x0812354c                ReadAttachment
                0x0812338c                MCSendMailWithAttachmentsAndDomain
                0x08121a10                MC_get_msg_count
                0x08121eb0                MCRetrWithAttachments
 .text          0x08123b44       0x54 ../../../../lib/32b/libtcpip.a(udpopen.o)
                0x08123b44                fns_udp_open
 .text          0x08123b98       0x18 ../../../../lib/32b/libtcpip.a(strcpy.o)
                0x08123b98                fns_strcpy
 .text          0x08123bb0       0x28 ../../../../lib/32b/libtcpip.a(strlen.o)
                0x08123bb0                fns_strlen
 .text          0x08123bd8       0xdc ../../../../lib/32b/libtcpip.a(memory.o)
                0x08123c68                fns_memcpy
                0x08123c30                fns_memcmp
                0x08123c94                fns_memset
                0x08123c04                fns_memchr
                0x08123bd8                fns_memccpy
 .text          0x08123cb4       0x9c ../../../../lib/32b/libtcpip.a(ipbind.o)
                0x08123cb4                fns_ip_bind
 .text          0x08123d50       0x14 ../../../../lib/32b/gnu/libc.a(atol.o)
                0x08123d50                atol
 .text          0x08123d64       0x78 ../../../../lib/32b/gnu/libc.a(rand.o)
                0x08123d84                rand
                0x08123d64                srand
 .text          0x08123ddc       0x50 ../../../../lib/32b/gnu/libc.a(time.o)
                0x08123ddc                time
 .text          0x08123e2c       0x58 ../../../../lib/32b/gnu/libc.a(timer.o)
                0x08123e3c                _gettimeofday_r
                0x08123e2c                _times_r
 .text          0x08123e84       0x98 ../../../../lib/32b/libsnmp.a(man_wrtr.o)
                0x08123e84                genericWriter
 .text          0x08123f1c      0x384 ../../../../lib/32b/libsnmp.a(man_rnge.o)
                0x08124000                snmpAgentRangeChecker
 .text          0x081242a0      0x300 ../../../../lib/32b/libsnmp.a(man_wobj.o)
                0x081242a0                snmpWriteObject
 .text          0x081245a0       0xd0 ../../../../lib/32b/libsnmp.a(man_accr.o)
                0x081245a0                manApiAccessor
 .text          0x08124670      0x474 ../../../../lib/32b/libsnmp.a(man_robj.o)
                0x08124670                snmpReadObject
 *(.gnu.linkonce.t*)
 *(.rodata)
 .rodata        0x08124ae4       0x74 ./objs/appconf_api.o
 .rodata        0x08124b58      0x690 ./objs/root.o
                0x08124b58                APP_POST
 .rodata        0x081251e8       0xe8 ./objs/MibMan.o
 .rodata        0x081252d0     0x11ec ./objs/EARMIB.o
 .rodata        0x081264bc      0x4e4 ./objs/EARMIBAction.o
 .rodata        0x081269a0      0x520 ./objs/ipgFlash.o
 .rodata        0x08126ec0       0xc8 ./objs/telnet.o
 .rodata        0x08126f88     0x1fe8 ./objs/menu.o
 .rodata        0x08128f70      0x224 ./objs/ipgsnmp.o
 .rodata        0x08129194       0x18 ./objs/earTemperatureAlarmThreshold.o
 .rodata        0x081291ac       0x40 ./objs/earSnmpMngrTable.o
 .rodata        0x081291ec       0x24 ./objs/earTrapPort.o
 .rodata        0x08129210       0x10 ./objs/earPumpsOff.o
 .rodata        0x08129220       0x6c ./objs/earChassisReboot.o
 .rodata        0x0812928c       0x44 ./objs/earRtcTime.o
 .rodata        0x081292d0       0x24 ./objs/readFrom2U2.o
 .rodata        0x081292f4       0x18 ./objs/Snmp_api.o
 .rodata        0x0812930c      0x378 ./objs/configNotification.o
 .rodata        0x08129684        0x4 ./objs/atmel.o
 .rodata        0x08129688      0x888 ./objs/EDFAWelcomePage.o
 .rodata        0x08129f10      0x124 ./objs/EDFAWelcomePage_v.o
 .rodata        0x0812a034       0x20 ./objs/security.o
 .rodata        0x0812a054      0x598 ./objs/RpUsrDct.o
 .rodata        0x0812a5ec      0x2f8 ./objs/naftpapp.o
 .rodata        0x0812a8e4       0x10 /usr/lib/gcc-lib/arm-elf/3.2/be/libgcc.a(_thenan_sf.o)
                0x0812a8e4                __thenan_sf
 .rodata        0x0812a8f4       0x14 /usr/lib/gcc-lib/arm-elf/3.2/be/libgcc.a(_thenan_df.o)
                0x0812a8f4                __thenan_df
 .rodata        0x0812a908       0x68 ../../../../lib/32b/gnu/libc.a(mktm_r.o)
 .rodata        0x0812a970       0x40 ../../../../lib/32b/gnu/libc.a(tzset_r.o)
 .rodata        0x0812a9b0       0x20 ../../../../lib/32b/gnu/libc.a(vfprintf.o)
 .rodata        0x0812a9d0       0x22 ../../../../lib/32b/gnu/libc.a(vfscanf.o)
 *fill*         0x0812a9f2        0x2
 .rodata        0x0812a9f4       0x20 ../../../../lib/32b/gnu/libc.a(syscalls.o)
 .rodata        0x0812aa14      0x101 ../../../../lib/32b/gnu/libc.a(ctype_.o)
                0x0812aa14                _ctype_
 *fill*         0x0812ab15        0x3
 .rodata        0x0812ab18       0x30 ../../../../lib/32b/gnu/libc.a(locale.o)
 .rodata        0x0812ab48      0x124 ../../../../lib/32b/gnu/libc.a(mprec.o)
                0x0812ac44                __mprec_tinytens
                0x0812ab54                __mprec_tens
                0x0812ac1c                __mprec_bigtens
 .rodata        0x0812ac6c        0x8 ../../../../lib/32b/gnu/libc.a(s_infconst.o)
                0x0812ac6c                __infinity
 .rodata        0x0812ac74        0x4 ../../../../lib/32b/gnu/libc.a(setenv_r.o)
 .rodata        0x0812ac78      0x100 /usr/lib/gcc-lib/arm-elf/3.2/be/libgcc.a(_clz.o)
                0x0812ac78                __clz_tab
 .rodata        0x0812ad78       0x7c ../../../../lib/32b/libbsp.a(bsp_api.o)
                0x0812ad8c                NABspApplicationFlashAddress
                0x0812ad80                NAAppMaxSizeInFlash
                0x0812ada8                NABspHighPriority
                0x0812adb4                NABspDefaultPriority
                0x0812adc4                NABspRTCDriver
                0x0812adc0                NABspEepromSize
                0x0812ad9c                NABspTicksPerSecond
                0x0812adb0                NABspLowPriority
                0x0812add0                NABspLowInterruptLatency
                0x0812adac                NABspMediumPriority
                0x0812ada4                NABspFlashBanks
                0x0812ad84                NABootloaderSizeInFlash
                0x0812ad7c                NAAppOffsetInFlash
                0x0812ada0                NABspNvramDriver
                0x0812adcc                NABspUsePhyInterrupt
                0x0812ad88                NABspApplicationImageSize
                0x0812ad90                NABspPlatform
                0x0812ad78                NABspFileSystemSize
                0x0812adc8                NABspFilesystemForCLib
                0x0812adb8                NABspStartupDelay
                0x0812adbc                NABspEepromBase
 .rodata        0x0812adf4       0x20 ../../../../lib/32b/libbsp.a(nainet.o)
 .rodata        0x0812ae14       0x28 ../../../../lib/32b/libbsp.a(devices.o)
 .rodata        0x0812ae3c       0x48 ../../../../lib/32b/libbsp.a(sysAccess.o)
 .rodata        0x0812ae84       0x38 ../../../../lib/32b/libbsp.a(lpbkdev.o)
 .rodata        0x0812aebc       0x10 ../../../../lib/32b/libbsp.a(nuldev.o)
 .rodata        0x0812aecc       0x48 ../../../../lib/32b/libbsp.a(gpio.o)
 .rodata        0x0812af14       0x4c ../../../../lib/32b/libbsp.a(boardParams.o)
 .rodata        0x0812af60       0x10 ../../../../lib/32b/libbsp.a(startfilesystem.o)
 .rodata        0x0812af70       0x90 ../../../../lib/32b/libbsp.a(rtc.o)
 .rodata        0x0812b000       0x70 ../../../../lib/32b/libbsp.a(netos_serl.o)
 .rodata        0x0812b070       0x60 ../../../../lib/32b/libbsp.a(udpdb.o)
 .rodata        0x0812b0d0      0xb4c ../../../../lib/32b/libbsp.a(bsp.o)
                0x0812b0d4                NAOptRegRsyncMask
                0x0812b0d8                NANetarmInitData
                0x0812bb9c                NAInterruptPriority
                0x0812baec                NA_PLL_TABLE
                0x0812b0d0                NAOptRegWaitAndBurstMask
 .rodata        0x0812bc1c      0x128 ../../../../lib/32b/libbsp.a(bsproot.o)
 .rodata        0x0812bd44       0x34 ../../../../lib/32b/libbsp.a(starttcp.o)
 .rodata        0x0812bd78       0x5c ../../../../lib/32b/libbsp.a(hdlcdvr.o)
 .rodata        0x0812bdd4      0x6c8 ../../../../lib/32b/libbsp.a(aceParams.o)
 .rodata        0x0812c49c        0xc ../../../../lib/32b/libbsp.a(aceCallbacks.o)
 .rodata        0x0812c4a8      0x14c ../../../../lib/32b/libbsp.a(dialog.o)
 .rodata        0x0812c5f4     0x2160 ../../../../lib/32b/libflash.a(naflash.o)
                0x0812c734                AT_AT49BV8011_sector_size_array
                0x0812cc58                AMD_flash_top_sector_erase_cmd
                0x0812da54                AMD_29lv16_write_cmd
                0x0812dd1c                STM_M29W320DB_flash_block_size_array
                0x0812db04                STM_M29W320DB_flash_block_erase_cmd
                0x0812d5e0                STM_M29W800AB_flash_block_size_array
                0x0812cc18                AMD_flash_write_cmd
                0x0812d2a0                amd_29DL323D_bottom_sector_size_array
                0x0812c83c                AT_AT49BV8011T_sector_size_array
                0x0812d890                AMD_29lv16_bottom_sector_erase_cmd
                0x0812c894                AT_flash_AT49BV1614A_sector_erase_cmd
                0x0812cbe8                AMD_flash_id_enter_cmd
                0x0812cc00                AMD_flash_id_exit_cmd
                0x0812cde4                amd_top_sector_size_array
                0x0812ce30                AMD_29DL323D_flash_top_sector_erase_cmd
                0x0812d068                AMD_29DL323D_flash_bottom_sector_erase_cmd
                0x0812d548                STM_M29W800AB_flash_block_erase_cmd
                0x0812cb80                SST_39VF800_flash_block_size_array
                0x0812da34                AMD_29lv16_id_enter_cmd
                0x0812da6c                AMD_29lv16_erase_cmd
                0x0812d69c                STM_M29W160DB_flash_block_erase_cmd
                0x0812cc30                AMD_flash_erase_cmd
                0x0812da4c                AMD_29lv16_id_exit_cmd
                0x0812c9cc                AT_AT49BV1614A_sector_size_array
                0x0812cb00                SST_39VF800_flash_block_erase_cmd
                0x0812c65c                AT_flash_erase_cmd
                0x0812ccf8                AMD_flash_bottom_sector_erase_cmd
                0x0812c78c                AT_flash_AT49BV8011T_sector_erase_cmd
                0x0812cd98                amd_bottom_sector_size_array
                0x0812d9a8                amd_29lv16_sector_size_array
                0x0812d804                STM_M29W160DB_flash_block_size_array
                0x0812c684                AT_flash_AT49BV8011_sector_erase_cmd
                0x0812d3bc                amd_29DL323D_top_sector_size_array
 .rodata        0x0812e754        0xc ../../../../lib/32b/libflash.a(naflsem.o)
 .rodata        0x0812e760       0x44 ../../../../lib/32b/libposix.a(posix_thread.o)
 .rodata        0x0812e7a4       0x14 ../../../../lib/32b/libtx.a(tx_timi.o)
 .rodata        0x0812e7b8       0x20 ../../../../lib/32b/libtx.a(tx_gnu.o)
 .rodata        0x0812e7d8       0x1c ../../../../lib/32b/libmanapi.a(man_init.o)
 .rodata        0x0812e7f4       0x50 ../../../../lib/32b/libftpsvr.a(ftposp.o)
 .rodata        0x0812e844      0x66c ../../../../lib/32b/libftpsvr.a(ftpsvr.o)
 .rodata        0x0812eeb0       0xc8 ../../../../lib/32b/libtelnsvr.a(ts_mod.o)
 .rodata        0x0812ef78      0x110 ../../../../lib/32b/libtelnsvr.a(telnetd2.o)
 .rodata        0x0812f088        0x8 ../../../../lib/32b/libtelnsvr.a(ttgetc.o)
 .rodata        0x0812f090       0x28 ../../../../lib/32b/libtcpip.a(ncdid.o)
                0x0812f090                Fversion
 .rodata        0x0812f0b8      0x100 ../../../../lib/32b/libtcpip.a(strcmpi.o)
 .rodata        0x0812f1b8        0xc ../../../../lib/32b/libtcpip.a(inet_pto.o)
 .rodata        0x0812f1c4       0x20 ../../../../lib/32b/gnu/libc.a(vfiprintf.o)
 .rodata        0x0812f1e4        0x8 ../../../../lib/32b/librphttpd.a(RpForm.o)
 .rodata        0x0812f1ec      0x1d0 ../../../../lib/32b/librphttpd.a(RpHtml.o)
 .rodata        0x0812f3bc      0x358 ../../../../lib/32b/librphttpd.a(RpHttp.o)
 .rodata        0x0812f714      0x218 ../../../../lib/32b/librphttpd.a(RmSmtp.o)
 .rodata        0x0812f92c       0x14 ../../../../lib/32b/librphttpd.a(AsCommon.o)
 .rodata        0x0812f940       0x98 ../../../../lib/32b/librphttpd.a(AsDate.o)
 .rodata        0x0812f9d8      0x29c ../../../../lib/32b/librphttpd.a(AsMimes.o)
 .rodata        0x0812fc74       0x4c ../../../../lib/32b/librphttpd.a(AsBase64.o)
 .rodata        0x0812fcc0       0x64 ../../../../lib/32b/librphttpd.a(Sfil.o)
 .rodata        0x0812fd24       0x34 ../../../../lib/32b/librphttpd.a(RpAccess.o)
 .rodata        0x0812fd58      0x478 ../../../../lib/32b/librphttpd.a(RpData.o)
 .rodata        0x081301d0       0x38 ../../../../lib/32b/librphttpd.a(RpHttpDy.o)
 .rodata        0x08130208        0x4 ../../../../lib/32b/librphttpd.a(mcfil.o)
 .rodata        0x0813020c       0x20 ../../../../lib/32b/librphttpd.a(RpHttpRq.o)
 .rodata        0x0813022c      0x184 ../../../../lib/32b/librphttpd.a(RpHttpPs.o)
 .rodata        0x081303b0        0x4 ../../../../lib/32b/librphttpd.a(RpFile.o)
 .rodata        0x081303b4        0x4 ../../../../lib/32b/librphttpd.a(RmMailer.o)
 .rodata        0x081303b8      0x2b4 ../../../../lib/32b/librphttpd.a(PrPop3.o)
                0x081303b8                gUuencodeTranslationTable
 .rodata        0x0813066c       0x10 ../../../../lib/32b/librphttpd.a(RpUrl.o)
 .rodata        0x0813067c        0x4 ../../../../lib/32b/librphttpd.a(PrRomPop.o)
 .rodata        0x08130680        0x4 ../../../../lib/32b/libsnmp.a(snmpvar.o)
 .rodata        0x08130684       0x18 ../../../../lib/32b/libsnmp.a(traps.o)
 .rodata        0x0813069c       0x44 ../../../../lib/32b/libsnmp.a(os_deps.o)
 .rodata        0x081306e0       0xb8 ../../../../lib/32b/libsnmp.a(sys_var.o)
 .rodata        0x08130798       0x7c ../../../../lib/32b/libsnmp.a(sys_local.o)
 .rodata        0x08130814        0xc ../../../../lib/32b/libsnmp.a(tcpip_local.o)
 .rodata        0x08130820      0x158 ../../../../lib/32b/libmanMib.a(MibMan.o)
 .rodata        0x08130978      0x814 ../../../../lib/32b/libmanMib.a(RFC1213_MIB.o)
 .rodata        0x0813118c      0x324 ../../../../lib/32b/libmanMib.a(SNMPv2_MIB.o)
 .rodata        0x081314b0       0x78 ../../../../lib/32b/libsntp.a(UDPsntp.o)
 .rodata        0x08131528      0x168 ../../../../lib/32b/libfilesys.a(fss.o)
 .rodata        0x08131690      0x110 ../../../../lib/32b/libfilesys.a(fs_api.o)
 .rodata        0x081317a0        0x4 ../../../../lib/32b/libfilesys.a(io.o)
 .rodata        0x081317a4        0x4 ../../../../lib/32b/libfilesys.a(parser.o)
 .rodata        0x081317a8        0x8 ../../../../lib/32b/libfilesys.a(services.o)
 .rodata        0x081317b0       0x20 ../../../../lib/32b/libbsp.a(MII.o)
 .rodata        0x081317d0       0x18 ../../../../lib/32b/libbsp.a(eth_init.o)
 .rodata        0x081317e8       0x7c ../../../../lib/32b/libbsp.a(eth_isr.o)
 .rodata        0x08131864       0x74 ../../../../lib/32b/libbsp.a(eth_os.o)
                0x081318c8                ETH_RX_INT_FLAG
 .rodata        0x081318d8       0x18 ../../../../lib/32b/libbsp.a(eth_stack.o)
 .rodata        0x081318f0       0xc8 ../../../../lib/32b/libemailc.a(allegro_mailc.o)
 *(.rodata.*)
 .rodata.str1.4
                0x081319b8        0x2 ../../../../lib/32b/gnu/libc.a(impure.o)
                                  0x4 (size before relaxing)
 *fill*         0x081319ba        0x2
 .rodata.str1.4
                0x081319bc       0x53 ../../../../lib/32b/gnu/libc.a(vfprintf.o)
                                 0x5c (size before relaxing)
 *fill*         0x08131a0f        0x1
 .rodata.str1.4
                0x08131a10        0x5 ../../../../lib/32b/gnu/libc.a(vfscanf.o)
                                  0x8 (size before relaxing)
 *fill*         0x08131a15        0x3
 .rodata.str1.4
                0x08131a18        0x9 ../../../../lib/32b/gnu/libc.a(dtoa.o)
                                 0x14 (size before relaxing)
 *fill*         0x08131a21        0x3
 .rodata.str1.4
                0x08131a24        0xf ../../../../lib/32b/gnu/libc.a(locale.o)
                                 0x18 (size before relaxing)
 *fill*         0x08131a33        0x1
 .rodata.str1.4
                0x08131a34       0x16 ../../../../lib/32b/libtcpip.a(ace_os.o)
                                 0x18 (size before relaxing)
 *fill*         0x08131a4a        0x2
 .rodata.str1.4
                0x08131a4c       0x17 ../../../../lib/32b/libtcpip.a(fnsrr.o)
                                 0x18 (size before relaxing)
 *fill*         0x08131a63        0x1
 .rodata.str1.4
                0x08131a64       0x22 ../../../../lib/32b/libtcpip.a(ipmisc.o)
                                 0x24 (size before relaxing)
 *fill*         0x08131a86        0x2
 .rodata.str1.4
                0x08131a88       0x24 ../../../../lib/32b/libtcpip.a(llconfig.o)
 .rodata.str1.4
                0x08131aac       0x28 ../../../../lib/32b/libtcpip.a(ncdev.o)
 .rodata.str1.4
                0x08131ad4        0x4 ../../../../lib/32b/libtcpip.a(ncdid.o)
 .rodata.str1.4
                0x08131ad8       0x15 ../../../../lib/32b/libtcpip.a(ncpr.o)
                                 0x18 (size before relaxing)
 *fill*         0x08131aed        0x3
 .rodata.str1.4
                0x08131af0        0x3 ../../../../lib/32b/libtcpip.a(sock.o)
                                  0x4 (size before relaxing)
 *fill*         0x08131af3        0x1
 .rodata.str1.4
                0x08131af4       0x1e ../../../../lib/32b/libtcpip.a(tcpsend.o)
                                 0x20 (size before relaxing)
 *fill*         0x08131b12        0x2
 .rodata.str1.4
                0x08131b14       0x35 ../../../../lib/32b/libtcpip.a(tcpmisc.o)
                                 0x38 (size before relaxing)
 *fill*         0x08131b49        0x3
 .rodata.str1.4
                0x08131b4c       0x2d ../../../../lib/32b/libtcpip.a(igmp.o)
                                 0x30 (size before relaxing)
 *fill*         0x08131b79        0x3
 .rodata.str1.4
                0x08131b7c       0x6d ../../../../lib/32b/libtcpip.a(socketopt.o)
                                 0x70 (size before relaxing)
 *fill*         0x08131be9        0x3
 .rodata.str1.4
                0x08131bec       0x34 ../../../../lib/32b/libtcpip.a(rrtask.o)
 .rodata.str1.4
                0x08131c20       0x23 ../../../../lib/32b/libtcpip.a(gethnama.o)
                                 0x24 (size before relaxing)
 *fill*         0x08131c43        0x1
 .rodata.str1.4
                0x08131c44       0x1f ../../../../lib/32b/libtcpip.a(ppppap.o)
                                 0x20 (size before relaxing)
 *fill*         0x08131c63        0x1
 .rodata.str1.4
                0x08131c64       0xb1 ../../../../lib/32b/libtcpip.a(dhcpapi.o)
                                 0xb4 (size before relaxing)
 *fill*         0x08131d15        0x3
 .rodata.str1.4
                0x08131d18       0x38 ../../../../lib/32b/libtcpip.a(client.o)
 .rodata.str1.4
                0x08131d50       0x79 ../../../../lib/32b/libtcpip.a(pppapi.o)
                                 0x7c (size before relaxing)
 *fill*         0x08131dc9        0x3
 .rodata.str1.4
                0x08131dcc      0x1be ../../../../lib/32b/libtcpip.a(modem.o)
                                0x1c0 (size before relaxing)
 *fill*         0x08131f8a        0x2
 .rodata.str1.4
                0x08131f8c        0xf ../../../../lib/32b/libtcpip.a(uart_bpool.o)
                                 0x10 (size before relaxing)
 *fill*         0x08131f9b        0x1
 .rodata.str1.4
                0x08131f9c       0x4d ../../../../lib/32b/libtcpip.a(osdep.o)
                                 0x50 (size before relaxing)
 *fill*         0x08131fe9        0x3
 .rodata.str1.4
                0x08131fec       0x28 ../../../../lib/32b/libtcpip.a(arp.o)
 .rodata.str1.4
                0x08132014        0xa ../../../../lib/32b/libtcpip.a(res_quer.o)
                                  0xc (size before relaxing)
 *fill*         0x0813201e        0x2
 .rodata.str1.4
                0x08132020       0x46 ../../../../lib/32b/libtcpip.a(pppchap.o)
                                 0x58 (size before relaxing)
 *fill*         0x08132066        0x2
 .rodata.str1.4
                0x08132068       0x36 ../../../../lib/32b/libtcpip.a(if.o)
                                 0x38 (size before relaxing)
 *fill*         0x0813209e        0x2
 .rodata.str1.4
                0x081320a0       0x18 ../../../../lib/32b/libtcpip.a(uart.o)
                                 0x30 (size before relaxing)
 .rodata.str1.4
                0x081320b8       0x36 ../../../../lib/32b/libtcpip.a(bootp.o)
                                 0x38 (size before relaxing)
 *fill*         0x081320ee        0x2
 .rodata.str1.4
                0x081320f0       0x2b ../../../../lib/32b/gnu/libc.a(assert.o)
                                 0x2c (size before relaxing)
 *(.gnu.linkonce.r*)
 *(.glue_7t)
 *fill*         0x0813211b        0x1
 *(.glue_7)
 *(.fini)
 *(.rodata1)
 *crtbegin.o(.ctors)
 *(EXCLUDE_FILE ( *crtend.o).ctors)
 *(SORT(.ctors.*))
 *(.ctors)
 *crtbegin.o(.dtors)
 *(EXCLUDE_FILE ( *crtend.o).dtors)
 *(SORT(.dtors.*))
 *(.dtors)
                0x0813211c                _endtext = .

restartBuf      0x00000400      0x410 load address 0x0813211c
                0x00000400                gnu_initdata = .
                0x00000800                . = (. + 0x400)
 *fill*         0x00000400      0x400
                0x00000800                gnu_nccdata = .
                0x00000810                . = (. + 0x10)
 *fill*         0x00000800       0x10

.data           0x00204000    0x1f9b0 load address 0x0813252c
                0x0813252c                _etext = (_endtext +  SIZEOF (restartBuf))
                0x00204000                __data_start__ = .
 *(.data)
 .data          0x00204000      0x2b4 ./objs/root.o
                0x002042a8                g_serialBufferWrapped
                0x002042a0                g_serialReadIdx
                0x00204260                MinElapse
                0x00204274                SWType
                0x00204279                PwrType
                0x00204284                root_break_count
                0x0020427c                alarmAppFlag
                0x002042b0                g_serialLostCharNoSemaphore
                0x0020427a                SpecPattern
                0x002042ac                g_serialBufferOverrun
                0x002042a4                g_serialWriteIdx
                0x00204270                BankIndex
                0x00204264                TrapPeriod
                0x0020425c                MinCount
                0x0020428c                g_alarmApp_caret
                0x00204268                FirstTimeIn
                0x00204280                APP_BURN_IN_TEST
                0x0020426c                m
                0x00204278                productSWType
 .data          0x002042b4     0x2dec ./objs/EARMIB.o
                0x00206a00                earCurrentSetpointValueEventTrap
                0x00207030                earSnmpPortSetEventTrap
                0x00206e20                earChassisRebootEventTrap
                0x00206c68                earRelayOutputPowerTooHighAlarmEventTrap
                0x00206480                earEdfaAlarmPumpClearedTrap
                0x00205520                EARMIBGroup5
                0x00206168                earEdfaAlarmInterlockClearedTrap
                0x00206d70                earPowerSafetyModeEventTrap
                0x00205980                earEdfaAlarmInterlockTrap
                0x002058d0                earEdfaAlarmOutputOffTrap
                0x00206d18                earRelayAmbientTemperatureAlarmEventTrap
                0x00204458                earSnmpMngrTableIndices
                0x002065e0                earEdfaAlarmInput2OffClearedTrap
                0x00206008                earEdfaAlarmInputHighClearedTrap
                0x00205f00                earEdfaAlarmOutputHighClearedTrap
                0x002067f0                earTelnetTimeoutEventTrap
                0x00206ab0                earRelayInputPowerLowAlarmEventTrap
                0x00206378                earEdfaAlarmOutput2LowClearedTrap
                0x00206848                earIPAddressEventTrap
                0x00206428                earEdfaAlarmOutput2TooHighClearedTrap
                0x00206638                earControlModeEventTrap
                0x00204480                earEventTableIndices
                0x00204de8                EARMIBGroup3
                0x00206a58                earInputPowerLowAlarmLevelEventTrap
                0x00206320                earEdfaAlarmOutput2OffClearedTrap
                0x00206530                earEdfaAlarmInput2HighClearedTrap
                0x00206690                earRtcEventTrap
                0x002061c0                earEdfaAlarmPowerSupply1ClearedTrap
                0x00206950                earGainControlSetpointEventTrap
                0x00207088                earSnmp15MinAliveEventTrap
                0x00206fd8                earTemperatureAlarmThresholdEventTrap
                0x00205878                earEdfaAlarmInputLowTrap
                0x00204890                EARMIBGroup2
                0x00205ea8                earEdfaAlarmOutputTooHighClearedTrap
                0x00205b90                earEdfaAlarmOutput2LowTrap
                0x0020437c                EARMIB
                0x00205f58                earEdfaAlarmOutputLowClearedTrap
                0x00206ed0                earMgmtStationRemoveEventTrap
                0x002056c0                earEdfaAlarmOutputTooHighTrap
                0x00206b60                earRelayInputPowerTooHighAlarmEventTrap
                0x00206e78                earMgmtStationAddEventTrap
                0x00205668                earEdfaAlarmFanTrap
                0x00204494                earHistoryTableIndices
                0x00205be8                earEdfaAlarmOutput2HighTrap
                0x00206dc8                earPumpsOffEventTrap
                0x00206f80                earPublicCommunityStrEventTrap
                0x00206740                earDigiFirmwareConfirmEventTrap
                0x00205c98                earEdfaAlarmPumpTrap
                0x002059d8                earEdfaAlarmPowerSupply1Trap
                0x002068f8                earGatewayEventTrap
                0x002062c8                earEdfaAlarmKeyswitchClearedTrap
                0x002064d8                earEdfaAlarmInput2TooHighClearedTrap
                0x00205c40                earEdfaAlarmOutput2TooHighTrap
                0x002053c0                EARMIBGroup4
                0x002068a0                earSubnetMaskEventTrap
                0x00205928                earEdfaAlarmInputOffTrap
                0x00206cc0                earRelayFanFailureAlarmEventTrap
                0x002060b8                earEdfaAlarmOutputOffClearedTrap
                0x00206798                earUpgradeDigiFirmwareEventTrap
                0x00206060                earEdfaAlarmInputLowClearedTrap
                0x00206270                earEdfaAlarmPowerSafetyModeClearedTrap
                0x00206b08                earRelayInputPowerHighAlarmEventTrap
                0x00205e50                earEdfaAlarmFanClearedTrap
                0x00205df8                earEdfaAlarmTemperatureClearedTrap
                0x00205610                earEdfaAlarmTemperatureTrap
                0x00205ae0                earEdfaAlarmKeyswitchTrap
                0x00205820                earEdfaAlarmInputHighTrap
                0x00205da0                earEdfaAlarmInput2LowTrap
                0x00205718                earEdfaAlarmOutputHighTrap
                0x0020446c                earAlarmTableIndices
                0x002063d0                earEdfaAlarmOutput2HighClearedTrap
                0x00206c10                earRelayOutputPowerHighAlarmEventTrap
                0x00205b38                earEdfaAlarmOutput2OffTrap
                0x00205770                earEdfaAlarmOutputLowTrap
                0x00206110                earEdfaAlarmInputOffClearedTrap
                0x00205cf0                earEdfaAlarmInput2TooHighTrap
                0x002066e8                earSelectedFirmwareBankEventTrap
                0x00206588                earEdfaAlarmInput2LowClearedTrap
                0x00205a30                earEdfaAlarmPowerSupply2Trap
                0x002057c8                earEdfaAlarmInputTooHighTrap
                0x00205d48                earEdfaAlarmInput2HighTrap
                0x00205a88                earEdfaAlarmPowerSafetyModeTrap
                0x00206218                earEdfaAlarmPowerSupply2ClearedTrap
                0x0020449c                EARMIBGroup1
                0x00206f28                earPrivateCommunityStrEventTrap
                0x002069a8                earOutputPowerSetpointEventTrap
                0x00205fb0                earEdfaAlarmInputTooHighClearedTrap
                0x00206bb8                earRelayOutputPowerLowAlarmEventTrap
 .data          0x002070a0       0x48 ./objs/EARMIBAction.o
                0x002070b6                alreadyREAD
                0x002070a4                semWaitCount
                0x002070ac                lowPowerSetpoint
                0x002070bc                earPowerSafetyModeWrite_length
                0x002070b8                count
                0x002070a8                savedIntVal
                0x002070b0                lowCurrentSetpoint
                0x002070b4                chassisReset
                0x002070a0                SNMPAppFlag
 .data          0x002070e8       0x8c ./objs/ipgFlash.o
 .data          0x00207174      0x2e4 ./objs/menu.o
                0x0020717c                g_snmp_send_trap_last_result
                0x00207178                g_snmp_send_trap_failed
                0x002071fc                subnet_mask_menu
                0x00207180                g_snmp_send_alive_trap_period
                0x00207174                g_snmp_send_trap_timeout
                0x002072bc                telnet_menu_array
                0x002073ec                AlarmReportStrings
 .data          0x00207458        0x1 ./objs/ipgsnmp.o
                0x00207458                TrapFirstTimeIn
 *fill*         0x00207459        0x3
 .data          0x0020745c        0x4 ./objs/earTemperatureAlarmThreshold.o
                0x0020745c                earTemperatureAlarmThresholdRead_length
 .data          0x00207460       0x18 ./objs/earSnmpMngrTable.o
                0x00207474                MTWlastActionCode
                0x00207460                MTWrow
                0x00207470                MTWstartedUndo
                0x00207464                MTWsnmpIndex
                0x0020746c                MTWdidWrite
                0x00207468                MTWisInsert
 .data          0x00207478        0x4 ./objs/earPumpsOff.o
                0x00207478                earPumpsOffRead_length
 .data          0x0020747c        0x4 ./objs/earChassisReboot.o
 .data          0x00207480        0x4 ./objs/earRtcTime.o
                0x00207480                g_rtc_snmp_result
 .data          0x00207484       0x20 ./objs/readFrom2U2.o
                0x0020749c                g_readFrom2U2_mark
                0x002074a0                g_readFrom2U2_2U
                0x00207484                g_readFrom2U2_cant_happen
                0x00207494                g_readFrom2U2_returns
                0x00207498                g_readFrom2U2_EOS
                0x0020748c                g_readFrom2U2_reset_control_variable
                0x00207490                g_readFrom2U2_getchar_calls
                0x00207488                g_readFrom2U2_garbage_in_buffer
 .data          0x002074a4      0x248 ./objs/semaphores.o
                0x00207610                hist_tries
                0x00207678                sbuf_get_who
                0x0020751c                prm_get_who
                0x00207690                semaphore_sbuf_info
                0x0020760c                hist_gotten
                0x002074ac                semaphore_0_unwedged
                0x00207684                sbuf_tries
                0x0020761c                semaphore_history_table_info
                0x002074b8                get_who
                0x00207608                hist_put_who
                0x00207618                hist_get_failed
                0x002074bc                put_who
                0x00207528                prm_tries
                0x002075a4                rtc_get_failed
                0x00207614                hist_unwedged
                0x002075a8                semaphore_rtc_info
                0x0020759c                rtc_tries
                0x00207598                rtc_gotten
                0x00207590                rtc_get_who
                0x00207594                rtc_put_who
                0x00207524                prm_gotten
                0x0020752c                prm_unwedged
                0x0020768c                sbuf_get_failed
                0x00207604                hist_get_who
                0x00207520                prm_put_who
                0x00207530                prm_get_failed
                0x002074b4                InsertSnmpRowFailed
                0x002074b0                get_failed
                0x0020767c                sbuf_put_who
                0x00207534                semaphore_nvParams_info
                0x002074a4                semaphore_0_gotten
                0x00207680                sbuf_gotten
                0x002074a8                semaphore_0_tries
                0x002074c0                semaphore_0_info
                0x002075a0                rtc_unwedged
                0x00207688                sbuf_unwedged
 .data          0x002076ec      0x160 ./objs/Snmp_api.o
                0x00207740                sysdescription
                0x002076ec                SNMP_ENTERPRISE
                0x002077a8                syslocation
                0x002076f0                SNMP_TRAP_DESTINATION_ADDRESS
                0x00207768                syscontact
                0x00207828                snmpd_loaded
                0x00207788                sysname
                0x00207724                SNMP_TRAP_COMMUNITY_STRING
                0x0020773c                SNMP_ENABLE_SNMP
                0x002076f4                SNMP_READ_COMMUNITY_STRING
                0x0020770c                SNMP_WRITE_COMMUNITY_STRING
 .data          0x0020784c       0x88 ./objs/configNotification.o
                0x0020784c                theStrings
                0x002078cc                g_snmp_toggle
                0x002078d0                g_snmp_mgmt_stn_idx
 .data          0x002078d4     0xf848 ./objs/EDFAWelcomePage.o
                0x0021172c                PgEDFAAlarmsStatus
                0x0020c124                PgEDFAChassisManager
                0x00216430                PgEDFA_stylesheet
                0x00217100                PgEDFA_Utils
                0x0020c030                PgEDFAChassisManager_Form_1
                0x0020f6a4                PgEDFAThresholdSettings
                0x00208424                PgEDFAWelcomePage
                0x0020aeec                PgEDFAGeneralSettings
                0x0020d618                PgEDFANetworkAdministration
 .data          0x0021711c       0x7c ./objs/EDFAWelcomePage_v.o
                0x0021712c                temperatureHighAlarm
                0x00217188                boosterOutHighAlarm
                0x00217128                earCurrentSetpointValue_temp
                0x00217158                powerSupply1Alarm
                0x00217178                boosterInLowAlarm
                0x00217140                preAmpInTooHighAlarm
                0x00217120                earPumpLaserCurrent_temp
                0x0021718c                boosterOutTooHighAlarm
                0x00217160                systemFuseAlarm
                0x00217124                earPumpLaserCurrent2_temp
                0x0021715c                powerSupply2Alarm
                0x00217194                backReflectorAlarm
                0x0021713c                preAmpOutLowAlarm
                0x00217148                preAmpInLowAlarm
                0x00217154                interlockAlarm
                0x0021716c                b48VBOffAlarm
                0x0021711c                earMaximumCurrentSetpoint_temp
                0x00217164                powerSafetyModeAlarm
                0x0021717c                boosterInOffAlarm
                0x0021714c                preAmpOutOffAlarm
                0x00217190                pumpCurrentAlarm
                0x00217180                boosterOutOffAlarm
                0x00217184                boosterOutLowAlarm
                0x00217130                preAmpOutTooHighAlarm
                0x00217138                preAmpOutHighAlarm
                0x00217170                boosterInTooHighAlarm
                0x00217174                boosterInHighAlarm
                0x00217168                a48VAOffAlarm
                0x00217150                preAmpInOffAlarm
                0x00217144                preAmpInHighAlarm
                0x00217134                fanFailureAlarm
 .data          0x00217198       0x30 ./objs/RpPages.o
                0x00217198                gRpObjectList
                0x002171c0                gRpMasterObjectList
 .data          0x002171c8      0x128 ./objs/RpUsrDct.o
                0x002171c8                gUserPhrasesEnglish
 .data          0x002172f0       0x18 ./objs/naftpapp.o
 .data          0x00217308      0x380 ../../../../lib/32b/gnu/libc.a(impure.o)
                0x00217684                _impure_ptr
 .data          0x00217688      0x444 ../../../../lib/32b/gnu/libc.a(mallocr.o)
                0x00217a94                __malloc_top_pad
                0x00217a9c                __malloc_max_sbrked_mem
                0x00217a98                __malloc_sbrk_base
                0x00217aa4                __malloc_current_mallinfo
                0x00217688                __malloc_av_
                0x00217aa0                __malloc_max_total_mem
                0x00217a90                __malloc_trim_threshold
 .data          0x00217acc       0x54 ../../../../lib/32b/gnu/libc.a(tzset_r.o)
                0x00217ad8                _daylight
                0x00217ae4                __tznorth
                0x00217ae0                __tzyear
                0x00217ad0                _tzname
                0x00217adc                _timezone
                0x00217ae8                __tzrule
 .data          0x00217b20        0x8 ../../../../lib/32b/gnu/libc.a(syscalls.o)
 .data          0x00217b28        0x4 ../../../../lib/32b/gnu/libc.a(ctype_.o)
                0x00217b28                __ctype_ptr
 .data          0x00217b2c        0x4 ../../../../lib/32b/gnu/libc.a(getenv_r.o)
 .data          0x00217b30       0x20 ../../../../lib/32b/gnu/libc.a(locale.o)
                0x00217b30                __mb_cur_max
                0x00217b44                __lc_ctype
                0x00217b34                __nlocale_changed
                0x00217b38                __mlocale_changed
                0x00217b3c                _PathLocale
 .data          0x00217b50        0x4 ../../../../lib/32b/gnu/libc.a(setenv_r.o)
 .data          0x00217b54        0x8 ../../../../lib/32b/gnu/libc.a(environ.o)
                0x00217b58                environ
 .data          0x00217b5c        0x8 ../../../../lib/32b/libbsp.a(errhndlr.o)
                0x00217b5c                naCustomizeErrorHandlerClearToContinue
                0x00217b60                naCustomizeExceptionHandlerClearToContinue
 .data          0x00217b64        0x4 ../../../../lib/32b/libbsp.a(narmbrd.o)
                0x00217b64                g_NAChipRevision
 .data          0x00217b68       0xb4 ../../../../lib/32b/libbsp.a(devices.o)
                0x00217c18                MAX_DEV
                0x00217b68                deviceTable
 .data          0x00217c1c        0xc ../../../../lib/32b/libbsp.a(flashnvrm.o)
 .data          0x00217c28        0xc ../../../../lib/32b/libbsp.a(sysAccess.o)
 .data          0x00217c34       0xc0 ../../../../lib/32b/libbsp.a(nacache.o)
 .data          0x00217cf4        0x8 ../../../../lib/32b/libbsp.a(NCC_INIT.o)
                0x00217cf4                nccPrivateData
                0x00217cf8                nccInitData
 .data          0x00217cfc        0xc ../../../../lib/32b/libbsp.a(NCC_POST.o)
 .data          0x00217d08        0x8 ../../../../lib/32b/libbsp.a(gpio.o)
                0x00217d08                NALedTable
                0x00217d0c                NA_LED_COUNT
 .data          0x00217d10      0xc80 ../../../../lib/32b/libbsp.a(boardParams.o)
                0x00217d10                defaultParams
 .data          0x00218990        0x8 ../../../../lib/32b/libbsp.a(nawait.o)
 .data          0x00218998       0xb4 ../../../../lib/32b/libbsp.a(startfilesystem.o)
                0x0021899c                fs_conf
 .data          0x00218a4c        0x8 ../../../../lib/32b/libbsp.a(rtc.o)
 .data          0x00218a54       0x88 ../../../../lib/32b/libbsp.a(netos_serl.o)
 .data          0x00218adc        0x4 ../../../../lib/32b/libbsp.a(NA_ISR.o)
                0x00218adc                NAIRQMask
 .data          0x00218ae0        0x4 ../../../../lib/32b/libbsp.a(crc32h.o)
 .data          0x00218ae4       0x10 ../../../../lib/32b/libbsp.a(udpdb.o)
 .data          0x00218af4        0x8 ../../../../lib/32b/libbsp.a(bsproot.o)
                0x00218af4                bsp_kernel_started
                0x00218af8                ip_configured
 .data          0x00218afc       0x7c ../../../../lib/32b/libbsp.a(starttcp.o)
 .data          0x00218b78       0x68 ../../../../lib/32b/libbsp.a(hdlcdvr.o)
                0x00218bdc                hdlc_nrip_cnt
                0x00218b78                serl_resource_lock
 .data          0x00218be0      0x6b4 ../../../../lib/32b/libbsp.a(aceParams.o)
 .data          0x00219294       0x64 ../../../../lib/32b/libbsp.a(aceCallbacks.o)
 .data          0x002192f8       0x10 ../../../../lib/32b/libbsp.a(dialog.o)
 .data          0x00219308       0x28 ../../../../lib/32b/libflash.a(naflash.o)
                0x00219310                total_flash_memory
                0x00219314                NAFlashGetSemaphore
                0x0021930c                flash_banks
                0x00219318                NAFlashPutSemaphore
 .data          0x00219330        0x4 ../../../../lib/32b/libflash.a(naflsem.o)
 .data          0x00219334        0x4 ../../../../lib/32b/libposix.a(posix_semaphore.o)
                0x00219334                _posix_sem_created_ptr
 .data          0x00219338        0xc ../../../../lib/32b/libposix.a(posix_thread.o)
 .data          0x00219344       0xbc ../../../../lib/32b/libtx.a(tx_ti.o)
                0x002193a0                _tx_thread_system_state
                0x00219344                _tx_version_id
                0x002193a4                _tx_thread_special_string
 .data          0x00219400       0x28 ../../../../lib/32b/libmanapi.a(man_init.o)
                0x00219404                manTableSize
                0x00219410                initializationComplete
                0x00219400                manMasterList
                0x0021941c                manHashTable
                0x00219418                manVarAccessCounter
                0x00219420                manHashTableSizeP2
                0x00219414                manSemaphore
                0x00219408                manSublistCount
 .data          0x00219428        0x4 ../../../../lib/32b/libftpsvr.a(ftposp.o)
                0x00219428                g_ftpsosp
 .data          0x0021942c        0xc ../../../../lib/32b/libftpsvr.a(ftpsvr.o)
                0x0021942c                g_ftpsvrp
                0x00219434                use_write_mask
                0x00219430                g_ftp_configp
 .data          0x00219438       0x3c ../../../../lib/32b/libtelnsvr.a(ts_mod.o)
                0x00219462                ts_do_noga_opt
                0x00219440                ts_buffer_tab
                0x00219444                TS_MAX_ENTRIES
                0x00219450                ts_will_noga_opt
                0x0021945f                ts_wont_txbinary_opt
                0x00219468                ts_do_echo_opt
                0x00219456                ts_will_echo_opt
                0x00219465                ts_dont_noga_opt
                0x00219438                ts_entry_tab
                0x0021945c                ts_will_txbinary_opt
                0x0021944c                TS_MAX_USER_SESSIONS
                0x00219471                ts_dont_txbinary_opt
                0x00219459                ts_wont_echo_opt
                0x0021943c                ts_session_tab
                0x00219448                TS_MAX_SESSIONS
                0x0021946b                ts_dont_echo_opt
                0x0021946e                ts_do_txbinary_opt
                0x00219453                ts_wont_noga_opt
 .data          0x00219474        0x2 ../../../../lib/32b/libtelnsvr.a(telnetd2.o)
                0x00219474                ts_ga_cmd
 *fill*         0x00219476        0x2
 .data          0x00219478       0xf0 ../../../../lib/32b/libtelnsvr.a(ttfsm.o)
                0x00219478                ttstab
 .data          0x00219568        0x8 ../../../../lib/32b/libtelnsvr.a(ttgetc.o)
                0x00219568                asterisk
 .data          0x00219570       0x1c ../../../../lib/32b/libfastip.a(fast_ip.o)
                0x00219570                fastip_is_up
                0x00219588                FAST_IP_RX_CNT
                0x00219574                fipCouldntReply
 .data          0x0021958c       0x18 ../../../../lib/32b/libtcpip.a(ace.o)
 .data          0x002195a4        0xc ../../../../lib/32b/libtcpip.a(ace_os.o)
 .data          0x002195b0        0x8 ../../../../lib/32b/libtcpip.a(ace_dhcp.o)
                0x002195b0                ace_dhcp_event_info_size
 .data          0x002195b8        0x4 ../../../../lib/32b/libtcpip.a(ace_bootp.o)
                0x002195b8                ace_bootp_event_info_size
 .data          0x002195bc        0x8 ../../../../lib/32b/libtcpip.a(fnsrr.o)
                0x002195bc                router_initialized
                0x002195c0                RtrDisc_clock
 .data          0x002195c4        0xc ../../../../lib/32b/libtcpip.a(heap.o)
 .data          0x002195d0        0x8 ../../../../lib/32b/libtcpip.a(ipfrag.o)
                0x002195d4                ip_reassembly_ttl
 .data          0x002195d8       0x34 ../../../../lib/32b/libtcpip.a(ipmisc.o)
                0x002195d8                ip_forwarding_enabled
 .data          0x0021960c       0x18 ../../../../lib/32b/libtcpip.a(lkheap.o)
                0x0021961c                heap_size
                0x00219614                h_size
                0x0021960c                h_startp
                0x00219618                h_lowest
                0x00219610                h_avail
 .data          0x00219624        0x1 ../../../../lib/32b/libtcpip.a(llconfig.o)
 .data          0x00219625       0x40 ../../../../lib/32b/libtcpip.a(md5.o)
 *fill*         0x00219665        0x3
 .data          0x00219668      0x20c ../../../../lib/32b/libtcpip.a(ncaf.o)
                0x00219870                lltbl_size
                0x002197a8                ahp_tbl
                0x00219840                llahp_tbl
                0x00219768                n_llaf
                0x00219808                n_af
 .data          0x00219874      0x4a4 ../../../../lib/32b/libtcpip.a(ncdev.o)
                0x00219874                ndevsw
 .data          0x00219d18        0x8 ../../../../lib/32b/libtcpip.a(ncdid.o)
                0x00219d1c                t_initialized
                0x00219d18                Finitialized
 .data          0x00219d20       0xe0 ../../../../lib/32b/libtcpip.a(ncmisc.o)
                0x00219d54                fns_netstat_ipFragCreates
                0x00219dbc                fns_netstat_icmpOutTimestamps
                0x00219ddc                fns_netstat_tcpActiveOpens
                0x00219d48                fns_netstat_ipOutRequests
                0x00219d20                fns_netstat_ipInDelivers
                0x00219d94                fns_netstat_icmpInAddrMasks
                0x00219d30                fns_netstat_ipInUnknownProtos
                0x00219dac                fns_netstat_icmpOutSrcQuenchs
                0x00219d70                fns_netstat_icmpInTimeExcds
                0x00219da4                fns_netstat_icmpOutTimeExcds
                0x00219de8                fns_netstat_tcpEstabResets
                0x00219dd4                fns_netstat_udpNoPorts
                0x00219d7c                fns_netstat_icmpInRedirects
                0x00219d50                fns_netstat_ipFragFails
                0x00219d84                fns_netstat_icmpInEchoReps
                0x00219d78                fns_netstat_icmpInSrcQuenchs
                0x00219d34                fns_netstat_ipInDiscards
                0x00219dc8                fns_netstat_icmpOutAddrMaskReps
                0x00219d98                fns_netstat_icmpOutMsgs
                0x00219dec                fns_netstat_tcpInSegs
                0x00219d80                fns_netstat_icmpInEchos
                0x00219d90                fns_netstat_icmpInAddrMaskReps
                0x00219da0                fns_netstat_icmpOutDestUnreachs
                0x00219db4                fns_netstat_icmpOutEchos
                0x00219d5c                fns_netstat_ipOutNoRoutes
                0x00219db0                fns_netstat_icmpOutRedirects
                0x00219d68                fns_netstat_icmpInErrors
                0x00219dfc                fns_netstat_tcpOutRsts
                0x00219d4c                fns_netstat_ipFragOKs
                0x00219df4                fns_netstat_tcpRetransSegs
                0x00219d28                fns_netstat_ipReasmOKs
                0x00219df0                fns_netstat_tcpOutSegs
                0x00219de4                fns_netstat_tcpAttemptFails
                0x00219d9c                fns_netstat_icmpOutErrors
                0x00219d58                fns_netstat_ipOutDiscards
                0x00219d6c                fns_netstat_icmpInDestUnreachs
                0x00219de0                fns_netstat_tcpPassiveOpens
                0x00219dc4                fns_netstat_icmpOutAddrMasks
                0x00219df8                fns_netstat_tcpInErrs
                0x00219d88                fns_netstat_icmpInTimestamps
                0x00219da8                fns_netstat_icmpOutParmProbs
                0x00219d74                fns_netstat_icmpInParmProbs
                0x00219db8                fns_netstat_icmpOutEchoReps
                0x00219dd0                fns_netstat_udpInDatagrams
                0x00219d8c                fns_netstat_icmpInTimestampReps
                0x00219d60                fns_netstat_ipRoutingDiscards
                0x00219dd8                fns_netstat_udpOutDatagrams
                0x00219d24                fns_netstat_ipReasmReqds
                0x00219d38                fns_netstat_ipInReceives
                0x00219d3c                fns_netstat_ipInHdrErrors
                0x00219d44                fns_netstat_ipInAddrErrors
                0x00219d40                fns_netstat_ipForwDatagrams
                0x00219dcc                fns_netstat_udpInErrors
                0x00219d64                fns_netstat_icmpInMsgs
                0x00219d2c                fns_netstat_ipReasmFails
                0x00219dc0                fns_netstat_icmpOutTimestampReps
 .data          0x00219e00      0x190 ../../../../lib/32b/libtcpip.a(ncpr.o)
 .data          0x00219f90        0x4 ../../../../lib/32b/libtcpip.a(secure.o)
                0x00219f90                SNMPUserList
 .data          0x00219f94        0x4 ../../../../lib/32b/libtcpip.a(timer.o)
 .data          0x00219f98        0x4 ../../../../lib/32b/libtcpip.a(udpnetd.o)
                0x00219f98                udp_memory_recovery_pending
 .data          0x00219f9c       0x38 ../../../../lib/32b/libtcpip.a(tcpnetd.o)
 .data          0x00219fd4        0x4 ../../../../lib/32b/libtcpip.a(tcpsend.o)
                0x00219fd4                sctr
 .data          0x00219fd8      0x180 ../../../../lib/32b/libtcpip.a(tcpsock.o)
 .data          0x0021a158       0x14 ../../../../lib/32b/libtcpip.a(tcpmisc.o)
                0x0021a164                tcp_max_rex_delay
                0x0021a15a                tcp_ka_type
                0x0021a160                tcp_min_rex_delay
                0x0021a168                tcp_last_targeted_svp
                0x0021a15c                tcp_initial_rex_delay
                0x0021a158                tcp_def_ttl
 .data          0x0021a16c        0xc ../../../../lib/32b/libtcpip.a(tcptrans.o)
 .data          0x0021a178        0x4 ../../../../lib/32b/libtcpip.a(igmp.o)
 .data          0x0021a17c      0x160 ../../../../lib/32b/libtcpip.a(socketopt.o)
 .data          0x0021a2dc       0x7c ../../../../lib/32b/libtcpip.a(sockapi.o)
                0x0021a336                bsdNetErrorCodes
                0x0021a2fc                sockLocalfd
                0x0021a308                bsdErrorCodes
                0x0021a2dc                NAserialComPortFds
 .data          0x0021a358        0x1 ../../../../lib/32b/libtcpip.a(autoip.o)
 *fill*         0x0021a359        0x3
 .data          0x0021a35c      0x110 ../../../../lib/32b/libtcpip.a(rripfdb.o)
                0x0021a35c                i_node
                0x0021a364                totalAddrs
                0x0021a36c                localTable
                0x0021a360                addrsIndex
                0x0021a368                pTable
 .data          0x0021a46c       0x80 ../../../../lib/32b/libtcpip.a(rripfwd.o)
 .data          0x0021a4ec        0x1 ../../../../lib/32b/libtcpip.a(rrtask.o)
                0x0021a4ec                router_events
 *fill*         0x0021a4ed        0x3
 .data          0x0021a4f0        0x4 ../../../../lib/32b/libtcpip.a(dnscache.o)
                0x0021a4f0                p_dns_cache
 .data          0x0021a4f4      0x7e8 ../../../../lib/32b/libtcpip.a(pppfsm.o)
                0x0021a52c                ppp_stab
                0x0021a4f4                ppp_action_table
                0x0021acc4                ppp_get_actions_by_layer
                0x0021acac                ppp_get_trans_by_layer
 .data          0x0021acdc       0x48 ../../../../lib/32b/libtcpip.a(pppipcp.o)
                0x0021acdc                g_ipcp_default
                0x0021ad0c                g_ipcp_theirdefaultconfig
                0x0021acf4                g_ipcp_mydefaultconfig
 .data          0x0021ad24       0x34 ../../../../lib/32b/libtcpip.a(ppplcp.o)
                0x0021ad48                g_lcp_theirdefaultconfig
                0x0021ad28                g_lcp_default
                0x0021ad38                g_lcp_mydefaultconfig
 .data          0x0021ad58      0x290 ../../../../lib/32b/libtcpip.a(ppppap.o)
                0x0021ad58                bIsPap
                0x0021ad5c                pap_action_table
                0x0021ad90                pap_auth_stab
 .data          0x0021afe8        0x4 ../../../../lib/32b/libtcpip.a(pppsend.o)
 .data          0x0021afec        0x4 ../../../../lib/32b/libtcpip.a(pppsess.o)
                0x0021afec                fns_ppp_event_callback
 .data          0x0021aff0      0x200 ../../../../lib/32b/libtcpip.a(ppputil.o)
 .data          0x0021b1f0      0x4cc ../../../../lib/32b/libtcpip.a(pppauth.o)
                0x0021b1f0                ppp_server_data
                0x0021b6b8                ppp_auth_agent
 .data          0x0021b6bc        0x4 ../../../../lib/32b/libtcpip.a(pppuapi.o)
                0x0021b6bc                p_ppp_driver_list
 .data          0x0021b6c0       0x18 ../../../../lib/32b/libtcpip.a(dhcpapi.o)
                0x0021b6c0                OPTION_FIELDLENGTH
                0x0021b6c4                SIZEOF_DHCP_MESSAGE
                0x0021b6d4                dhcp_callback_event
 .data          0x0021b6d8       0xb4 ../../../../lib/32b/libtcpip.a(client.o)
                0x0021b6e0                BeRFC1541
                0x0021b784                mac_bcast_addr
 .data          0x0021b78c       0x68 ../../../../lib/32b/libtcpip.a(pppapi.o)
                0x0021b78c                ppp_interfaces
 .data          0x0021b7f4        0x8 ../../../../lib/32b/libtcpip.a(modem.o)
 .data          0x0021b7fc        0xc ../../../../lib/32b/libtcpip.a(osdep.o)
                0x0021b800                rooster_preemption_level
                0x0021b804                am_critical
                0x0021b7fc                rooster_thread
 .data          0x0021b808      0x148 ../../../../lib/32b/libtcpip.a(bdoptlib.o)
                0x0021b808                OptionTable
 .data          0x0021b950        0x6 ../../../../lib/32b/libtcpip.a(enet.o)
                0x0021b950                fns_bcstring
 *fill*         0x0021b956        0x2
 .data          0x0021b958      0x2d8 ../../../../lib/32b/libtcpip.a(pppchap.o)
                0x0021b990                chap_peer_auth_stab
                0x0021bae0                chap_auth_peer_stab
                0x0021b958                chap_action_table
 .data          0x0021bc30       0x14 ../../../../lib/32b/libtcpip.a(bootp.o)
 .data          0x0021bc44      0x240 ../../../../lib/32b/librphttpd.a(hserv.o)
                0x0021bdd4                errorPageLinkStart
                0x0021bc50                kConnectionMaxIdleTimeout
                0x0021bd54                theUrlReturnTo
                0x0021be54                kStcpNumberOfConnections
                0x0021bc4c                sessionTimeout
                0x0021be58                g_Web_server
                0x0021bc54                deviceName
                0x0021bc44                gCurRealm
                0x0021bc48                gTcpServerPort
                0x0021bcd4                thePagenameReturnTo
 .data          0x0021be84       0x14 ../../../../lib/32b/librphttpd.a(RpHttp.o)
 .data          0x0021be98        0x4 ../../../../lib/32b/librphttpd.a(RmSmtp.o)
                0x0021be98                CharacterSet
 .data          0x0021be9c       0x50 ../../../../lib/32b/librphttpd.a(AsCommon.o)
 .data          0x0021beec       0x4c ../../../../lib/32b/librphttpd.a(AsDate.o)
                0x0021beec                gRpMonthTable
 .data          0x0021bf38        0xc ../../../../lib/32b/librphttpd.a(AsMain.o)
                0x0021bf38                kHttpRomMonth
                0x0021bf3c                kHttpRomDay
                0x0021bf40                kHttpRomYear
 .data          0x0021bf44      0x1f0 ../../../../lib/32b/librphttpd.a(AsMimes.o)
                0x0021bf9c                gRpStringToMimeTypeTable
                0x0021bf44                gMimeTypes
                0x0021c06c                gMimeExtensionConversions
 .data          0x0021c134        0x4 ../../../../lib/32b/librphttpd.a(Sfil.o)
 .data          0x0021c138       0x50 ../../../../lib/32b/librphttpd.a(STCP.o)
                0x0021c138                gTcpConnectInfo
                0x0021c140                gHttpsOnly
 .data          0x0021c188        0x8 ../../../../lib/32b/librphttpd.a(RpAccess.o)
                0x0021c188                NoChallengeRealms
 .data          0x0021c190      0x708 ../../../../lib/32b/librphttpd.a(RpData.o)
                0x0021c6f8                gRpInputTooLargePage
                0x0021c274                gRpAccessNotAllowedPage
                0x0021c31c                gRpDigestUnsupportedPage
                0x0021c714                gRpPhrases
                0x0021c210                gRpHttpNoObjectFoundPage
                0x0021c514                gRpItemErrorPage
                0x0021c380                gRpServerBusyPage
                0x0021c56c                gRpFileSystemErrorPage
                0x0021c894                gRpPhrasesMax
                0x0021c5b8                gRpUnexpectedMultipart
                0x0021c418                gRpAllegroCopyrightPage
 .data          0x0021c898        0x4 ../../../../lib/32b/librphttpd.a(mcfil.o)
                0x0021c898                pop3sessJobAttr
 .data          0x0021c89c        0x4 ../../../../lib/32b/librphttpd.a(RmMailer.o)
                0x0021c89c                initialization
 .data          0x0021c8a0        0x8 ../../../../lib/32b/librphttpd.a(PrPop3.o)
                0x0021c8a0                ApopUseLevel
                0x0021c8a4                Pop3ServerState
 .data          0x0021c8a8       0x10 ../../../../lib/32b/librphttpd.a(maw_main.o)
 .data          0x0021c8b8       0x40 ../../../../lib/32b/librphttpd.a(AsMD5.o)
 .data          0x0021c8f8      0x1e8 ../../../../lib/32b/librphttpd.a(Spwd.o)
                0x0021c8f8                gPasswordTable
                0x0021cadc                gSpwdExternalAccessCode
                0x0021cad8                gSpwdExternalUserHandler
                0x0021cad4                gPendingCount
 .data          0x0021cae0       0x14 ../../../../lib/32b/libsnmp.a(snmpvar.o)
                0x0021cae0                nullString
                0x0021cae4                nullLong
                0x0021cae8                nullOid
 .data          0x0021caf4      0x218 ../../../../lib/32b/libsnmp.a(traps.o)
                0x0021cc40                snmpTrapOid
                0x0021cb44                objidEnterprise
                0x0021cc64                snmpTrapOidLen
                0x0021ccb4                traps_ipaddr_list
                0x0021cc68                snmpTrapGroup
                0x0021ccb8                enabledtraptypeflag
 .data          0x0021cd0c       0x10 ../../../../lib/32b/libsnmp.a(os_deps.o)
                0x0021cd18                NASnmpAgentReady
                0x0021cd0c                trapSocket
                0x0021cd10                wait_time
 .data          0x0021cd1c       0x7c ../../../../lib/32b/libsnmp.a(man_errs.o)
                0x0021cd1c                snmpErrorLookup
 .data          0x0021cd98        0x4 ../../../../lib/32b/libsnmp.a(man_mem.o)
 .data          0x0021cd9c        0x6 ../../../../lib/32b/libsnmp.a(snmp_port.o)
 *fill*         0x0021cda2        0x2
 .data          0x0021cda4      0x544 ../../../../lib/32b/libsnmp.a(snmp_var.o)
                0x0021cdf4                snmpSetSerialNoOidLen
                0x0021cdd0                snmpSetSerialNoOid
                0x0021ce20                snmpGroup
                0x0021d258                snmpSetSerialNoGroup
                0x0021ce1c                snmpMpdStatsOidLen
                0x0021cdcc                snmpOidLen
                0x0021cdf8                snmpMpdStatsOid
                0x0021cdb0                snmpOid
                0x0021d27c                snmpMpdStatsGroup
 .data          0x0021d2e8      0x1e0 ../../../../lib/32b/libsnmp.a(sys_var.o)
                0x0021d308                sysORTableOid
                0x0021d32c                sysORTableOidLen
                0x0021d330                sysGroup
                0x0021d2e8                sysOid
                0x0021d450                sysORTableEntry
                0x0021d304                sysOidLen
 .data          0x0021d4c8     0x1304 ../../../../lib/32b/libsnmp.a(tcpip_var.o)
                0x0021e6ac                udp_variables
                0x0021d4e4                interface_variables
                0x0021dfd4                icmp_variables
                0x0021d87c                oidAt
                0x0021e7a8                ipRouteEntryOid
                0x0021e73c                oidUdpListener
                0x0021e398                tcp_variables
                0x0021dfb8                oidIcmp
                0x0021d4c8                oidInterfaces
                0x0021e760                udpListener_variables
                0x0021e37c                oidTcp
                0x0021e690                oidUdp
                0x0021d90c                oidIp
                0x0021d928                ip_variables
                0x0021d8a0                at_variables
 .data          0x0021e7cc        0x8 ../../../../lib/32b/libsnmp.a(sys_local.o)
                0x0021e7d0                sysORTableEntries
                0x0021e7cc                baseSysORTable
 .data          0x0021e7d4       0x20 ../../../../lib/32b/libsnmp.a(tcpip_local.o)
                0x0021e7e8                ipReasmTimeout
                0x0021e7ec                tcpRtoAlgorithm
                0x0021e7e4                ipForwarding
                0x0021e7d4                ifSpecific
                0x0021e7f0                tcpMaxConn
                0x0021e7dc                ipRouteInfo
 .data          0x0021e7f4     0x3678 ../../../../lib/32b/libmanMib.a(RFC1213_MIB.o)
                0x00220454                RFC1213_MIBGroup2
                0x002202c8                ipNetToMediaTableIndices
                0x002207ec                RFC1213_MIBGroup3
                0x00220ef4                RFC1213_MIBGroup5
                0x0021eb60                RFC1213_MIB
                0x002202a8                ipRouteTableIndices
                0x00220280                atTableIndices
                0x00220334                egpNeighTableIndices
                0x00221304                RFC1213_MIBGroup6
                0x00221a0c                RFC1213_MIBGroup9
                0x00220300                tcpConnTableIndices
                0x002216ec                RFC1213_MIBGroup8
                0x00220320                udpTableIndices
                0x00220864                RFC1213_MIBGroup4
                0x002215fc                RFC1213_MIBGroup7
                0x0022033c                RFC1213_MIBGroup1
                0x00220294                ipAddrTableIndices
                0x00220260                ifTableIndices
 .data          0x00221e6c     0x1068 ../../../../lib/32b/libmanMib.a(SNMPv2_MIB.o)
                0x00222e5c                SNMPv2_MIBGroup12
                0x00222eac                SNMPv2_MIBGroup13
                0x002229ac                SNMPv2_MIBGroup11
                0x002227c4                sysORTableIndices
                0x002227cc                SNMPv2_MIBGroup10
                0x00221f30                SNMPv2_MIB
 .data          0x00222ed4       0x14 ../../../../lib/32b/libmanMib.a(SNMPv2_MIBAction.o)
 .data          0x00222ee8       0x30 ../../../../lib/32b/libsntp.a(UDPsntp.o)
                0x00222eec                gSntpConfig
 .data          0x00222f18        0x4 ../../../../lib/32b/libfilesys.a(fs_api.o)
 .data          0x00222f1c       0x38 ../../../../lib/32b/libbsp.a(MII.o)
                0x00222f50                mii_auto_state
 .data          0x00222f54       0x18 ../../../../lib/32b/libbsp.a(eth_init.o)
                0x00222f58                ETH_RX_PACKET_SIZE
                0x00222f54                eth_datap
 .data          0x00222f6c       0x20 ../../../../lib/32b/libbsp.a(eth_dma.o)
                0x00222f7c                ETH_MAX_RX_DESCRIPTORS
                0x00222f6c                eth_rx_buffer_descriptors
 .data          0x00222f8c        0x2 ../../../../lib/32b/libbsp.a(eth_mcast.o)
 *fill*         0x00222f8e        0x2
 .data          0x00222f90       0x38 ../../../../lib/32b/libbsp.a(eth_os.o)
 .data          0x00222fc8      0x98c ../../../../lib/32b/libbsp.a(eth_stack.o)
                0x00222fc8                eth0_ndp
 .data          0x00223954       0x18 ../../../../lib/32b/libbsp.a(eth_watchdog.o)
 .data          0x0022396c       0x3c ../../../../lib/32b/libbsp.a(eth_reset.o)
                0x002239a4                eth_link_down_cnt
 .data          0x002239a8        0x8 ../../../../lib/32b/libemailc.a(allegro_mailc.o)
                0x002239ac                gSendMailStatus
 *(.gnu.linkonce.d*)
 *(.data1)
 *(.eh_frame)
 *(.jcr)
 *(.gcc_except_table)
                0x002239b0                . =  ALIGN (0x10)
                0x002239b0                __data_end__ = .

.bss            0x002239c0    0xd7400 load address 0x08151edc
                0x002239c0                __bss_start = .
                0x002239c0                __bss_start__ = .
 *(.bss)
 .bss           0x002239c0        0x4 ./objs/root.o
 .bss           0x002239c4      0x1f0 ./objs/EARMIBAction.o
 .bss           0x00223bb4    0x2015c ./objs/ipgFlash.o
 .bss           0x00243d10       0x28 ./objs/telnet.o
 .bss           0x00243d38      0x1b8 ./objs/menu.o
 .bss           0x00243ef0       0x70 ./objs/ipgsnmp.o
 .bss           0x00243f60        0x4 ./objs/earTemperatureAlarmThreshold.o
 .bss           0x00243f64        0x4 ./objs/earPumpsOff.o
 .bss           0x00243f68        0x4 ./objs/configNotification.o
 .bss           0x00243f6c       0x60 ./objs/EDFAWelcomePage_v.o
 .bss           0x00243fcc    0x20030 ./objs/naftpapp.o
 .bss           0x00263ffc       0x16 ../../../../lib/32b/gnu/libc.a(tzset_r.o)
 *fill*         0x00264012        0x2
 .bss           0x00264014       0xb8 ../../../../lib/32b/gnu/libc.a(syscalls.o)
 .bss           0x002640cc        0x4 ../../../../lib/32b/gnu/libc.a(setenv_r.o)
 .bss           0x002640d0     0x2470 ../../../../lib/32b/libbsp.a(flashnvrm.o)
 .bss           0x00266540       0x60 ../../../../lib/32b/libbsp.a(lpbkdev.o)
 .bss           0x002665a0       0x10 ../../../../lib/32b/libbsp.a(nuldev.o)
 .bss           0x002665b0      0x178 ../../../../lib/32b/libbsp.a(startfilesystem.o)
 .bss           0x00266728       0x1c ../../../../lib/32b/libbsp.a(rtc.o)
 .bss           0x00266744     0x4708 ../../../../lib/32b/libbsp.a(netos_serl.o)
 .bss           0x0026ae4c      0x184 ../../../../lib/32b/libbsp.a(NA_ISR.o)
 .bss           0x0026afd0      0x400 ../../../../lib/32b/libbsp.a(crc32h.o)
 .bss           0x0026b3d0     0x6110 ../../../../lib/32b/libbsp.a(udpdb.o)
 .bss           0x002714e0       0x78 ../../../../lib/32b/libbsp.a(hdlcdvr.o)
 .bss           0x00271558      0xc78 ../../../../lib/32b/libbsp.a(aceParams.o)
 .bss           0x002721d0      0x998 ../../../../lib/32b/libbsp.a(aceCallbacks.o)
 .bss           0x00272b68       0x24 ../../../../lib/32b/libbsp.a(dialog.o)
 .bss           0x00272b8c      0x200 ../../../../lib/32b/libbsp.a(event_handler.o)
 .bss           0x00272d8c      0x6a8 ../../../../lib/32b/libflash.a(naflash.o)
 .bss           0x00273434       0x1c ../../../../lib/32b/libflash.a(naflsem.o)
 .bss           0x00273450       0x58 ../../../../lib/32b/libtx.a(tx_gnu.o)
 .bss           0x002734a8       0x1c ../../../../lib/32b/libmanapi.a(man_init.o)
 .bss           0x002734c4        0x4 ../../../../lib/32b/libtelnsvr.a(ttgetc.o)
 .bss           0x002734c8     0x6714 ../../../../lib/32b/libfastip.a(fast_ip.o)
 .bss           0x00279bdc       0xd0 ../../../../lib/32b/libtcpip.a(ace_os.o)
 .bss           0x00279cac        0x8 ../../../../lib/32b/libtcpip.a(fnsrr.o)
 .bss           0x00279cb4       0x24 ../../../../lib/32b/libtcpip.a(ipfrag.o)
 .bss           0x00279cd8       0x28 ../../../../lib/32b/libtcpip.a(ipmisc.o)
 .bss           0x00279d00       0x10 ../../../../lib/32b/libtcpip.a(lkheap.o)
 .bss           0x00279d10      0x190 ../../../../lib/32b/libtcpip.a(q.o)
 .bss           0x00279ea0       0x1c ../../../../lib/32b/libtcpip.a(timer.o)
 .bss           0x00279ebc       0x1c ../../../../lib/32b/libtcpip.a(twq.o)
 .bss           0x00279ed8        0xc ../../../../lib/32b/libtcpip.a(tcpmisc.o)
 .bss           0x00279ee4       0x28 ../../../../lib/32b/libtcpip.a(tcptrans.o)
 .bss           0x00279f0c        0x4 ../../../../lib/32b/libtcpip.a(igmp.o)
 .bss           0x00279f10      0x490 ../../../../lib/32b/libtcpip.a(gethnama.o)
 .bss           0x0027a3a0       0xa4 ../../../../lib/32b/libtcpip.a(pppapi.o)
 .bss           0x0027a444      0xa00 ../../../../lib/32b/libtcpip.a(osdep.o)
 .bss           0x0027ae44       0x60 ../../../../lib/32b/libtcpip.a(arp.o)
 .bss           0x0027aea4      0x800 ../../../../lib/32b/libtcpip.a(uart.o)
 .bss           0x0027b6a4        0x4 ../../../../lib/32b/librphttpd.a(Sfil.o)
 .bss           0x0027b6a8        0x1 ../../../../lib/32b/librphttpd.a(mcfil.o)
 *fill*         0x0027b6a9        0x3
 .bss           0x0027b6ac      0x208 ../../../../lib/32b/librphttpd.a(maw_main.o)
 .bss           0x0027b8b4       0x10 ../../../../lib/32b/libsnmp.a(os_deps.o)
 .bss           0x0027b8c4       0x80 ../../../../lib/32b/libsnmp.a(snmp_var.o)
 .bss           0x0027b944      0x45c ../../../../lib/32b/libsnmp.a(snmpage.o)
 .bss           0x0027bda0      0x318 ../../../../lib/32b/libsnmp.a(sys_var.o)
 .bss           0x0027c0b8      0x27c ../../../../lib/32b/libsnmp.a(tcpip_var.o)
 .bss           0x0027c334      0x620 ../../../../lib/32b/libsnmp.a(sys_local.o)
 .bss           0x0027c954       0x74 ../../../../lib/32b/libsnmp.a(tcpip_local.o)
 .bss           0x0027c9c8       0x14 ../../../../lib/32b/libmanMib.a(SNMPv2_MIBAction.o)
 .bss           0x0027c9dc       0x18 ../../../../lib/32b/libsntp.a(UDPsntp.o)
 .bss           0x0027c9f4       0x3c ../../../../lib/32b/libfilesys.a(fs_api.o)
 .bss           0x0027ca30       0x6c ../../../../lib/32b/libbsp.a(eth_init.o)
 .bss           0x0027ca9c       0x78 ../../../../lib/32b/libbsp.a(eth_mcast.o)
 .bss           0x0027cb14     0x1f90 ../../../../lib/32b/libbsp.a(eth_stack.o)
 .bss           0x0027eaa4      0x640 ../../../../lib/32b/libemailc.a(allegro_mailc.o)
 *(COMMON)
 *fill*         0x0027f0e4       0x1c
 COMMON         0x0027f100      0xb04 ./objs/root.o
                                  0x0 (size before relaxing)
                0x0027f100                trapHistoryTableIndex
                0x0027f120                Mib_Leave
                0x0027f2b0                startValue
                0x0027f2e0                Mib_Leaves
                0x0027f2e8                AliveTimerNVRamSave
                0x0027f300                timer_snmpApp
                0x0027f340                g_timedate
                0x0027f360                g_serialBuffer
                0x0027f460                settingsTrace
                0x0027f530                FIRST
                0x0027f540                alarmTrap_app
                0x0027f600                serialAppStack
                0x0027f620                ftp_app
                0x0027f6e0                g_variables_array_size
                0x0027f6e8                alrmTrace
                0x0027f7c0                alarmAppStack
                0x0027f7e0                snmpTrap_app
                0x0027f8a0                telnetAppStack
                0x0027f8c0                snmpAppStack
                0x0027f8c8                plTrace
                0x0027fa60                telnet_app
                0x0027fb08                endValue
                0x0027fb20                alarmsCleared
                0x0027fb28                AliveTrapTimer
                0x0027fb40                alarmsSet
                0x0027fb60                serial_app
 *fill*         0x0027fc04       0x1c
 COMMON         0x0027fc20      0x1e4 ./objs/EARMIBAction.o
                                  0x0 (size before relaxing)
                0x0027fc20                savedSemWaitCount
                0x0027fc28                earDigiBank2FirmwareRevisionRead_buffer
                0x0027fc60                preserveLowCurrent
                0x0027fc80                earDataModeRead_value
                0x0027fc88                earPowerSafetyModeWrite_buffer
                0x0027fcc0                Bank
                0x0027fce0                preserveLowPower
                0x0027fce8                earUpgradeDigiFirmwareRead_buffer
                0x0027fd10                earTelnetTimeoutRead_buffer
                0x0027fd40                savedLaserCurrentValue
                0x0027fd48                earDigiBank1FirmwareRevisionRead_buffer
                0x0027fd70                earVendorProductNameAndSerialNumberRead_buffer
                0x0027fda0                earDeviceTypeFD_value
                0x0027fda8                earDigiFirmwareRevisionRead_Buffer
                0x0027fdd0                earCleiCodeRead_buffer
                0x0027fe00                currentPowerValue
 *fill*         0x0027fe04       0x1c
 COMMON         0x0027fe20       0x2c ./objs/ipgFlash.o
                                  0x0 (size before relaxing)
                0x0027fe20                resetTimer
 *fill*         0x0027fe4c       0x14
 COMMON         0x0027fe60      0x2a0 ./objs/telnet.o
                                  0x0 (size before relaxing)
                0x0027fe60                TimeoutS
                0x0027fe80                TS_session_tab
 COMMON         0x00280100      0x124 ./objs/menu.o
                                  0x0 (size before relaxing)
                0x00280100                telnetStackSize
                0x00280120                snmpStackSize
                0x00280140                serialStackSize
                0x00280160                snmpStackBegin
                0x00280180                alarmStackSize
                0x002801a0                collectionStackSize
                0x002801c0                alarmStackBegin
                0x002801e0                telnetStackBegin
                0x00280200                collectionStackBegin
                0x00280220                serialStackBegin
 *fill*         0x00280224       0x1c
 COMMON         0x00280240        0x4 ./objs/ipgsnmp.o
                                  0x0 (size before relaxing)
                0x00280240                manHistoryTableKey
 *fill*         0x00280244        0x4
 COMMON         0x00280248       0x28 ./objs/earTemperatureAlarmThreshold.o
                                  0x0 (size before relaxing)
                0x00280248                earTemperatureAlarmThresholdRead_buffer
 *fill*         0x00280270       0x10
 COMMON         0x00280280       0x84 ./objs/earSnmpMngrTable.o
                                  0x0 (size before relaxing)
                0x00280280                MTWnewIndex
                0x002802a0                MTWfieldsCommitted
                0x002802c0                MTWfieldsUndone
                0x002802e0                MTWoldIndex
                0x00280300                row
 *fill*         0x00280304        0x4
 COMMON         0x00280308       0x10 ./objs/earTrapPort.o
                                  0x0 (size before relaxing)
                0x00280308                int_buf
 COMMON         0x00280318       0x28 ./objs/earPumpsOff.o
                                  0x0 (size before relaxing)
                0x00280318                earPumpsOffRead_buffer
 COMMON         0x00280340       0x28 ./objs/earRtcTime.o
                                  0x0 (size before relaxing)
                0x00280340                rtc_buffer
 *fill*         0x00280368       0x18
 COMMON         0x00280380       0x9c ./objs/semaphores.o
                                  0x0 (size before relaxing)
                0x00280380                semaphore_rtc
                0x002803a0                semaphore_0
                0x002803c0                semHistTblMutex
                0x002803e0                semaphore_nvParams
                0x00280400                semaphore_sbuf
 *fill*         0x0028041c        0x4
 COMMON         0x00280420        0x4 ./objs/Snmp_api.o
                                  0x0 (size before relaxing)
                0x00280420                snmpd_tid
 *fill*         0x00280424       0x1c
 COMMON         0x00280440      0x688 ./objs/EDFAWelcomePage_v.o
                                  0x0 (size before relaxing)
                0x00280440                earTotalOpticalOutputPower_temp
                0x00280468                earPowerSafetyMode_temp
                0x00280490                earSerialNumber_temp
                0x002804b8                earOutputPowerHighAlarmLevel_temp
                0x002804e0                earInputPowerHighAlarmLevel_temp
                0x00280508                earDigiFirmwareRev_temp
                0x00280530                earOutputPowerTooHighAlarmLevel_temp
                0x00280558                earInputPowerLowAlarmLevel_temp
                0x00280580                earTotalOpticalOutputPower2_temp
                0x002805a8                earMaximumGainSetPoint_temp
                0x002805e0                setpoint
                0x002805e8                earOutputPower2OffAlarmLevel_temp
                0x00280610                earTemperatureAlarmThreshold_temp
                0x00280638                earIpAddress_temp
                0x00280648                earInput2PowerTooHighAlarmLevel_temp
                0x00280670                earGainControlSetpoint_temp
                0x00280698                earAmbientTemperature_temp
                0x002806c0                earDateOfManufacture_temp
                0x002806e8                earTotalOpticalInput2Power_temp
                0x00280710                earInputPowerTooHighAlarmLevel_temp
                0x00280740                whichSubmitButton
                0x00280748                earMinimumGainSetPoint_temp
                0x00280770                earModelNumber_temp
                0x00280798                earMeasuredGainValue_temp
                0x002807c0                earOutputPower2TooHighAlarmLevel_temp
                0x002807e8                earMaximumPowerSetpoint_temp
                0x00280810                earOutputPower2LowAlarmLevel_temp
                0x00280838                earFirmwareRevision_temp
                0x00280860                earDigiActiveFBConfirmed_temp
                0x00280888                earOutputPowerOffAlarmLevel_temp
                0x002808c0                powerSetpoint
                0x002808c8                earOutputPowerLowAlarmLevel_temp
                0x002808f0                earOutputPower2HighAlarmLevel_temp
                0x00280918                earDigiActiveFB_temp
                0x00280940                earControlMode_temp
                0x00280968                earSubnetMask_temp
                0x00280978                earInput2PowerLowAlarmLevel_temp
                0x002809a0                earInput2PowerOffAlarmLevel_temp
                0x002809c8                earTotalOpticalInputPower_temp
                0x002809f0                earOutputPower2SetpointValue_temp
                0x00280a18                earGateway_temp
                0x00280a28                earOutputPowerSetpointValue_temp
                0x00280a50                earGainControlSetpoint2_temp
                0x00280a78                earInput2PowerHighAlarmLevel_temp
                0x00280aa0                earInputPowerOffAlarmLevel_temp
 *fill*         0x00280ac8       0x18
 COMMON         0x00280ae0        0x4 ../../../../lib/32b/gnu/libc.a(reent.o)
                                  0x0 (size before relaxing)
                0x00280ae0                errno
 *fill*         0x00280ae4       0x1c
 COMMON         0x00280b00       0x24 ../../../../lib/32b/libbsp.a(sysAccess.o)
                                  0x0 (size before relaxing)
                0x00280b00                challengeonce
                0x00280b20                loginFailureCallback
 *fill*         0x00280b24       0x1c
 COMMON         0x00280b40      0x480 ../../../../lib/32b/libbsp.a(NCC_POST.o)
                                  0x0 (size before relaxing)
                0x00280b40                ser_rx_bd
                0x00280b60                eni_fifo_bd
                0x00280b80                efe_rx_bd_ptr
                0x00280ba0                efe_rx_bd_b
                0x00280be0                efe_tx_bd
                0x00280ce0                pc_tx_bd
                0x00280d20                ser_tx_bd
                0x00280d40                pc_rx_buffer
                0x00280d60                efe_rx_bd_c
                0x00280da0                dma_mm_bd
                0x00280ee0                efe_rx_bd_d
                0x00280ef0                pc_rx_index
                0x00280f00                efe_rx_bd_a
                0x00280f40                irqFlag
 COMMON         0x00280fc0      0x240 ../../../../lib/32b/libbsp.a(IRQREG.o)
                                  0x0 (size before relaxing)
                0x00280fc0                main_irq_table
                0x00281020                pri_irq_table
 COMMON         0x00281200      0x8a8 ../../../../lib/32b/libbsp.a(netos_serl.o)
                                  0x0 (size before relaxing)
                0x00281200                serl_monitor_thread
                0x002812a8                serl_monitor_stack
 *fill*         0x00281aa8       0x18
 COMMON         0x00281ac0      0x180 ../../../../lib/32b/libbsp.a(NA_ISR.o)
                                  0x0 (size before relaxing)
                0x00281ac0                NAIsrTable
 COMMON         0x00281c40       0xec ../../../../lib/32b/libbsp.a(bsproot.o)
                                  0x0 (size before relaxing)
                0x00281c40                rootThread
                0x00281d00                tcp_down_timer
 *fill*         0x00281d2c       0x14
 COMMON         0x00281d40     0x2184 ../../../../lib/32b/libbsp.a(starttcp.o)
                                  0x0 (size before relaxing)
                0x00281d40                evntSelect
                0x00281d60                thrdSlct
                0x00281e08                timer_stack
                0x00282e08                slctStack
                0x00283e20                timer_task
 *fill*         0x00283ec4       0x1c
 COMMON         0x00283ee0       0x28 ../../../../lib/32b/libbsp.a(hdlcdvr.o)
                                  0x0 (size before relaxing)
                0x00283ee0                hdlc_chan
                0x00283f00                hdlc_unknown_rx_ints
 *fill*         0x00283f08       0x18
 COMMON         0x00283f20       0x70 ../../../../lib/32b/libbsp.a(hdlcmem.o)
                                  0x0 (size before relaxing)
                0x00283f20                hdlc_mem_config
                0x00283f40                empty_frame_q
                0x00283f60                small_frame_q
                0x00283f80                large_frame_q
 *fill*         0x00283f90       0x10
 COMMON         0x00283fa0    0x20024 ../../../../lib/32b/libflash.a(naflash.o)
                                  0x0 (size before relaxing)
                0x00283fa0                first_sector_data
                0x002a3fa0                mSectorBase
                0x002a3fc0                mSectorBase32
 *fill*         0x002a3fc4       0x1c
 COMMON         0x002a3fe0       0xf8 ../../../../lib/32b/libposix.a(posix_thread.o)
                                  0x0 (size before relaxing)
                0x002a3fe0                cleanup_thread
                0x002a40a0                del_thrd_queue
 *fill*         0x002a40d8        0x8
 COMMON         0x002a40e0        0x4 ../../../../lib/32b/libtx.a(tx_ike.o)
                                  0x0 (size before relaxing)
                0x002a40e0                _tx_initialize_unused_memory
 *fill*         0x002a40e4       0x1c
 COMMON         0x002a4100      0x2c4 ../../../../lib/32b/libtx.a(tx_timi.o)
                                  0x0 (size before relaxing)
                0x002a4100                _tx_timer_current_ptr
                0x002a4120                _tx_timer_list
                0x002a41a0                _tx_timer_expired
                0x002a41c0                _tx_timer_time_slice
                0x002a41e0                _tx_timer_priority
                0x002a4200                _tx_timer_list_end
                0x002a4220                _tx_timer_thread
                0x002a42e0                _tx_timer_system_clock_hi
                0x002a4300                _tx_timer_list_start
                0x002a4320                _tx_timer_created_ptr
                0x002a4340                _tx_timer_stack_size
                0x002a4360                _tx_timer_stack_start
                0x002a4380                _tx_timer_created_count
                0x002a43a0                _tx_timer_expired_time_slice
                0x002a43c0                _tx_timer_system_clock
 *fill*         0x002a43c4       0x1c
 COMMON         0x002a43e0      0x284 ../../../../lib/32b/libtx.a(tx_ti.o)
                                  0x0 (size before relaxing)
                0x002a43e0                _tx_thread_priority_list
                0x002a4460                _tx_thread_created_ptr
                0x002a4480                _tx_thread_created_count
                0x002a44a0                _tx_thread_system_stack_ptr
                0x002a44c0                _tx_thread_preempted_map
                0x002a44e0                _tx_thread_preempt_disable
                0x002a4500                _tx_thread_current_ptr
                0x002a4520                _tx_thread_priority_map
                0x002a4540                _tx_thread_execute_ptr
                0x002a4548                _tx_thread_lowest_bit
                0x002a4660                _tx_thread_highest_priority
 *fill*         0x002a4664       0x1c
 COMMON         0x002a4680      0x164 ../../../../lib/32b/libtx.a(tx_ihl.o)
                                  0x0 (size before relaxing)
                0x002a4680                _tx_event_flags_created_ptr
                0x002a46a0                _tx_mutex_created_count
                0x002a46c0                _tx_mutex_created_ptr
                0x002a46e0                _tx_queue_created_count
                0x002a4700                _tx_semaphore_created_ptr
                0x002a4720                _tx_byte_pool_created_ptr
                0x002a4740                _tx_block_pool_created_count
                0x002a4760                _tx_semaphore_created_count
                0x002a4780                _tx_event_flags_created_count
                0x002a47a0                _tx_block_pool_created_ptr
                0x002a47c0                _tx_queue_created_ptr
                0x002a47e0                _tx_byte_pool_created_count
 *fill*         0x002a47e4       0x1c
 COMMON         0x002a4800        0x4 ../../../../lib/32b/libmanapi.a(man_init.o)
                                  0x0 (size before relaxing)
                0x002a4800                manVariableChangeFn
 *fill*         0x002a4804       0x1c
 COMMON         0x002a4820        0x4 ../../../../lib/32b/libftpsvr.a(ftposp.o)
                                  0x0 (size before relaxing)
                0x002a4820                gftp_timer_event
 *fill*         0x002a4824       0x1c
 COMMON         0x002a4840       0x70 ../../../../lib/32b/libftpsvr.a(ftpsvr.o)
                                  0x0 (size before relaxing)
                0x002a4840                g_ftp_server
                0x002a4860                gftp_data
                0x002a4880                gftp_socket
                0x002a48a0                gftp_address
 COMMON         0x002a48b0      0xc80 ../../../../lib/32b/libtelnsvr.a(telnetd2.o)
                                  0x0 (size before relaxing)
                0x002a48b0                password
                0x002a4ef0                sysAccessPassword
 *fill*         0x002a5530       0x10
 COMMON         0x002a5540      0x608 ../../../../lib/32b/libtelnsvr.a(ttfsm.o)
                                  0x0 (size before relaxing)
                0x002a5540                ttstate
                0x002a5548                ttfsm
 COMMON         0x002a5b48        0x1 ../../../../lib/32b/libtelnsvr.a(tcga.o)
                                  0x0 (size before relaxing)
                0x002a5b48                synching
 *fill*         0x002a5b49       0x17
 COMMON         0x002a5b60       0x24 ../../../../lib/32b/libtcpip.a(fnsrr.o)
                                  0x0 (size before relaxing)
                0x002a5b60                router_tcb
 *fill*         0x002a5b84       0x1c
 COMMON         0x002a5ba0       0x4c ../../../../lib/32b/libtcpip.a(icmp.o)
                                  0x0 (size before relaxing)
                0x002a5ba0                icmp_prp
                0x002a5bc0                ndp_tbl
                0x002a5be0                icmp_q
 *fill*         0x002a5bec       0x14
 COMMON         0x002a5c00        0xc ../../../../lib/32b/libtcpip.a(ipfrag.o)
                                  0x0 (size before relaxing)
                0x002a5c00                ip_fq
 *fill*         0x002a5c0c       0x14
 COMMON         0x002a5c20        0x4 ../../../../lib/32b/libtcpip.a(ipnetd.o)
                                  0x0 (size before relaxing)
                0x002a5c20                inbound_packets
 *fill*         0x002a5c24       0x1c
 COMMON         0x002a5c40        0x4 ../../../../lib/32b/libtcpip.a(ipxmit.o)
                                  0x0 (size before relaxing)
                0x002a5c40                outbound_packets
 *fill*         0x002a5c44       0x1c
 COMMON         0x002a5c60       0x24 ../../../../lib/32b/libtcpip.a(lkheap.o)
                                  0x0 (size before relaxing)
                0x002a5c60                heap_base
                0x002a5c80                h_low_water
 *fill*         0x002a5c84       0x1c
 COMMON         0x002a5ca0       0x64 ../../../../lib/32b/libtcpip.a(ncdev.o)
                                  0x0 (size before relaxing)
                0x002a5ca0                nd_size
                0x002a5cc0                drv_intr
                0x002a5ce0                nde_size
                0x002a5d00                nc_hsize
 *fill*         0x002a5d04       0x1c
 COMMON         0x002a5d20      0x484 ../../../../lib/32b/libtcpip.a(ncdid.o)
                                  0x0 (size before relaxing)
                0x002a5d20                m_extra
                0x002a5d40                ip_def_ttl
                0x002a5d60                ip_initialized
                0x002a5d80                wq_offset
                0x002a5da0                fr_interval
                0x002a5dc0                so_size
                0x002a5de0                ip_gwy_learn
                0x002a5e00                ip_interval
                0x002a5e20                tcp_seed
                0x002a5e40                slppp_head
                0x002a5e60                so_cnt
                0x002a5e80                ipnet0z
                0x002a5ea0                tcp_max_mss
                0x002a5ec0                msd_debug
                0x002a5ee0                icmp_initialized
                0x002a5f00                udp_initialized
                0x002a5f20                re_cnt
                0x002a5f40                do_snmp
                0x002a5f60                fr_q_interval
                0x002a5f80                arp_cnt
                0x002a5f88                product_name
                0x002a5fa0                so_used
                0x002a5fc0                ip_ifrag
                0x002a5fe0                ipsubz
                0x002a6000                tcptargz
                0x002a6020                twq_initialized
                0x002a6040                msmz
                0x002a6060                arp_initialized
                0x002a6080                ipbroadz
                0x002a60a0                tcp_initialized
                0x002a60c0                tcp_prp
                0x002a60e0                arp_ttl
                0x002a6100                ip_t_def
                0x002a6120                max_backlog
                0x002a6140                tcprackz
                0x002a6160                tcp_quiet
                0x002a6180                arp_q_interval
                0x002a61a0                ip_rte_ttl
 *fill*         0x002a61a4       0x1c
 COMMON         0x002a61c0        0x4 ../../../../lib/32b/libtcpip.a(ncmisc.o)
                                  0x0 (size before relaxing)
                0x002a61c0                sop_tbl
 *fill*         0x002a61c4       0x1c
 COMMON         0x002a61e0      0x144 ../../../../lib/32b/libtcpip.a(ncpr.o)
                                  0x0 (size before relaxing)
                0x002a61e0                udp_rq_max
                0x002a6200                prp_tbl
                0x002a6220                en_rq_max
                0x002a6240                icmp_rq_max
                0x002a6260                tcp_rq_default
                0x002a6280                tcp_sq_max
                0x002a62a0                tcp_try_max
                0x002a62c0                udp_sq_max
                0x002a62e0                icmp_sq_max
                0x002a6300                ppp_rq_max
                0x002a6320                tcp_rq_max
 *fill*         0x002a6324       0x1c
 COMMON         0x002a6340        0xc ../../../../lib/32b/libtcpip.a(select.o)
                                  0x0 (size before relaxing)
                0x002a6340                sel_pending_q
 *fill*         0x002a634c       0x14
 COMMON         0x002a6360        0x4 ../../../../lib/32b/libtcpip.a(sock.o)
                                  0x0 (size before relaxing)
                0x002a6360                inext_sopp
 *fill*         0x002a6364       0x1c
 COMMON         0x002a6380       0x84 ../../../../lib/32b/libtcpip.a(timer.o)
                                  0x0 (size before relaxing)
                0x002a6380                t_clicks
                0x002a63a0                p_dhcp_timer
                0x002a63c0                the_time
                0x002a63e0                t_time
                0x002a6400                time_mib
 *fill*         0x002a6404       0x1c
 COMMON         0x002a6420       0x24 ../../../../lib/32b/libtcpip.a(udpsock.o)
                                  0x0 (size before relaxing)
                0x002a6420                udp_q
                0x002a6430                udp_port
                0x002a6440                udp_prp
 *fill*         0x002a6444       0x1c
 COMMON         0x002a6460       0x6c ../../../../lib/32b/libtcpip.a(tcpmisc.o)
                                  0x0 (size before relaxing)
                0x002a6460                tcp_port
                0x002a6480                tcp_keep_alive
                0x002a64a0                tcp_idle_interval
                0x002a64c0                tcp_q
 *fill*         0x002a64cc       0x14
 COMMON         0x002a64e0       0x24 ../../../../lib/32b/libtcpip.a(igmp.o)
                                  0x0 (size before relaxing)
                0x002a64e0                igmp_tbl
                0x002a6500                igmp_entries
 *fill*         0x002a6504       0x1c
 COMMON         0x002a6520       0x10 ../../../../lib/32b/libtcpip.a(sockapi.o)
                                  0x0 (size before relaxing)
                0x002a6520                sockLocalfsin
 *fill*         0x002a6530       0x10
 COMMON         0x002a6540      0x100 ../../../../lib/32b/libtcpip.a(rripfdb.o)
                                  0x0 (size before relaxing)
                0x002a6540                rteTbl_Addrs
 COMMON         0x002a6640       0x1c ../../../../lib/32b/libtcpip.a(rrtask.o)
                                  0x0 (size before relaxing)
                0x002a6640                router_r_gq
 *fill*         0x002a665c        0x4
 COMMON         0x002a6660      0x224 ../../../../lib/32b/libtcpip.a(res_init.o)
                                  0x0 (size before relaxing)
                0x002a6660                p_name_server_list
                0x002a6680                name_servers
                0x002a66a0                _res
                0x002a6880                dns_errno
 *fill*         0x002a6884       0x1c
 COMMON         0x002a68a0       0xa4 ../../../../lib/32b/libtcpip.a(dnscache.o)
                                  0x0 (size before relaxing)
                0x002a68a0                dns_cache_enable
                0x002a68c0                dns_cache_lock
                0x002a68e0                dns_timer
                0x002a6920                dns_cache_size
                0x002a6940                dns_cache_timeout
 *fill*         0x002a6944       0x1c
 COMMON         0x002a6960        0x4 ../../../../lib/32b/libtcpip.a(client.o)
                                  0x0 (size before relaxing)
                0x002a6960                dhcp_time_since_boot
 *fill*         0x002a6964       0x1c
 COMMON         0x002a6980       0x3c ../../../../lib/32b/libtcpip.a(pppapi.o)
                                  0x0 (size before relaxing)
                0x002a6980                serial_write_semaphore
                0x002a69a0                modem_recv_cb_semaphore
 *fill*         0x002a69bc        0x4
 COMMON         0x002a69c0      0xa48 ../../../../lib/32b/libtcpip.a(modem.o)
                                  0x0 (size before relaxing)
                0x002a69c0                modem_cb
 *fill*         0x002a7408       0x18
 COMMON         0x002a7420       0x5c ../../../../lib/32b/libtcpip.a(osdep.o)
                                  0x0 (size before relaxing)
                0x002a7420                critical_thread
                0x002a7440                critical_as_semaphore
                0x002a7460                critical_sem
 *fill*         0x002a747c        0x4
 COMMON         0x002a7480       0x50 ../../../../lib/32b/libtcpip.a(bootpapi.o)
                                  0x0 (size before relaxing)
                0x002a7480                t_offset
                0x002a7488                domain_name_server
                0x002a7490                host_name
 *fill*         0x002a74d0       0x10
 COMMON         0x002a74e0       0x84 ../../../../lib/32b/libtcpip.a(arp.o)
                                  0x0 (size before relaxing)
                0x002a74e0                ar_end
                0x002a7500                p_auto_ipv4_arp_up
                0x002a7520                ar_cache
                0x002a7540                need_my_ipaddr
                0x002a7548                my_ipaddr
                0x002a7560                p_dhcp_arp
 *fill*         0x002a7564       0x1c
 COMMON         0x002a7580       0x30 ../../../../lib/32b/libtcpip.a(frklk.o)
                                  0x0 (size before relaxing)
                0x002a7580                fr_sqtb
                0x002a75a0                fr_eqtb
 COMMON         0x002a75b0        0x2 ../../../../lib/32b/libtcpip.a(ip.o)
                                  0x0 (size before relaxing)
                0x002a75b0                ip_id
 *fill*         0x002a75b2        0xe
 COMMON         0x002a75c0        0x4 ../../../../lib/32b/libtcpip.a(res_quer.o)
                                  0x0 (size before relaxing)
                0x002a75c0                h_errno
 *fill*         0x002a75c4       0x1c
 COMMON         0x002a75e0     0xfe90 ../../../../lib/32b/libtcpip.a(uart.o)
                                  0x0 (size before relaxing)
                0x002a75e0                uart_write_cb
 *fill*         0x002b7470       0x10
 COMMON         0x002b7480        0x4 ../../../../lib/32b/librphttpd.a(hserv.o)
                                  0x0 (size before relaxing)
                0x002b7480                thread_net_os_http_server
 *fill*         0x002b7484        0x4
 COMMON         0x002b7488       0x80 ../../../../lib/32b/librphttpd.a(RmSmtp.o)
                                  0x0 (size before relaxing)
                0x002b7488                mailerproductname
 *fill*         0x002b7508       0x18
 COMMON         0x002b7520    0x1d920 ../../../../lib/32b/librphttpd.a(AsGlobal.o)
                                  0x0 (size before relaxing)
                0x002b7520                gRpData
 COMMON         0x002d4e40       0x24 ../../../../lib/32b/librphttpd.a(AsMain.o)
                                  0x0 (size before relaxing)
                0x002d4e40                kNumberOfFiles
                0x002d4e60                kNumberOfConnections
 *fill*         0x002d4e64       0x1c
 COMMON         0x002d4e80       0x2c ../../../../lib/32b/librphttpd.a(Sfil.o)
                                  0x0 (size before relaxing)
                0x002d4e80                gFileSystemMutex
 *fill*         0x002d4eac       0x14
 COMMON         0x002d4ec0     0x1680 ../../../../lib/32b/librphttpd.a(mcfil.o)
                                  0x0 (size before relaxing)
                0x002d4ec0                gFileData
 COMMON         0x002d6540    0x14364 ../../../../lib/32b/librphttpd.a(RmData.o)
                                  0x0 (size before relaxing)
                0x002d6540                gRpSmtpData
 *fill*         0x002ea8a4       0x1c
 COMMON         0x002ea8c0     0xd414 ../../../../lib/32b/librphttpd.a(PrData.o)
                                  0x0 (size before relaxing)
                0x002ea8c0                gRpPopData
 *fill*         0x002f7cd4        0xc
 COMMON         0x002f7ce0      0x448 ../../../../lib/32b/libsnmp.a(traps.o)
                                  0x0 (size before relaxing)
                0x002f7ce0                SNMPTrapQueue
                0x002f7d20                yourSnmpTrap
 *fill*         0x002f8128       0x18
 COMMON         0x002f8140     0x10d0 ../../../../lib/32b/libsnmp.a(os_deps.o)
                                  0x0 (size before relaxing)
                0x002f8140                NASnmpSemaphore
                0x002f8160                communities
                0x002f8190                snmpOutBuff
                0x002f8990                inBuff
                0x002f91a0                localAddress
                0x002f91c0                cfg_nnets
                0x002f91e0                snmpSocket
                0x002f9200                trapAddress
 *fill*         0x002f9210       0x10
 COMMON         0x002f9220      0x7d0 ../../../../lib/32b/libsnmp.a(man_mem.o)
                                  0x0 (size before relaxing)
                0x002f9220                bufferList
 *fill*         0x002f99f0       0x10
 COMMON         0x002f9a00        0x4 ../../../../lib/32b/libsnmp.a(snmp_var.o)
                                  0x0 (size before relaxing)
                0x002f9a00                yourSnmpSetSerialNo
 *fill*         0x002f9a04       0x1c
 COMMON         0x002f9a20      0x604 ../../../../lib/32b/libsnmp.a(snmpage.o)
                                  0x0 (size before relaxing)
                0x002f9a20                write_method
                0x002f9a28                tempBuf
                0x002fa020                lastInViewOidLen
 *fill*         0x002fa024       0x1c
 COMMON         0x002fa040       0xa4 ../../../../lib/32b/libsnmp.a(tcpip_local.o)
                                  0x0 (size before relaxing)
                0x002fa040                rg_code
                0x002fa060                mib_icmp
                0x002fa080                mib_udp
                0x002fa0a0                mib_ip
                0x002fa0c0                tcpCurrEstab
                0x002fa0e0                mib_tcp
 *fill*         0x002fa0e4       0x1c
 COMMON         0x002fa100      0x400 ../../../../lib/32b/libfilesys.a(crc32h.o)
                                  0x0 (size before relaxing)
                0x002fa100                crc32_table
 COMMON         0x002fa500      0x11c ../../../../lib/32b/libfilesys.a(services.o)
                                  0x0 (size before relaxing)
                0x002fa500                services_table
                0x002fa600                ss_semaphore
 *fill*         0x002fa61c        0x4
 COMMON         0x002fa620       0xf0 ../../../../lib/32b/libbsp.a(eth_init.o)
                                  0x0 (size before relaxing)
                0x002fa620                eth_activity_ttl
                0x002fa640                eth_stats
 *fill*         0x002fa710       0x10
 COMMON         0x002fa720      0x648 ../../../../lib/32b/libbsp.a(eth_dma.o)
                                  0x0 (size before relaxing)
                0x002fa720                eth_tx_buffer_descriptors
                0x002fab20                eth_rxa_buffer_descriptors
                0x002fad20                eth_rxc_buffer_descriptors
                0x002fad40                eth_rxb_buffer_descriptors
                0x002fad60                eth_rxd_buffer_descriptors
 *fill*         0x002fad68       0x18
 COMMON         0x002fad80        0x4 ../../../../lib/32b/libbsp.a(eth_isr.o)
                                  0x0 (size before relaxing)
                0x002fad80                eth_isr_timer_cnt
 *fill*         0x002fad84       0x1c
 COMMON         0x002fada0       0x1c ../../../../lib/32b/libbsp.a(eth_stack.o)
                                  0x0 (size before relaxing)
                0x002fada0                packetTypeSemaphore
                0x002fadc0                . =  ALIGN (0x10)
 *fill*         0x002fadbc        0x4
                0x002fadc0                _bss_end__ = .
                0x002fadc0                __bss_end__ = .

.netosstack     0x002fadc0     0x3000
 *(.netosstack)
                0x002fddc0                . = (. + 0x3000)
 *fill*         0x002fadc0     0x3000
                0x002fddc0                netosstack_end = .

.stack          0x002fddc0     0x2000
 *(.stack)
                0x002ffdc0                . = (. + 0x2000)
 *fill*         0x002fddc0     0x2000
                0x002ffdc0                stack_end = .

.free_mem       0x002ffdc0     0x1000
                0x002ffdc0                free_mem_begin = .
 *(.free_mem)
                0x00300dc0                . = (. + 0x1000)
 *fill*         0x002ffdc0     0x1000

.heap           0x00300dc0   0x4ff23f
                0x00300dc0                PROVIDE (end, .)
                0x00300dc0                PROVIDE (__end__, .)
 *(.heap)
                0x007fffff                . = (. + (0x7fffff +  - (.)))
 *fill*         0x00300dc0   0x4ff23f
                0x007fffff                PROVIDE (heap_limit, .)

.stab
 *(.stab)

.stabstr
 *(.stabstr)

.stab.excl
 *(.stab.excl)

.stab.exclstr
 *(.stab.exclstr)

.stab.index
 *(.stab.index)

.stab.indexstr
 *(.stab.indexstr)

.comment        0x00000000     0x6f96
 *(.comment)
 .comment       0x00000000       0x36 ./objs/appconf_api.o
 .comment       0x00000036       0x36 ./objs/root.o
 .comment       0x0000006c       0x36 ./objs/MibMan.o
 .comment       0x000000a2       0x36 ./objs/EARMIB.o
 .comment       0x000000d8       0x36 ./objs/EARMIBAction.o
 .comment       0x0000010e       0x36 ./objs/ipgFlash.o
 .comment       0x00000144       0x36 ./objs/telnet.o
 .comment       0x0000017a       0x36 ./objs/menu.o
 .comment       0x000001b0       0x36 ./objs/ipgsnmp.o
 .comment       0x000001e6       0x36 ./objs/earTemperatureAlarmThreshold.o
 .comment       0x0000021c       0x36 ./objs/earSnmpMngrTable.o
 .comment       0x00000252       0x36 ./objs/earTrapPort.o
 .comment       0x00000288       0x36 ./objs/earPumpsOff.o
 .comment       0x000002be       0x36 ./objs/earChassisReboot.o
 .comment       0x000002f4       0x36 ./objs/earModelNumberRead.o
 .comment       0x0000032a       0x36 ./objs/earRtcTime.o
 .comment       0x00000360       0x36 ./objs/find_highwater.o
 .comment       0x00000396       0x36 ./objs/readFrom2U2.o
 .comment       0x000003cc       0x36 ./objs/semaphores.o
 .comment       0x00000402       0x36 ./objs/Snmp_api.o
 .comment       0x00000438       0x36 ./objs/configNotification.o
 .comment       0x0000046e       0x36 ./objs/atmel.o
 .comment       0x000004a4       0x36 ./objs/EDFAWelcomePage.o
 .comment       0x000004da       0x36 ./objs/EDFAWelcomePage_v.o
 .comment       0x00000510       0x36 ./objs/RpPages.o
 .comment       0x00000546       0x36 ./objs/security.o
 .comment       0x0000057c       0x36 ./objs/RpUsrDct.o
 .comment       0x000005b2       0x36 ./objs/cgi.o
 .comment       0x000005e8       0x36 ./objs/file.o
 .comment       0x0000061e       0x36 ./objs/naftpapp.o
 .comment       0x00000654       0x36 /usr/lib/gcc-lib/arm-elf/3.2/be/libgcc.a(_addsub_sf.o)
 .comment       0x0000068a       0x36 /usr/lib/gcc-lib/arm-elf/3.2/be/libgcc.a(_div_sf.o)
 .comment       0x000006c0       0x36 /usr/lib/gcc-lib/arm-elf/3.2/be/libgcc.a(_si_to_sf.o)
 .comment       0x000006f6       0x36 /usr/lib/gcc-lib/arm-elf/3.2/be/libgcc.a(_sf_to_df.o)
 .comment       0x0000072c       0x36 /usr/lib/gcc-lib/arm-elf/3.2/be/libgcc.a(_thenan_sf.o)
 .comment       0x00000762       0x36 /usr/lib/gcc-lib/arm-elf/3.2/be/libgcc.a(_div_df.o)
 .comment       0x00000798       0x36 /usr/lib/gcc-lib/arm-elf/3.2/be/libgcc.a(_make_df.o)
 .comment       0x000007ce       0x36 /usr/lib/gcc-lib/arm-elf/3.2/be/libgcc.a(_df_to_sf.o)
 .comment       0x00000804       0x36 /usr/lib/gcc-lib/arm-elf/3.2/be/libgcc.a(_thenan_df.o)
 .comment       0x0000083a       0x36 /usr/lib/gcc-lib/arm-elf/3.2/be/libgcc.a(_pack_sf.o)
 .comment       0x00000870       0x36 /usr/lib/gcc-lib/arm-elf/3.2/be/libgcc.a(_unpack_sf.o)
 .comment       0x000008a6       0x36 /usr/lib/gcc-lib/arm-elf/3.2/be/libgcc.a(_make_sf.o)
 .comment       0x000008dc       0x36 /usr/lib/gcc-lib/arm-elf/3.2/be/libgcc.a(_pack_df.o)
 .comment       0x00000912       0x36 /usr/lib/gcc-lib/arm-elf/3.2/be/libgcc.a(_unpack_df.o)
 .comment       0x00000948       0x36 /usr/lib/gcc-lib/arm-elf/3.2/be/libgcc.a(_lshrdi3.o)
 .comment       0x0000097e       0x36 /usr/lib/gcc-lib/arm-elf/3.2/be/libgcc.a(_ashldi3.o)
 .comment       0x000009b4       0x36 ../../../../lib/32b/gnu/libc.a(atof.o)
 .comment       0x000009ea       0x36 ../../../../lib/32b/gnu/libc.a(atoi.o)
 .comment       0x00000a20       0x36 ../../../../lib/32b/gnu/libc.a(calloc.o)
 .comment       0x00000a56       0x36 ../../../../lib/32b/gnu/libc.a(callocr.o)
 .comment       0x00000a8c       0x36 ../../../../lib/32b/gnu/libc.a(exit.o)
 .comment       0x00000ac2       0x36 ../../../../lib/32b/gnu/libc.a(fflush.o)
 .comment       0x00000af8       0x36 ../../../../lib/32b/gnu/libc.a(findfp.o)
 .comment       0x00000b2e       0x36 ../../../../lib/32b/gnu/libc.a(fwalk.o)
 .comment       0x00000b64       0x36 ../../../../lib/32b/gnu/libc.a(impure.o)
 .comment       0x00000b9a       0x36 ../../../../lib/32b/gnu/libc.a(isdigit.o)
 .comment       0x00000bd0       0x36 ../../../../lib/32b/gnu/libc.a(isspace.o)
 .comment       0x00000c06       0x36 ../../../../lib/32b/gnu/libc.a(lcltime.o)
 .comment       0x00000c3c       0x36 ../../../../lib/32b/gnu/libc.a(lcltime_r.o)
 .comment       0x00000c72       0x36 ../../../../lib/32b/gnu/libc.a(malloc.o)
 .comment       0x00000ca8       0x36 ../../../../lib/32b/gnu/libc.a(mallocr.o)
 .comment       0x00000cde       0x36 ../../../../lib/32b/gnu/libc.a(memcmp.o)
 .comment       0x00000d14       0x36 ../../../../lib/32b/gnu/libc.a(memcpy.o)
 .comment       0x00000d4a       0x36 ../../../../lib/32b/gnu/libc.a(memset.o)
 .comment       0x00000d80       0x36 ../../../../lib/32b/gnu/libc.a(mktm_r.o)
 .comment       0x00000db6       0x36 ../../../../lib/32b/gnu/libc.a(mlock.o)
 .comment       0x00000dec       0x36 ../../../../lib/32b/gnu/libc.a(printf.o)
 .comment       0x00000e22       0x36 ../../../../lib/32b/gnu/libc.a(rget.o)
 .comment       0x00000e58       0x36 ../../../../lib/32b/gnu/libc.a(sbrkr.o)
 .comment       0x00000e8e       0x36 ../../../../lib/32b/gnu/libc.a(snprintf.o)
 .comment       0x00000ec4       0x36 ../../../../lib/32b/gnu/libc.a(sprintf.o)
 .comment       0x00000efa       0x36 ../../../../lib/32b/gnu/libc.a(sscanf.o)
 .comment       0x00000f30       0x36 ../../../../lib/32b/gnu/libc.a(stdio.o)
 .comment       0x00000f66       0x36 ../../../../lib/32b/gnu/libc.a(strcat.o)
 .comment       0x00000f9c       0x36 ../../../../lib/32b/gnu/libc.a(strchr.o)
 .comment       0x00000fd2       0x36 ../../../../lib/32b/gnu/libc.a(strcmp.o)
 .comment       0x00001008       0x36 ../../../../lib/32b/gnu/libc.a(strcpy.o)
 .comment       0x0000103e       0x36 ../../../../lib/32b/gnu/libc.a(strlen.o)
 .comment       0x00001074       0x36 ../../../../lib/32b/gnu/libc.a(strncmp.o)
 .comment       0x000010aa       0x36 ../../../../lib/32b/gnu/libc.a(strncpy.o)
 .comment       0x000010e0       0x36 ../../../../lib/32b/gnu/libc.a(strstr.o)
 .comment       0x00001116       0x36 ../../../../lib/32b/gnu/libc.a(strtod.o)
 .comment       0x0000114c       0x36 ../../../../lib/32b/gnu/libc.a(strtok.o)
 .comment       0x00001182       0x36 ../../../../lib/32b/gnu/libc.a(strtok_r.o)
 .comment       0x000011b8       0x36 ../../../../lib/32b/gnu/libc.a(strtol.o)
 .comment       0x000011ee       0x36 ../../../../lib/32b/gnu/libc.a(tzlock.o)
 .comment       0x00001224       0x36 ../../../../lib/32b/gnu/libc.a(tzset_r.o)
 .comment       0x0000125a       0x36 ../../../../lib/32b/gnu/libc.a(vfprintf.o)
 .comment       0x00001290       0x36 ../../../../lib/32b/gnu/libc.a(vfscanf.o)
 .comment       0x000012c6       0x36 ../../../../lib/32b/gnu/libc.a(writer.o)
 .comment       0x000012fc       0x36 ../../../../lib/32b/gnu/libc.a(wsetup.o)
 .comment       0x00001332       0x36 ../../../../lib/32b/gnu/libc.a(syscalls.o)
 .comment       0x00001368       0x36 ../../../../lib/32b/gnu/libc.a(closer.o)
 .comment       0x0000139e       0x36 ../../../../lib/32b/gnu/libc.a(ctype_.o)
 .comment       0x000013d4       0x36 ../../../../lib/32b/gnu/libc.a(dtoa.o)
 .comment       0x0000140a       0x36 ../../../../lib/32b/gnu/libc.a(errno.o)
 .comment       0x00001440       0x36 ../../../../lib/32b/gnu/libc.a(fread.o)
 .comment       0x00001476       0x36 ../../../../lib/32b/gnu/libc.a(freer.o)
 .comment       0x000014ac       0x36 ../../../../lib/32b/gnu/libc.a(fvwrite.o)
 .comment       0x000014e2       0x36 ../../../../lib/32b/gnu/libc.a(getenv_r.o)
 .comment       0x00001518       0x36 ../../../../lib/32b/gnu/libc.a(locale.o)
 .comment       0x0000154e       0x36 ../../../../lib/32b/gnu/libc.a(lseekr.o)
 .comment       0x00001584       0x36 ../../../../lib/32b/gnu/libc.a(makebuf.o)
 .comment       0x000015ba       0x36 ../../../../lib/32b/gnu/libc.a(mbtowc_r.o)
 .comment       0x000015f0       0x36 ../../../../lib/32b/gnu/libc.a(memchr.o)
 .comment       0x00001626       0x36 ../../../../lib/32b/gnu/libc.a(memmove.o)
 .comment       0x0000165c       0x36 ../../../../lib/32b/gnu/libc.a(mprec.o)
 .comment       0x00001692       0x36 ../../../../lib/32b/gnu/libc.a(readr.o)
 .comment       0x000016c8       0x36 ../../../../lib/32b/gnu/libc.a(reallocr.o)
 .comment       0x000016fe       0x36 ../../../../lib/32b/gnu/libc.a(reent.o)
 .comment       0x00001734       0x36 ../../../../lib/32b/gnu/libc.a(refill.o)
 .comment       0x0000176a       0x36 ../../../../lib/32b/gnu/libc.a(s_infconst.o)
 .comment       0x000017a0       0x36 ../../../../lib/32b/gnu/libc.a(s_isinf.o)
 .comment       0x000017d6       0x36 ../../../../lib/32b/gnu/libc.a(s_isnan.o)
 .comment       0x0000180c       0x36 ../../../../lib/32b/gnu/libc.a(setenv.o)
 .comment       0x00001842       0x36 ../../../../lib/32b/gnu/libc.a(setenv_r.o)
 .comment       0x00001878       0x36 ../../../../lib/32b/gnu/libc.a(strtoul.o)
 .comment       0x000018ae       0x36 ../../../../lib/32b/gnu/libc.a(sysopen.o)
 .comment       0x000018e4       0x36 ../../../../lib/32b/gnu/libc.a(tzset.o)
 .comment       0x0000191a       0x36 ../../../../lib/32b/gnu/libc.a(ungetc.o)
 .comment       0x00001950       0x36 ../../../../lib/32b/gnu/libc.a(bcopy.o)
 .comment       0x00001986       0x36 ../../../../lib/32b/gnu/libc.a(environ.o)
 .comment       0x000019bc       0x36 ../../../../lib/32b/gnu/libc.a(envlock.o)
 .comment       0x000019f2       0x36 ../../../../lib/32b/gnu/libc.a(fstatr.o)
 .comment       0x00001a28       0x36 /usr/lib/gcc-lib/arm-elf/3.2/be/libgcc.a(_udivdi3.o)
 .comment       0x00001a5e       0x36 /usr/lib/gcc-lib/arm-elf/3.2/be/libgcc.a(_umoddi3.o)
 .comment       0x00001a94       0x36 /usr/lib/gcc-lib/arm-elf/3.2/be/libgcc.a(_addsub_df.o)
 .comment       0x00001aca       0x36 /usr/lib/gcc-lib/arm-elf/3.2/be/libgcc.a(_mul_df.o)
 .comment       0x00001b00       0x36 /usr/lib/gcc-lib/arm-elf/3.2/be/libgcc.a(_eq_df.o)
 .comment       0x00001b36       0x36 /usr/lib/gcc-lib/arm-elf/3.2/be/libgcc.a(_ne_df.o)
 .comment       0x00001b6c       0x36 /usr/lib/gcc-lib/arm-elf/3.2/be/libgcc.a(_gt_df.o)
 .comment       0x00001ba2       0x36 /usr/lib/gcc-lib/arm-elf/3.2/be/libgcc.a(_ge_df.o)
 .comment       0x00001bd8       0x36 /usr/lib/gcc-lib/arm-elf/3.2/be/libgcc.a(_lt_df.o)
 .comment       0x00001c0e       0x36 /usr/lib/gcc-lib/arm-elf/3.2/be/libgcc.a(_le_df.o)
 .comment       0x00001c44       0x36 /usr/lib/gcc-lib/arm-elf/3.2/be/libgcc.a(_si_to_df.o)
 .comment       0x00001c7a       0x36 /usr/lib/gcc-lib/arm-elf/3.2/be/libgcc.a(_df_to_si.o)
 .comment       0x00001cb0       0x36 /usr/lib/gcc-lib/arm-elf/3.2/be/libgcc.a(_negate_df.o)
 .comment       0x00001ce6       0x36 /usr/lib/gcc-lib/arm-elf/3.2/be/libgcc.a(_clz.o)
 .comment       0x00001d1c       0x36 /usr/lib/gcc-lib/arm-elf/3.2/be/libgcc.a(_fpcmp_parts_df.o)
 .comment       0x00001d52       0x36 ../../../../lib/32b/libbsp.a(bsp_api.o)
 .comment       0x00001d88       0x36 ../../../../lib/32b/libbsp.a(nainet.o)
 .comment       0x00001dbe       0x36 ../../../../lib/32b/libbsp.a(main.o)
 .comment       0x00001df4       0x36 ../../../../lib/32b/libbsp.a(errhndlr.o)
 .comment       0x00001e2a       0x36 ../../../../lib/32b/libbsp.a(narmbrd.o)
 .comment       0x00001e60       0x36 ../../../../lib/32b/libbsp.a(narmled.o)
 .comment       0x00001e96       0x36 ../../../../lib/32b/libbsp.a(devices.o)
 .comment       0x00001ecc       0x36 ../../../../lib/32b/libbsp.a(flashnvrm.o)
 .comment       0x00001f02       0x36 ../../../../lib/32b/libbsp.a(sysAccess.o)
 .comment       0x00001f38       0x36 ../../../../lib/32b/libbsp.a(lpbkdev.o)
 .comment       0x00001f6e       0x36 ../../../../lib/32b/libbsp.a(nuldev.o)
 .comment       0x00001fa4       0x36 ../../../../lib/32b/libbsp.a(nacache.o)
 .comment       0x00001fda       0x36 ../../../../lib/32b/libbsp.a(NCC_INIT.o)
 .comment       0x00002010       0x36 ../../../../lib/32b/libbsp.a(NCC_POST.o)
 .comment       0x00002046       0x36 ../../../../lib/32b/libbsp.a(IRQREG.o)
 .comment       0x0000207c       0x36 ../../../../lib/32b/libbsp.a(gpio.o)
 .comment       0x000020b2       0x36 ../../../../lib/32b/libbsp.a(cs.o)
 .comment       0x000020e8       0x36 ../../../../lib/32b/libbsp.a(boardParams.o)
 .comment       0x0000211e       0x36 ../../../../lib/32b/libbsp.a(nawait.o)
 .comment       0x00002154       0x36 ../../../../lib/32b/libbsp.a(nareset.o)
 .comment       0x0000218a       0x36 ../../../../lib/32b/libbsp.a(startfilesystem.o)
 .comment       0x000021c0       0x36 ../../../../lib/32b/libbsp.a(fbanks.o)
 .comment       0x000021f6       0x36 ../../../../lib/32b/libbsp.a(rtc.o)
 .comment       0x0000222c       0x36 ../../../../lib/32b/libbsp.a(termios.o)
 .comment       0x00002262       0x36 ../../../../lib/32b/libbsp.a(netos_serl.o)
 .comment       0x00002298       0x36 ../../../../lib/32b/libbsp.a(NA_ISR.o)
 .comment       0x000022ce       0x36 ../../../../lib/32b/libbsp.a(crc32h.o)
 .comment       0x00002304       0x36 ../../../../lib/32b/libbsp.a(udpdb.o)
 .comment       0x0000233a       0x36 ../../../../lib/32b/libbsp.a(bsp.o)
 .comment       0x00002370       0x36 ../../../../lib/32b/libbsp.a(bsproot.o)
 .comment       0x000023a6       0x36 ../../../../lib/32b/libbsp.a(starttcp.o)
 .comment       0x000023dc       0x36 ../../../../lib/32b/libbsp.a(bsptimer.o)
 .comment       0x00002412       0x36 ../../../../lib/32b/libbsp.a(sysClock.o)
 .comment       0x00002448       0x36 ../../../../lib/32b/libbsp.a(hdlcdvr.o)
 .comment       0x0000247e       0x36 ../../../../lib/32b/libbsp.a(aceParams.o)
 .comment       0x000024b4       0x36 ../../../../lib/32b/libbsp.a(aceCallbacks.o)
 .comment       0x000024ea       0x36 ../../../../lib/32b/libbsp.a(naip_global.o)
 .comment       0x00002520       0x36 ../../../../lib/32b/libbsp.a(naifconfig.o)
 .comment       0x00002556       0x36 ../../../../lib/32b/libbsp.a(dialog.o)
 .comment       0x0000258c       0x36 ../../../../lib/32b/libbsp.a(flashutil.o)
 .comment       0x000025c2       0x36 ../../../../lib/32b/libbsp.a(event_handler.o)
 .comment       0x000025f8       0x36 ../../../../lib/32b/libbsp.a(hdlcmem.o)
 .comment       0x0000262e       0x36 ../../../../lib/32b/libflash.a(naflash.o)
 .comment       0x00002664       0x36 ../../../../lib/32b/libflash.a(naflsem.o)
 .comment       0x0000269a       0x36 ../../../../lib/32b/libposix.a(posix_semaphore.o)
 .comment       0x000026d0       0x36 ../../../../lib/32b/libposix.a(posix_thread.o)
 .comment       0x00002706       0x36 ../../../../lib/32b/libtx.a(tx_ike.o)
 .comment       0x0000273c       0x36 ../../../../lib/32b/libtx.a(tx_timi.o)
 .comment       0x00002772       0x36 ../../../../lib/32b/libtx.a(tx_ti.o)
 .comment       0x000027a8       0x36 ../../../../lib/32b/libtx.a(tx_tc.o)
 .comment       0x000027de       0x36 ../../../../lib/32b/libtx.a(tx_tr.o)
 .comment       0x00002814       0x36 ../../../../lib/32b/libtx.a(tx_tte.o)
 .comment       0x0000284a       0x36 ../../../../lib/32b/libtx.a(tx_ta.o)
 .comment       0x00002880       0x36 ../../../../lib/32b/libtx.a(tx_tto.o)
 .comment       0x000028b6       0x36 ../../../../lib/32b/libtx.a(tx_tsle.o)
 .comment       0x000028ec       0x36 ../../../../lib/32b/libtx.a(tx_tide.o)
 .comment       0x00002922       0x36 ../../../../lib/32b/libtx.a(tx_gnu.o)
 .comment       0x00002958       0x36 ../../../../lib/32b/libtx.a(txe_efc.o)
 .comment       0x0000298e       0x36 ../../../../lib/32b/libtx.a(txe_efg.o)
 .comment       0x000029c4       0x36 ../../../../lib/32b/libtx.a(txe_qc.o)
 .comment       0x000029fa       0x36 ../../../../lib/32b/libtx.a(txe_qr.o)
 .comment       0x00002a30       0x36 ../../../../lib/32b/libtx.a(txe_qs.o)
 .comment       0x00002a66       0x36 ../../../../lib/32b/libtx.a(txe_sc.o)
 .comment       0x00002a9c       0x36 ../../../../lib/32b/libtx.a(txe_sd.o)
 .comment       0x00002ad2       0x36 ../../../../lib/32b/libtx.a(txe_sg.o)
 .comment       0x00002b08       0x36 ../../../../lib/32b/libtx.a(txe_sp.o)
 .comment       0x00002b3e       0x36 ../../../../lib/32b/libtx.a(txe_tc.o)
 .comment       0x00002b74       0x36 ../../../../lib/32b/libtx.a(txe_tdel.o)
 .comment       0x00002baa       0x36 ../../../../lib/32b/libtx.a(txe_trpc.o)
 .comment       0x00002be0       0x36 ../../../../lib/32b/libtx.a(txe_tra.o)
 .comment       0x00002c16       0x36 ../../../../lib/32b/libtx.a(txe_tsa.o)
 .comment       0x00002c4c       0x36 ../../../../lib/32b/libtx.a(txe_tt.o)
 .comment       0x00002c82       0x36 ../../../../lib/32b/libtx.a(txe_taa.o)
 .comment       0x00002cb8       0x36 ../../../../lib/32b/libtx.a(txe_tmch.o)
 .comment       0x00002cee       0x36 ../../../../lib/32b/libtx.a(txe_tmcr.o)
 .comment       0x00002d24       0x36 ../../../../lib/32b/libtx.a(txe_tda.o)
 .comment       0x00002d5a       0x36 ../../../../lib/32b/libtx.a(txe_timd.o)
 .comment       0x00002d90       0x36 ../../../../lib/32b/libtx.a(TX_MC.o)
 .comment       0x00002dc6       0x36 ../../../../lib/32b/libtx.a(TX_MG.o)
 .comment       0x00002dfc       0x36 ../../../../lib/32b/libtx.a(TX_MP.o)
 .comment       0x00002e32       0x36 ../../../../lib/32b/libtx.a(TX_MPRI.o)
 .comment       0x00002e68       0x36 ../../../../lib/32b/libtx.a(TX_MPC.o)
 .comment       0x00002e9e       0x36 ../../../../lib/32b/libtx.a(TX_MCLE.o)
 .comment       0x00002ed4       0x36 ../../../../lib/32b/libtx.a(TXE_MC.o)
 .comment       0x00002f0a       0x36 ../../../../lib/32b/libtx.a(TXE_MG.o)
 .comment       0x00002f40       0x36 ../../../../lib/32b/libtx.a(TXE_MP.o)
 .comment       0x00002f76       0x36 ../../../../lib/32b/libtx.a(tx_ihl.o)
 .comment       0x00002fac       0x36 ../../../../lib/32b/libtx.a(tx_tse.o)
 .comment       0x00002fe2       0x36 ../../../../lib/32b/libtx.a(tx_tsus.o)
 .comment       0x00003018       0x36 ../../../../lib/32b/libtx.a(tx_tsa.o)
 .comment       0x0000304e       0x36 ../../../../lib/32b/libtx.a(tx_tra.o)
 .comment       0x00003084       0x36 ../../../../lib/32b/libtx.a(tx_tts.o)
 .comment       0x000030ba       0x36 ../../../../lib/32b/libtx.a(tx_tdel.o)
 .comment       0x000030f0       0x36 ../../../../lib/32b/libtx.a(tx_tprch.o)
 .comment       0x00003126       0x36 ../../../../lib/32b/libtx.a(tx_tt.o)
 .comment       0x0000315c       0x36 ../../../../lib/32b/libtx.a(tx_td.o)
 .comment       0x00003192       0x36 ../../../../lib/32b/libtx.a(tx_timcr.o)
 .comment       0x000031c8       0x36 ../../../../lib/32b/libtx.a(tx_taa.o)
 .comment       0x000031fe       0x36 ../../../../lib/32b/libtx.a(tx_tda.o)
 .comment       0x00003234       0x36 ../../../../lib/32b/libtx.a(tx_timch.o)
 .comment       0x0000326a       0x36 ../../../../lib/32b/libtx.a(tx_timd.o)
 .comment       0x000032a0       0x36 ../../../../lib/32b/libtx.a(tx_sc.o)
 .comment       0x000032d6       0x36 ../../../../lib/32b/libtx.a(tx_sd.o)
 .comment       0x0000330c       0x36 ../../../../lib/32b/libtx.a(tx_sg.o)
 .comment       0x00003342       0x36 ../../../../lib/32b/libtx.a(tx_sp.o)
 .comment       0x00003378       0x36 ../../../../lib/32b/libtx.a(tx_scle.o)
 .comment       0x000033ae       0x36 ../../../../lib/32b/libtx.a(tx_qc.o)
 .comment       0x000033e4       0x36 ../../../../lib/32b/libtx.a(tx_qs.o)
 .comment       0x0000341a       0x36 ../../../../lib/32b/libtx.a(tx_qr.o)
 .comment       0x00003450       0x36 ../../../../lib/32b/libtx.a(tx_qcle.o)
 .comment       0x00003486       0x36 ../../../../lib/32b/libtx.a(tx_efc.o)
 .comment       0x000034bc       0x36 ../../../../lib/32b/libtx.a(tx_efg.o)
 .comment       0x000034f2       0x36 ../../../../lib/32b/libtx.a(tx_efcle.o)
 .comment       0x00003528       0x36 ../../../../lib/32b/libmanapi.a(man_env.o)
 .comment       0x0000355e       0x36 ../../../../lib/32b/libmanapi.a(man_init.o)
 .comment       0x00003594       0x36 ../../../../lib/32b/libmanapi.a(hash.o)
 .comment       0x000035ca       0x36 ../../../../lib/32b/libmanapi.a(man_row.o)
 .comment       0x00003600       0x36 ../../../../lib/32b/libmanapi.a(man_main.o)
 .comment       0x00003636       0x36 ../../../../lib/32b/libftpsvr.a(ftposp.o)
 .comment       0x0000366c       0x36 ../../../../lib/32b/libftpsvr.a(ftpsvr.o)
 .comment       0x000036a2       0x36 ../../../../lib/32b/libtelnsvr.a(ts_mod.o)
 .comment       0x000036d8       0x36 ../../../../lib/32b/libtelnsvr.a(telnetd2.o)
 .comment       0x0000370e       0x36 ../../../../lib/32b/libtelnsvr.a(fsminit.o)
 .comment       0x00003744       0x36 ../../../../lib/32b/libtelnsvr.a(ttfsm.o)
 .comment       0x0000377a       0x36 ../../../../lib/32b/libtelnsvr.a(ttgetc.o)
 .comment       0x000037b0       0x36 ../../../../lib/32b/libtelnsvr.a(will_not.o)
 .comment       0x000037e6       0x36 ../../../../lib/32b/libtelnsvr.a(do_echo.o)
 .comment       0x0000381c       0x36 ../../../../lib/32b/libtelnsvr.a(do_noga.o)
 .comment       0x00003852       0x36 ../../../../lib/32b/libtelnsvr.a(do_notsu.o)
 .comment       0x00003888       0x36 ../../../../lib/32b/libtelnsvr.a(do_txbin.o)
 .comment       0x000038be       0x36 ../../../../lib/32b/libtelnsvr.a(tcga.o)
 .comment       0x000038f4       0x36 ../../../../lib/32b/libtelnsvr.a(recopt.o)
 .comment       0x0000392a       0x36 ../../../../lib/32b/libdnsclnt.a(dnsc_api.o)
 .comment       0x00003960       0x36 ../../../../lib/32b/libfastip.a(fast_ip.o)
 .comment       0x00003996       0x36 ../../../../lib/32b/libtcpip.a(ace.o)
 .comment       0x000039cc       0x36 ../../../../lib/32b/libtcpip.a(ace_os.o)
 .comment       0x00003a02       0x36 ../../../../lib/32b/libtcpip.a(ace_dhcp.o)
 .comment       0x00003a38       0x36 ../../../../lib/32b/libtcpip.a(ace_bootp.o)
 .comment       0x00003a6e       0x36 ../../../../lib/32b/libtcpip.a(ace_autoip.o)
 .comment       0x00003aa4       0x36 ../../../../lib/32b/libtcpip.a(ace_static.o)
 .comment       0x00003ada       0x36 ../../../../lib/32b/libtcpip.a(ace_rarp.o)
 .comment       0x00003b10       0x36 ../../../../lib/32b/libtcpip.a(ace_pingarp.o)
 .comment       0x00003b46       0x36 ../../../../lib/32b/libtcpip.a(fnsrr.o)
 .comment       0x00003b7c       0x36 ../../../../lib/32b/libtcpip.a(heap.o)
 .comment       0x00003bb2       0x36 ../../../../lib/32b/libtcpip.a(icmp.o)
 .comment       0x00003be8       0x36 ../../../../lib/32b/libtcpip.a(ipclassm.o)
 .comment       0x00003c1e       0x36 ../../../../lib/32b/libtcpip.a(ipcomm.o)
 .comment       0x00003c54       0x36 ../../../../lib/32b/libtcpip.a(ipfrag.o)
 .comment       0x00003c8a       0x36 ../../../../lib/32b/libtcpip.a(ipmisc.o)
 .comment       0x00003cc0       0x36 ../../../../lib/32b/libtcpip.a(ipnetd.o)
 .comment       0x00003cf6       0x36 ../../../../lib/32b/libtcpip.a(ipopt.o)
 .comment       0x00003d2c       0x36 ../../../../lib/32b/libtcpip.a(ipxmit.o)
 .comment       0x00003d62       0x36 ../../../../lib/32b/libtcpip.a(lkheap.o)
 .comment       0x00003d98       0x36 ../../../../lib/32b/libtcpip.a(llconfig.o)
 .comment       0x00003dce       0x36 ../../../../lib/32b/libtcpip.a(m.o)
 .comment       0x00003e04       0x36 ../../../../lib/32b/libtcpip.a(md.o)
 .comment       0x00003e3a       0x36 ../../../../lib/32b/libtcpip.a(md5.o)
 .comment       0x00003e70       0x36 ../../../../lib/32b/libtcpip.a(msm.o)
 .comment       0x00003ea6       0x36 ../../../../lib/32b/libtcpip.a(ncaf.o)
 .comment       0x00003edc       0x36 ../../../../lib/32b/libtcpip.a(naadddev.o)
 .comment       0x00003f12       0x36 ../../../../lib/32b/libtcpip.a(ncdev.o)
 .comment       0x00003f48       0x36 ../../../../lib/32b/libtcpip.a(ncdid.o)
 .comment       0x00003f7e       0x36 ../../../../lib/32b/libtcpip.a(ncmisc.o)
 .comment       0x00003fb4       0x36 ../../../../lib/32b/libtcpip.a(ncpr.o)
 .comment       0x00003fea       0x36 ../../../../lib/32b/libtcpip.a(q.o)
 .comment       0x00004020       0x36 ../../../../lib/32b/libtcpip.a(secure.o)
 .comment       0x00004056       0x36 ../../../../lib/32b/libtcpip.a(select.o)
 .comment       0x0000408c       0x36 ../../../../lib/32b/libtcpip.a(sock.o)
 .comment       0x000040c2       0x36 ../../../../lib/32b/libtcpip.a(sop.o)
 .comment       0x000040f8       0x36 ../../../../lib/32b/libtcpip.a(timer.o)
 .comment       0x0000412e       0x36 ../../../../lib/32b/libtcpip.a(twq.o)
 .comment       0x00004164       0x36 ../../../../lib/32b/libtcpip.a(udpnetd.o)
 .comment       0x0000419a       0x36 ../../../../lib/32b/libtcpip.a(udpopt.o)
 .comment       0x000041d0       0x36 ../../../../lib/32b/libtcpip.a(udpsock.o)
 .comment       0x00004206       0x36 ../../../../lib/32b/libtcpip.a(tcpxmit.o)
 .comment       0x0000423c       0x36 ../../../../lib/32b/libtcpip.a(tcpnetd.o)
 .comment       0x00004272       0x36 ../../../../lib/32b/libtcpip.a(tcpsend.o)
 .comment       0x000042a8       0x36 ../../../../lib/32b/libtcpip.a(tcpsock.o)
 .comment       0x000042de       0x36 ../../../../lib/32b/libtcpip.a(tcpmisc.o)
 .comment       0x00004314       0x36 ../../../../lib/32b/libtcpip.a(tcptrans.o)
 .comment       0x0000434a       0x36 ../../../../lib/32b/libtcpip.a(tcpimpco.o)
 .comment       0x00004380       0x36 ../../../../lib/32b/libtcpip.a(igmp.o)
 .comment       0x000043b6       0x36 ../../../../lib/32b/libtcpip.a(socketopt.o)
 .comment       0x000043ec       0x36 ../../../../lib/32b/libtcpip.a(sockapi.o)
 .comment       0x00004422       0x36 ../../../../lib/32b/libtcpip.a(autoip.o)
 .comment       0x00004458       0x36 ../../../../lib/32b/libtcpip.a(rricirc.o)
 .comment       0x0000448e       0x36 ../../../../lib/32b/libtcpip.a(rripfdb.o)
 .comment       0x000044c4       0x36 ../../../../lib/32b/libtcpip.a(rripfwd.o)
 .comment       0x000044fa       0x36 ../../../../lib/32b/libtcpip.a(rrrcirc.o)
 .comment       0x00004530       0x36 ../../../../lib/32b/libtcpip.a(rrtask.o)
 .comment       0x00004566       0x36 ../../../../lib/32b/libtcpip.a(res_init.o)
 .comment       0x0000459c       0x36 ../../../../lib/32b/libtcpip.a(gethnama.o)
 .comment       0x000045d2       0x36 ../../../../lib/32b/libtcpip.a(dnscache.o)
 .comment       0x00004608       0x36 ../../../../lib/32b/libtcpip.a(pppdev.o)
 .comment       0x0000463e       0x36 ../../../../lib/32b/libtcpip.a(pppfsm.o)
 .comment       0x00004674       0x36 ../../../../lib/32b/libtcpip.a(pppipcp.o)
 .comment       0x000046aa       0x36 ../../../../lib/32b/libtcpip.a(ppplcp.o)
 .comment       0x000046e0       0x36 ../../../../lib/32b/libtcpip.a(ppppap.o)
 .comment       0x00004716       0x36 ../../../../lib/32b/libtcpip.a(pppsend.o)
 .comment       0x0000474c       0x36 ../../../../lib/32b/libtcpip.a(pppsess.o)
 .comment       0x00004782       0x36 ../../../../lib/32b/libtcpip.a(ppputil.o)
 .comment       0x000047b8       0x36 ../../../../lib/32b/libtcpip.a(pppauth.o)
 .comment       0x000047ee       0x36 ../../../../lib/32b/libtcpip.a(pppuapi.o)
 .comment       0x00004824       0x36 ../../../../lib/32b/libtcpip.a(dhcpapi.o)
 .comment       0x0000485a       0x36 ../../../../lib/32b/libtcpip.a(dhcparp.o)
 .comment       0x00004890       0x36 ../../../../lib/32b/libtcpip.a(options.o)
 .comment       0x000048c6       0x36 ../../../../lib/32b/libtcpip.a(client.o)
 .comment       0x000048fc       0x36 ../../../../lib/32b/libtcpip.a(pppapi.o)
 .comment       0x00004932       0x36 ../../../../lib/32b/libtcpip.a(modem.o)
 .comment       0x00004968       0x36 ../../../../lib/32b/libtcpip.a(uart_bpool.o)
 .comment       0x0000499e       0x36 ../../../../lib/32b/libtcpip.a(osdep.o)
 .comment       0x000049d4       0x36 ../../../../lib/32b/libtcpip.a(bdoptlib.o)
 .comment       0x00004a0a       0x36 ../../../../lib/32b/libtcpip.a(bootpapi.o)
 .comment       0x00004a40       0x36 ../../../../lib/32b/libtcpip.a(udpxmit.o)
 .comment       0x00004a76       0x36 ../../../../lib/32b/libtcpip.a(arp.o)
 .comment       0x00004aac       0x36 ../../../../lib/32b/libtcpip.a(bind.o)
 .comment       0x00004ae2       0x36 ../../../../lib/32b/libtcpip.a(connect.o)
 .comment       0x00004b18       0x36 ../../../../lib/32b/libtcpip.a(enet.o)
 .comment       0x00004b4e       0x36 ../../../../lib/32b/libtcpip.a(frk.o)
 .comment       0x00004b84       0x36 ../../../../lib/32b/libtcpip.a(frklk.o)
 .comment       0x00004bba       0x36 ../../../../lib/32b/libtcpip.a(fselect.o)
 .comment       0x00004bf0       0x36 ../../../../lib/32b/libtcpip.a(getpeern.o)
 .comment       0x00004c26       0x36 ../../../../lib/32b/libtcpip.a(getsockn.o)
 .comment       0x00004c5c       0x36 ../../../../lib/32b/libtcpip.a(inet_add.o)
 .comment       0x00004c92       0x36 ../../../../lib/32b/libtcpip.a(ip.o)
 .comment       0x00004cc8       0x36 ../../../../lib/32b/libtcpip.a(lbdev.o)
 .comment       0x00004cfe       0x36 ../../../../lib/32b/libtcpip.a(link.o)
 .comment       0x00004d34       0x36 ../../../../lib/32b/libtcpip.a(listen.o)
 .comment       0x00004d6a       0x36 ../../../../lib/32b/libtcpip.a(node.o)
 .comment       0x00004da0       0x36 ../../../../lib/32b/libtcpip.a(nselect.o)
 .comment       0x00004dd6       0x36 ../../../../lib/32b/libtcpip.a(pioctl.o)
 .comment       0x00004e0c       0x36 ../../../../lib/32b/libtcpip.a(recv.o)
 .comment       0x00004e42       0x36 ../../../../lib/32b/libtcpip.a(recvfrom.o)
 .comment       0x00004e78       0x36 ../../../../lib/32b/libtcpip.a(send.o)
 .comment       0x00004eae       0x36 ../../../../lib/32b/libtcpip.a(sendto.o)
 .comment       0x00004ee4       0x36 ../../../../lib/32b/libtcpip.a(shutdown.o)
 .comment       0x00004f1a       0x36 ../../../../lib/32b/libtcpip.a(sob.o)
 .comment       0x00004f50       0x36 ../../../../lib/32b/libtcpip.a(socket.o)
 .comment       0x00004f86       0x36 ../../../../lib/32b/libtcpip.a(accept.o)
 .comment       0x00004fbc       0x36 ../../../../lib/32b/libtcpip.a(tcpperf.o)
 .comment       0x00004ff2       0x36 ../../../../lib/32b/libtcpip.a(ndq.o)
 .comment       0x00005028       0x36 ../../../../lib/32b/libtcpip.a(strcmpi.o)
 .comment       0x0000505e       0x36 ../../../../lib/32b/libtcpip.a(inet_pto.o)
 .comment       0x00005094       0x36 ../../../../lib/32b/libtcpip.a(res_comp.o)
 .comment       0x000050ca       0x36 ../../../../lib/32b/libtcpip.a(res_quer.o)
 .comment       0x00005100       0x36 ../../../../lib/32b/libtcpip.a(res_send.o)
 .comment       0x00005136       0x36 ../../../../lib/32b/libtcpip.a(vjcomp.o)
 .comment       0x0000516c       0x36 ../../../../lib/32b/libtcpip.a(pppbs.o)
 .comment       0x000051a2       0x36 ../../../../lib/32b/libtcpip.a(pppchap.o)
 .comment       0x000051d8       0x36 ../../../../lib/32b/libtcpip.a(ppprecv.o)
 .comment       0x0000520e       0x36 ../../../../lib/32b/libtcpip.a(ppp.o)
 .comment       0x00005244       0x36 ../../../../lib/32b/libtcpip.a(socketif.o)
 .comment       0x0000527a       0x36 ../../../../lib/32b/libtcpip.a(if.o)
 .comment       0x000052b0       0x36 ../../../../lib/32b/libtcpip.a(uart.o)
 .comment       0x000052e6       0x36 ../../../../lib/32b/libtcpip.a(nullmdm.o)
 .comment       0x0000531c       0x36 ../../../../lib/32b/libtcpip.a(bootp.o)
 .comment       0x00005352       0x36 ../../../../lib/32b/libtcpip.a(res_mkqu.o)
 .comment       0x00005388       0x36 ../../../../lib/32b/gnu/libc.a(assert.o)
 .comment       0x000053be       0x36 ../../../../lib/32b/gnu/libc.a(bzero.o)
 .comment       0x000053f4       0x36 ../../../../lib/32b/gnu/libc.a(div.o)
 .comment       0x0000542a       0x36 ../../../../lib/32b/gnu/libc.a(fiprintf.o)
 .comment       0x00005460       0x36 ../../../../lib/32b/gnu/libc.a(libcfunc.o)
 .comment       0x00005496       0x36 ../../../../lib/32b/gnu/libc.a(puts.o)
 .comment       0x000054cc       0x36 ../../../../lib/32b/gnu/libc.a(sysclose.o)
 .comment       0x00005502       0x36 ../../../../lib/32b/gnu/libc.a(sysread.o)
 .comment       0x00005538       0x36 ../../../../lib/32b/gnu/libc.a(syswrite.o)
 .comment       0x0000556e       0x36 ../../../../lib/32b/gnu/libc.a(vfiprintf.o)
 .comment       0x000055a4       0x36 ../../../../lib/32b/gnu/libc.a(wbuf.o)
 .comment       0x000055da       0x36 ../../../../lib/32b/librphttpd.a(RpForm.o)
 .comment       0x00005610       0x36 ../../../../lib/32b/librphttpd.a(RpHtml.o)
 .comment       0x00005646       0x36 ../../../../lib/32b/librphttpd.a(RpQuery.o)
 .comment       0x0000567c       0x36 ../../../../lib/32b/librphttpd.a(hserv.o)
 .comment       0x000056b2       0x36 ../../../../lib/32b/librphttpd.a(RpHttp.o)
 .comment       0x000056e8       0x36 ../../../../lib/32b/librphttpd.a(RpFrmItm.o)
 .comment       0x0000571e       0x36 ../../../../lib/32b/librphttpd.a(RmSmtp.o)
 .comment       0x00005754       0x36 ../../../../lib/32b/librphttpd.a(AsCommon.o)
 .comment       0x0000578a       0x36 ../../../../lib/32b/librphttpd.a(AsDate.o)
 .comment       0x000057c0       0x36 ../../../../lib/32b/librphttpd.a(AsGlobal.o)
 .comment       0x000057f6       0x36 ../../../../lib/32b/librphttpd.a(AsMain.o)
 .comment       0x0000582c       0x36 ../../../../lib/32b/librphttpd.a(AsMimes.o)
 .comment       0x00005862       0x36 ../../../../lib/32b/librphttpd.a(AsParse.o)
 .comment       0x00005898       0x36 ../../../../lib/32b/librphttpd.a(AsBase64.o)
 .comment       0x000058ce       0x36 ../../../../lib/32b/librphttpd.a(AsConvrt.o)
 .comment       0x00005904       0x36 ../../../../lib/32b/librphttpd.a(AsVarAcc.o)
 .comment       0x0000593a       0x36 ../../../../lib/32b/librphttpd.a(AsCustom.o)
 .comment       0x00005970       0x36 ../../../../lib/32b/librphttpd.a(Sfil.o)
 .comment       0x000059a6       0x36 ../../../../lib/32b/librphttpd.a(STCP.o)
 .comment       0x000059dc       0x36 ../../../../lib/32b/librphttpd.a(RpAccess.o)
 .comment       0x00005a12       0x36 ../../../../lib/32b/librphttpd.a(RpData.o)
 .comment       0x00005a48       0x36 ../../../../lib/32b/librphttpd.a(RpHttpDy.o)
 .comment       0x00005a7e       0x36 ../../../../lib/32b/librphttpd.a(RpUser.o)
 .comment       0x00005ab4       0x36 ../../../../lib/32b/librphttpd.a(mcfil.o)
 .comment       0x00005aea       0x36 ../../../../lib/32b/librphttpd.a(RpHttpRq.o)
 .comment       0x00005b20       0x36 ../../../../lib/32b/librphttpd.a(RpHttpPs.o)
 .comment       0x00005b56       0x36 ../../../../lib/32b/librphttpd.a(RpFile.o)
 .comment       0x00005b8c       0x36 ../../../../lib/32b/librphttpd.a(RmMailer.o)
 .comment       0x00005bc2       0x36 ../../../../lib/32b/librphttpd.a(RmData.o)
 .comment       0x00005bf8       0x36 ../../../../lib/32b/librphttpd.a(PrPop3.o)
 .comment       0x00005c2e       0x36 ../../../../lib/32b/librphttpd.a(PrData.o)
 .comment       0x00005c64       0x36 ../../../../lib/32b/librphttpd.a(maw_main.o)
 .comment       0x00005c9a       0x36 ../../../../lib/32b/librphttpd.a(AsMD5.o)
 .comment       0x00005cd0       0x36 ../../../../lib/32b/librphttpd.a(Spwd.o)
 .comment       0x00005d06       0x36 ../../../../lib/32b/librphttpd.a(RpCallBk.o)
 .comment       0x00005d3c       0x36 ../../../../lib/32b/librphttpd.a(RpMulti.o)
 .comment       0x00005d72       0x36 ../../../../lib/32b/librphttpd.a(RpUrl.o)
 .comment       0x00005da8       0x36 ../../../../lib/32b/librphttpd.a(PrRomPop.o)
 .comment       0x00005dde       0x36 ../../../../lib/32b/libsnmp.a(snmpvar.o)
 .comment       0x00005e14       0x36 ../../../../lib/32b/libsnmp.a(traps.o)
 .comment       0x00005e4a       0x36 ../../../../lib/32b/libsnmp.a(os_deps.o)
 .comment       0x00005e80       0x36 ../../../../lib/32b/libsnmp.a(man_dumb.o)
 .comment       0x00005eb6       0x36 ../../../../lib/32b/libsnmp.a(man_errs.o)
 .comment       0x00005eec       0x36 ../../../../lib/32b/libsnmp.a(man_fld.o)
 .comment       0x00005f22       0x36 ../../../../lib/32b/libsnmp.a(man_indx.o)
 .comment       0x00005f58       0x36 ../../../../lib/32b/libsnmp.a(man_irow.o)
 .comment       0x00005f8e       0x36 ../../../../lib/32b/libsnmp.a(man_mem.o)
 .comment       0x00005fc4       0x36 ../../../../lib/32b/libsnmp.a(snmp_port.o)
 .comment       0x00005ffa       0x36 ../../../../lib/32b/libsnmp.a(snmp_ll.o)
 .comment       0x00006030       0x36 ../../../../lib/32b/libsnmp.a(snmp_var.o)
 .comment       0x00006066       0x36 ../../../../lib/32b/libsnmp.a(snmpage.o)
 .comment       0x0000609c       0x36 ../../../../lib/32b/libsnmp.a(sys_var.o)
 .comment       0x000060d2       0x36 ../../../../lib/32b/libsnmp.a(tcpip_var.o)
 .comment       0x00006108       0x36 ../../../../lib/32b/libsnmp.a(sys_local.o)
 .comment       0x0000613e       0x36 ../../../../lib/32b/libsnmp.a(tcpip_local.o)
 .comment       0x00006174       0x36 ../../../../lib/32b/libmanMib.a(MibMan.o)
 .comment       0x000061aa       0x36 ../../../../lib/32b/libmanMib.a(RFC1213_MIB.o)
 .comment       0x000061e0       0x36 ../../../../lib/32b/libmanMib.a(SNMPv2_MIB.o)
 .comment       0x00006216       0x36 ../../../../lib/32b/libmanMib.a(RFC1213_MIBAction.o)
 .comment       0x0000624c       0x36 ../../../../lib/32b/libmanMib.a(SNMPv2_MIBAction.o)
 .comment       0x00006282       0x36 ../../../../lib/32b/libmanMib.a(man_sys.o)
 .comment       0x000062b8       0x36 ../../../../lib/32b/libmanMib.a(man_if.o)
 .comment       0x000062ee       0x36 ../../../../lib/32b/libmanMib.a(man_at.o)
 .comment       0x00006324       0x36 ../../../../lib/32b/libmanMib.a(man_ip.o)
 .comment       0x0000635a       0x36 ../../../../lib/32b/libmanMib.a(man_icmp.o)
 .comment       0x00006390       0x36 ../../../../lib/32b/libmanMib.a(man_tcp.o)
 .comment       0x000063c6       0x36 ../../../../lib/32b/libmanMib.a(man_upd.o)
 .comment       0x000063fc       0x36 ../../../../lib/32b/libmanMib.a(man_egp.o)
 .comment       0x00006432       0x36 ../../../../lib/32b/libmanMib.a(man_snmp.o)
 .comment       0x00006468       0x36 ../../../../lib/32b/libsntp.a(UDPsntp.o)
 .comment       0x0000649e       0x36 ../../../../lib/32b/libfilesys.a(fss.o)
 .comment       0x000064d4       0x36 ../../../../lib/32b/libfilesys.a(rss.o)
 .comment       0x0000650a       0x36 ../../../../lib/32b/libfilesys.a(crc32h.o)
 .comment       0x00006540       0x36 ../../../../lib/32b/libfilesys.a(bheader.o)
 .comment       0x00006576       0x36 ../../../../lib/32b/libfilesys.a(fs_api.o)
 .comment       0x000065ac       0x36 ../../../../lib/32b/libfilesys.a(io.o)
 .comment       0x000065e2       0x36 ../../../../lib/32b/libfilesys.a(parser.o)
 .comment       0x00006618       0x36 ../../../../lib/32b/libfilesys.a(ftables.o)
 .comment       0x0000664e       0x36 ../../../../lib/32b/libfilesys.a(thread.o)
 .comment       0x00006684       0x36 ../../../../lib/32b/libfilesys.a(sblock.o)
 .comment       0x000066ba       0x36 ../../../../lib/32b/libfilesys.a(bpool.o)
 .comment       0x000066f0       0x36 ../../../../lib/32b/libfilesys.a(pwr_loss.o)
 .comment       0x00006726       0x36 ../../../../lib/32b/libfilesys.a(inode.o)
 .comment       0x0000675c       0x36 ../../../../lib/32b/libfilesys.a(services.o)
 .comment       0x00006792       0x36 ../../../../lib/32b/libbsp.a(MII.o)
 .comment       0x000067c8       0x36 ../../../../lib/32b/libbsp.a(select_support.o)
 .comment       0x000067fe       0x36 ../../../../lib/32b/libbsp.a(eth_init.o)
 .comment       0x00006834       0x36 ../../../../lib/32b/libbsp.a(eth_dma.o)
 .comment       0x0000686a       0x36 ../../../../lib/32b/libbsp.a(eth_isr.o)
 .comment       0x000068a0       0x36 ../../../../lib/32b/libbsp.a(eth_mcast.o)
 .comment       0x000068d6       0x36 ../../../../lib/32b/libbsp.a(eth_os.o)
 .comment       0x0000690c       0x36 ../../../../lib/32b/libbsp.a(eth_recv.o)
 .comment       0x00006942       0x36 ../../../../lib/32b/libbsp.a(eth_send.o)
 .comment       0x00006978       0x36 ../../../../lib/32b/libbsp.a(eth_stack.o)
 .comment       0x000069ae       0x36 ../../../../lib/32b/libbsp.a(eth_watchdog.o)
 .comment       0x000069e4       0x36 ../../../../lib/32b/libbsp.a(eth_reset.o)
 .comment       0x00006a1a       0x36 ../../../../lib/32b/libtx.a(tx_timeg.o)
 .comment       0x00006a50       0x36 ../../../../lib/32b/libtx.a(txe_efs.o)
 .comment       0x00006a86       0x36 ../../../../lib/32b/libtx.a(txe_tpch.o)
 .comment       0x00006abc       0x36 ../../../../lib/32b/libtx.a(txe_trel.o)
 .comment       0x00006af2       0x36 ../../../../lib/32b/libtx.a(TXE_TIG.o)
 .comment       0x00006b28       0x36 ../../../../lib/32b/libtx.a(TXE_MD.o)
 .comment       0x00006b5e       0x36 ../../../../lib/32b/libtx.a(tx_trel.o)
 .comment       0x00006b94       0x36 ../../../../lib/32b/libtx.a(tx_tpch.o)
 .comment       0x00006bca       0x36 ../../../../lib/32b/libtx.a(tx_efs.o)
 .comment       0x00006c00       0x36 ../../../../lib/32b/libtx.a(TX_TIG.o)
 .comment       0x00006c36       0x36 ../../../../lib/32b/libtx.a(TX_MD.o)
 .comment       0x00006c6c       0x36 ../../../../lib/32b/libemailc.a(allegro_mailc.o)
 .comment       0x00006ca2       0x36 ../../../../lib/32b/libtcpip.a(udpopen.o)
 .comment       0x00006cd8       0x36 ../../../../lib/32b/libtcpip.a(strcpy.o)
 .comment       0x00006d0e       0x36 ../../../../lib/32b/libtcpip.a(strlen.o)
 .comment       0x00006d44       0x36 ../../../../lib/32b/libtcpip.a(memory.o)
 .comment       0x00006d7a       0x36 ../../../../lib/32b/libtcpip.a(ipbind.o)
 .comment       0x00006db0       0x36 ../../../../lib/32b/gnu/libc.a(atol.o)
 .comment       0x00006de6       0x36 ../../../../lib/32b/gnu/libc.a(rand.o)
 .comment       0x00006e1c       0x36 ../../../../lib/32b/gnu/libc.a(time.o)
 .comment       0x00006e52       0x36 ../../../../lib/32b/gnu/libc.a(timer.o)
 .comment       0x00006e88       0x36 ../../../../lib/32b/libsnmp.a(man_wrtr.o)
 .comment       0x00006ebe       0x36 ../../../../lib/32b/libsnmp.a(man_rnge.o)
 .comment       0x00006ef4       0x36 ../../../../lib/32b/libsnmp.a(man_wobj.o)
 .comment       0x00006f2a       0x36 ../../../../lib/32b/libsnmp.a(man_accr.o)
 .comment       0x00006f60       0x36 ../../../../lib/32b/libsnmp.a(man_robj.o)

.debug
 *(.debug)

.line
 *(.line)

.debug_srcinfo
 *(.debug_srcinfo)

.debug_sfnames
 *(.debug_sfnames)

.debug_aranges  0x00000000     0x3d40
 *(.debug_aranges)
 .debug_aranges
                0x00000000       0x20 ./objs/appconf_api.o
 .debug_aranges
                0x00000020       0x20 ./objs/root.o
 .debug_aranges
                0x00000040       0x20 ./objs/MibMan.o
 .debug_aranges
                0x00000060       0x20 ./objs/EARMIBAction.o
 .debug_aranges
                0x00000080       0x20 ./objs/ipgFlash.o
 .debug_aranges
                0x000000a0       0x20 ./objs/telnet.o
 .debug_aranges
                0x000000c0       0x20 ./objs/menu.o
 .debug_aranges
                0x000000e0       0x20 ./objs/ipgsnmp.o
 .debug_aranges
                0x00000100       0x20 ./objs/earTemperatureAlarmThreshold.o
 .debug_aranges
                0x00000120       0x20 ./objs/earSnmpMngrTable.o
 .debug_aranges
                0x00000140       0x20 ./objs/earTrapPort.o
 .debug_aranges
                0x00000160       0x20 ./objs/earPumpsOff.o
 .debug_aranges
                0x00000180       0x20 ./objs/earChassisReboot.o
 .debug_aranges
                0x000001a0       0x20 ./objs/earModelNumberRead.o
 .debug_aranges
                0x000001c0       0x20 ./objs/earRtcTime.o
 .debug_aranges
                0x000001e0       0x20 ./objs/find_highwater.o
 .debug_aranges
                0x00000200       0x20 ./objs/readFrom2U2.o
 .debug_aranges
                0x00000220       0x20 ./objs/semaphores.o
 .debug_aranges
                0x00000240       0x20 ./objs/Snmp_api.o
 .debug_aranges
                0x00000260       0x20 ./objs/configNotification.o
 .debug_aranges
                0x00000280       0x20 ./objs/atmel.o
 .debug_aranges
                0x000002a0       0x20 ./objs/EDFAWelcomePage_v.o
 .debug_aranges
                0x000002c0       0x20 ./objs/security.o
 .debug_aranges
                0x000002e0       0x20 ./objs/cgi.o
 .debug_aranges
                0x00000300       0x20 ./objs/file.o
 .debug_aranges
                0x00000320       0x20 ./objs/naftpapp.o
 .debug_aranges
                0x00000340       0x20 /usr/lib/gcc-lib/arm-elf/3.2/be/libgcc.a(_addsub_sf.o)
 .debug_aranges
                0x00000360       0x20 /usr/lib/gcc-lib/arm-elf/3.2/be/libgcc.a(_div_sf.o)
 .debug_aranges
                0x00000380       0x20 /usr/lib/gcc-lib/arm-elf/3.2/be/libgcc.a(_si_to_sf.o)
 .debug_aranges
                0x000003a0       0x20 /usr/lib/gcc-lib/arm-elf/3.2/be/libgcc.a(_sf_to_df.o)
 .debug_aranges
                0x000003c0       0x20 /usr/lib/gcc-lib/arm-elf/3.2/be/libgcc.a(_div_df.o)
 .debug_aranges
                0x000003e0       0x20 /usr/lib/gcc-lib/arm-elf/3.2/be/libgcc.a(_make_df.o)
 .debug_aranges
                0x00000400       0x20 /usr/lib/gcc-lib/arm-elf/3.2/be/libgcc.a(_df_to_sf.o)
 .debug_aranges
                0x00000420       0x20 /usr/lib/gcc-lib/arm-elf/3.2/be/libgcc.a(_pack_sf.o)
 .debug_aranges
                0x00000440       0x20 /usr/lib/gcc-lib/arm-elf/3.2/be/libgcc.a(_unpack_sf.o)
 .debug_aranges
                0x00000460       0x20 /usr/lib/gcc-lib/arm-elf/3.2/be/libgcc.a(_make_sf.o)
 .debug_aranges
                0x00000480       0x20 /usr/lib/gcc-lib/arm-elf/3.2/be/libgcc.a(_pack_df.o)
 .debug_aranges
                0x000004a0       0x20 /usr/lib/gcc-lib/arm-elf/3.2/be/libgcc.a(_unpack_df.o)
 .debug_aranges
                0x000004c0       0x20 /usr/lib/gcc-lib/arm-elf/3.2/be/libgcc.a(_lshrdi3.o)
 .debug_aranges
                0x000004e0       0x20 /usr/lib/gcc-lib/arm-elf/3.2/be/libgcc.a(_ashldi3.o)
 .debug_aranges
                0x00000500       0x20 ../../../../lib/32b/gnu/libc.a(atof.o)
 .debug_aranges
                0x00000520       0x20 ../../../../lib/32b/gnu/libc.a(atoi.o)
 .debug_aranges
                0x00000540       0x20 ../../../../lib/32b/gnu/libc.a(calloc.o)
 .debug_aranges
                0x00000560       0x20 ../../../../lib/32b/gnu/libc.a(callocr.o)
 .debug_aranges
                0x00000580       0x20 ../../../../lib/32b/gnu/libc.a(exit.o)
 .debug_aranges
                0x000005a0       0x20 ../../../../lib/32b/gnu/libc.a(fflush.o)
 .debug_aranges
                0x000005c0       0x20 ../../../../lib/32b/gnu/libc.a(findfp.o)
 .debug_aranges
                0x000005e0       0x20 ../../../../lib/32b/gnu/libc.a(fwalk.o)
 .debug_aranges
                0x00000600       0x20 ../../../../lib/32b/gnu/libc.a(isdigit.o)
 .debug_aranges
                0x00000620       0x20 ../../../../lib/32b/gnu/libc.a(isspace.o)
 .debug_aranges
                0x00000640       0x20 ../../../../lib/32b/gnu/libc.a(lcltime.o)
 .debug_aranges
                0x00000660       0x20 ../../../../lib/32b/gnu/libc.a(lcltime_r.o)
 .debug_aranges
                0x00000680       0x20 ../../../../lib/32b/gnu/libc.a(malloc.o)
 .debug_aranges
                0x000006a0       0x20 ../../../../lib/32b/gnu/libc.a(mallocr.o)
 .debug_aranges
                0x000006c0       0x20 ../../../../lib/32b/gnu/libc.a(memcmp.o)
 .debug_aranges
                0x000006e0       0x20 ../../../../lib/32b/gnu/libc.a(memcpy.o)
 .debug_aranges
                0x00000700       0x20 ../../../../lib/32b/gnu/libc.a(memset.o)
 .debug_aranges
                0x00000720       0x20 ../../../../lib/32b/gnu/libc.a(mktm_r.o)
 .debug_aranges
                0x00000740       0x20 ../../../../lib/32b/gnu/libc.a(mlock.o)
 .debug_aranges
                0x00000760       0x20 ../../../../lib/32b/gnu/libc.a(printf.o)
 .debug_aranges
                0x00000780       0x20 ../../../../lib/32b/gnu/libc.a(rget.o)
 .debug_aranges
                0x000007a0       0x20 ../../../../lib/32b/gnu/libc.a(sbrkr.o)
 .debug_aranges
                0x000007c0       0x20 ../../../../lib/32b/gnu/libc.a(snprintf.o)
 .debug_aranges
                0x000007e0       0x20 ../../../../lib/32b/gnu/libc.a(sprintf.o)
 .debug_aranges
                0x00000800       0x20 ../../../../lib/32b/gnu/libc.a(sscanf.o)
 .debug_aranges
                0x00000820       0x20 ../../../../lib/32b/gnu/libc.a(stdio.o)
 .debug_aranges
                0x00000840       0x20 ../../../../lib/32b/gnu/libc.a(strcat.o)
 .debug_aranges
                0x00000860       0x20 ../../../../lib/32b/gnu/libc.a(strchr.o)
 .debug_aranges
                0x00000880       0x20 ../../../../lib/32b/gnu/libc.a(strcmp.o)
 .debug_aranges
                0x000008a0       0x20 ../../../../lib/32b/gnu/libc.a(strcpy.o)
 .debug_aranges
                0x000008c0       0x20 ../../../../lib/32b/gnu/libc.a(strlen.o)
 .debug_aranges
                0x000008e0       0x20 ../../../../lib/32b/gnu/libc.a(strncmp.o)
 .debug_aranges
                0x00000900       0x20 ../../../../lib/32b/gnu/libc.a(strncpy.o)
 .debug_aranges
                0x00000920       0x20 ../../../../lib/32b/gnu/libc.a(strstr.o)
 .debug_aranges
                0x00000940       0x20 ../../../../lib/32b/gnu/libc.a(strtod.o)
 .debug_aranges
                0x00000960       0x20 ../../../../lib/32b/gnu/libc.a(strtok.o)
 .debug_aranges
                0x00000980       0x20 ../../../../lib/32b/gnu/libc.a(strtok_r.o)
 .debug_aranges
                0x000009a0       0x20 ../../../../lib/32b/gnu/libc.a(strtol.o)
 .debug_aranges
                0x000009c0       0x20 ../../../../lib/32b/gnu/libc.a(tzlock.o)
 .debug_aranges
                0x000009e0       0x20 ../../../../lib/32b/gnu/libc.a(tzset_r.o)
 .debug_aranges
                0x00000a00       0x20 ../../../../lib/32b/gnu/libc.a(vfprintf.o)
 .debug_aranges
                0x00000a20       0x20 ../../../../lib/32b/gnu/libc.a(vfscanf.o)
 .debug_aranges
                0x00000a40       0x20 ../../../../lib/32b/gnu/libc.a(writer.o)
 .debug_aranges
                0x00000a60       0x20 ../../../../lib/32b/gnu/libc.a(wsetup.o)
 .debug_aranges
                0x00000a80       0x20 ../../../../lib/32b/gnu/libc.a(syscalls.o)
 .debug_aranges
                0x00000aa0       0x20 ../../../../lib/32b/gnu/libc.a(closer.o)
 .debug_aranges
                0x00000ac0       0x20 ../../../../lib/32b/gnu/libc.a(dtoa.o)
 .debug_aranges
                0x00000ae0       0x20 ../../../../lib/32b/gnu/libc.a(errno.o)
 .debug_aranges
                0x00000b00       0x20 ../../../../lib/32b/gnu/libc.a(fread.o)
 .debug_aranges
                0x00000b20       0x20 ../../../../lib/32b/gnu/libc.a(freer.o)
 .debug_aranges
                0x00000b40       0x20 ../../../../lib/32b/gnu/libc.a(fvwrite.o)
 .debug_aranges
                0x00000b60       0x20 ../../../../lib/32b/gnu/libc.a(getenv_r.o)
 .debug_aranges
                0x00000b80       0x20 ../../../../lib/32b/gnu/libc.a(locale.o)
 .debug_aranges
                0x00000ba0       0x20 ../../../../lib/32b/gnu/libc.a(lseekr.o)
 .debug_aranges
                0x00000bc0       0x20 ../../../../lib/32b/gnu/libc.a(makebuf.o)
 .debug_aranges
                0x00000be0       0x20 ../../../../lib/32b/gnu/libc.a(mbtowc_r.o)
 .debug_aranges
                0x00000c00       0x20 ../../../../lib/32b/gnu/libc.a(memchr.o)
 .debug_aranges
                0x00000c20       0x20 ../../../../lib/32b/gnu/libc.a(memmove.o)
 .debug_aranges
                0x00000c40       0x20 ../../../../lib/32b/gnu/libc.a(mprec.o)
 .debug_aranges
                0x00000c60       0x20 ../../../../lib/32b/gnu/libc.a(readr.o)
 .debug_aranges
                0x00000c80       0x20 ../../../../lib/32b/gnu/libc.a(reallocr.o)
 .debug_aranges
                0x00000ca0       0x20 ../../../../lib/32b/gnu/libc.a(reent.o)
 .debug_aranges
                0x00000cc0       0x20 ../../../../lib/32b/gnu/libc.a(refill.o)
 .debug_aranges
                0x00000ce0       0x20 ../../../../lib/32b/gnu/libc.a(s_isinf.o)
 .debug_aranges
                0x00000d00       0x20 ../../../../lib/32b/gnu/libc.a(s_isnan.o)
 .debug_aranges
                0x00000d20       0x20 ../../../../lib/32b/gnu/libc.a(setenv.o)
 .debug_aranges
                0x00000d40       0x20 ../../../../lib/32b/gnu/libc.a(setenv_r.o)
 .debug_aranges
                0x00000d60       0x20 ../../../../lib/32b/gnu/libc.a(strtoul.o)
 .debug_aranges
                0x00000d80       0x20 ../../../../lib/32b/gnu/libc.a(sysopen.o)
 .debug_aranges
                0x00000da0       0x20 ../../../../lib/32b/gnu/libc.a(tzset.o)
 .debug_aranges
                0x00000dc0       0x20 ../../../../lib/32b/gnu/libc.a(ungetc.o)
 .debug_aranges
                0x00000de0       0x20 ../../../../lib/32b/gnu/libc.a(bcopy.o)
 .debug_aranges
                0x00000e00       0x20 ../../../../lib/32b/gnu/libc.a(envlock.o)
 .debug_aranges
                0x00000e20       0x20 ../../../../lib/32b/gnu/libc.a(fstatr.o)
 .debug_aranges
                0x00000e40       0x20 /usr/lib/gcc-lib/arm-elf/3.2/be/libgcc.a(_udivdi3.o)
 .debug_aranges
                0x00000e60       0x20 /usr/lib/gcc-lib/arm-elf/3.2/be/libgcc.a(_umoddi3.o)
 .debug_aranges
                0x00000e80       0x20 /usr/lib/gcc-lib/arm-elf/3.2/be/libgcc.a(_addsub_df.o)
 .debug_aranges
                0x00000ea0       0x20 /usr/lib/gcc-lib/arm-elf/3.2/be/libgcc.a(_mul_df.o)
 .debug_aranges
                0x00000ec0       0x20 /usr/lib/gcc-lib/arm-elf/3.2/be/libgcc.a(_eq_df.o)
 .debug_aranges
                0x00000ee0       0x20 /usr/lib/gcc-lib/arm-elf/3.2/be/libgcc.a(_ne_df.o)
 .debug_aranges
                0x00000f00       0x20 /usr/lib/gcc-lib/arm-elf/3.2/be/libgcc.a(_gt_df.o)
 .debug_aranges
                0x00000f20       0x20 /usr/lib/gcc-lib/arm-elf/3.2/be/libgcc.a(_ge_df.o)
 .debug_aranges
                0x00000f40       0x20 /usr/lib/gcc-lib/arm-elf/3.2/be/libgcc.a(_lt_df.o)
 .debug_aranges
                0x00000f60       0x20 /usr/lib/gcc-lib/arm-elf/3.2/be/libgcc.a(_le_df.o)
 .debug_aranges
                0x00000f80       0x20 /usr/lib/gcc-lib/arm-elf/3.2/be/libgcc.a(_si_to_df.o)
 .debug_aranges
                0x00000fa0       0x20 /usr/lib/gcc-lib/arm-elf/3.2/be/libgcc.a(_df_to_si.o)
 .debug_aranges
                0x00000fc0       0x20 /usr/lib/gcc-lib/arm-elf/3.2/be/libgcc.a(_negate_df.o)
 .debug_aranges
                0x00000fe0       0x20 /usr/lib/gcc-lib/arm-elf/3.2/be/libgcc.a(_fpcmp_parts_df.o)
 .debug_aranges
                0x00001000       0x20 ../../../../lib/32b/libbsp.a(bsp_api.o)
 .debug_aranges
                0x00001020       0x20 ../../../../lib/32b/libbsp.a(nainet.o)
 .debug_aranges
                0x00001040       0x20 ../../../../lib/32b/libbsp.a(main.o)
 .debug_aranges
                0x00001060       0x20 ../../../../lib/32b/libbsp.a(errhndlr.o)
 .debug_aranges
                0x00001080       0x20 ../../../../lib/32b/libbsp.a(narmbrd.o)
 .debug_aranges
                0x000010a0       0x20 ../../../../lib/32b/libbsp.a(narmled.o)
 .debug_aranges
                0x000010c0       0x20 ../../../../lib/32b/libbsp.a(devices.o)
 .debug_aranges
                0x000010e0       0x20 ../../../../lib/32b/libbsp.a(flashnvrm.o)
 .debug_aranges
                0x00001100       0x20 ../../../../lib/32b/libbsp.a(sysAccess.o)
 .debug_aranges
                0x00001120       0x20 ../../../../lib/32b/libbsp.a(lpbkdev.o)
 .debug_aranges
                0x00001140       0x20 ../../../../lib/32b/libbsp.a(nuldev.o)
 .debug_aranges
                0x00001160       0x20 ../../../../lib/32b/libbsp.a(nacache.o)
 .debug_aranges
                0x00001180       0x20 ../../../../lib/32b/libbsp.a(NCC_INIT.o)
 .debug_aranges
                0x000011a0       0x20 ../../../../lib/32b/libbsp.a(NCC_POST.o)
 .debug_aranges
                0x000011c0       0x20 ../../../../lib/32b/libbsp.a(IRQREG.o)
 .debug_aranges
                0x000011e0       0x20 ../../../../lib/32b/libbsp.a(gpio.o)
 .debug_aranges
                0x00001200       0x20 ../../../../lib/32b/libbsp.a(cs.o)
 .debug_aranges
                0x00001220       0x20 ../../../../lib/32b/libbsp.a(boardParams.o)
 .debug_aranges
                0x00001240       0x20 ../../../../lib/32b/libbsp.a(nawait.o)
 .debug_aranges
                0x00001260       0x20 ../../../../lib/32b/libbsp.a(nareset.o)
 .debug_aranges
                0x00001280       0x20 ../../../../lib/32b/libbsp.a(startfilesystem.o)
 .debug_aranges
                0x000012a0       0x20 ../../../../lib/32b/libbsp.a(fbanks.o)
 .debug_aranges
                0x000012c0       0x20 ../../../../lib/32b/libbsp.a(rtc.o)
 .debug_aranges
                0x000012e0       0x20 ../../../../lib/32b/libbsp.a(termios.o)
 .debug_aranges
                0x00001300       0x20 ../../../../lib/32b/libbsp.a(netos_serl.o)
 .debug_aranges
                0x00001320       0x20 ../../../../lib/32b/libbsp.a(NA_ISR.o)
 .debug_aranges
                0x00001340       0x20 ../../../../lib/32b/libbsp.a(crc32h.o)
 .debug_aranges
                0x00001360       0x20 ../../../../lib/32b/libbsp.a(udpdb.o)
 .debug_aranges
                0x00001380       0x20 ../../../../lib/32b/libbsp.a(bsp.o)
 .debug_aranges
                0x000013a0       0x20 ../../../../lib/32b/libbsp.a(bsproot.o)
 .debug_aranges
                0x000013c0       0x20 ../../../../lib/32b/libbsp.a(starttcp.o)
 .debug_aranges
                0x000013e0       0x20 ../../../../lib/32b/libbsp.a(bsptimer.o)
 .debug_aranges
                0x00001400       0x20 ../../../../lib/32b/libbsp.a(sysClock.o)
 .debug_aranges
                0x00001420       0x20 ../../../../lib/32b/libbsp.a(hdlcdvr.o)
 .debug_aranges
                0x00001440       0x20 ../../../../lib/32b/libbsp.a(aceParams.o)
 .debug_aranges
                0x00001460       0x20 ../../../../lib/32b/libbsp.a(aceCallbacks.o)
 .debug_aranges
                0x00001480       0x20 ../../../../lib/32b/libbsp.a(naip_global.o)
 .debug_aranges
                0x000014a0       0x20 ../../../../lib/32b/libbsp.a(naifconfig.o)
 .debug_aranges
                0x000014c0       0x20 ../../../../lib/32b/libbsp.a(dialog.o)
 .debug_aranges
                0x000014e0       0x20 ../../../../lib/32b/libbsp.a(flashutil.o)
 .debug_aranges
                0x00001500       0x20 ../../../../lib/32b/libbsp.a(event_handler.o)
 .debug_aranges
                0x00001520       0x20 ../../../../lib/32b/libbsp.a(hdlcmem.o)
 .debug_aranges
                0x00001540       0x20 ../../../../lib/32b/libflash.a(naflash.o)
 .debug_aranges
                0x00001560       0x20 ../../../../lib/32b/libflash.a(naflsem.o)
 .debug_aranges
                0x00001580       0x20 ../../../../lib/32b/libposix.a(posix_semaphore.o)
 .debug_aranges
                0x000015a0       0x20 ../../../../lib/32b/libposix.a(posix_thread.o)
 .debug_aranges
                0x000015c0       0x20 ../../../../lib/32b/libtx.a(tx_ike.o)
 .debug_aranges
                0x000015e0       0x20 ../../../../lib/32b/libtx.a(tx_timi.o)
 .debug_aranges
                0x00001600       0x20 ../../../../lib/32b/libtx.a(tx_ti.o)
 .debug_aranges
                0x00001620       0x20 ../../../../lib/32b/libtx.a(tx_tc.o)
 .debug_aranges
                0x00001640       0x20 ../../../../lib/32b/libtx.a(tx_tr.o)
 .debug_aranges
                0x00001660       0x20 ../../../../lib/32b/libtx.a(tx_tte.o)
 .debug_aranges
                0x00001680       0x20 ../../../../lib/32b/libtx.a(tx_ta.o)
 .debug_aranges
                0x000016a0       0x20 ../../../../lib/32b/libtx.a(tx_tto.o)
 .debug_aranges
                0x000016c0       0x20 ../../../../lib/32b/libtx.a(tx_tsle.o)
 .debug_aranges
                0x000016e0       0x20 ../../../../lib/32b/libtx.a(tx_tide.o)
 .debug_aranges
                0x00001700       0x20 ../../../../lib/32b/libtx.a(tx_gnu.o)
 .debug_aranges
                0x00001720       0x20 ../../../../lib/32b/libtx.a(txe_efc.o)
 .debug_aranges
                0x00001740       0x20 ../../../../lib/32b/libtx.a(txe_efg.o)
 .debug_aranges
                0x00001760       0x20 ../../../../lib/32b/libtx.a(txe_qc.o)
 .debug_aranges
                0x00001780       0x20 ../../../../lib/32b/libtx.a(txe_qr.o)
 .debug_aranges
                0x000017a0       0x20 ../../../../lib/32b/libtx.a(txe_qs.o)
 .debug_aranges
                0x000017c0       0x20 ../../../../lib/32b/libtx.a(txe_sc.o)
 .debug_aranges
                0x000017e0       0x20 ../../../../lib/32b/libtx.a(txe_sd.o)
 .debug_aranges
                0x00001800       0x20 ../../../../lib/32b/libtx.a(txe_sg.o)
 .debug_aranges
                0x00001820       0x20 ../../../../lib/32b/libtx.a(txe_sp.o)
 .debug_aranges
                0x00001840       0x20 ../../../../lib/32b/libtx.a(txe_tc.o)
 .debug_aranges
                0x00001860       0x20 ../../../../lib/32b/libtx.a(txe_tdel.o)
 .debug_aranges
                0x00001880       0x20 ../../../../lib/32b/libtx.a(txe_trpc.o)
 .debug_aranges
                0x000018a0       0x20 ../../../../lib/32b/libtx.a(txe_tra.o)
 .debug_aranges
                0x000018c0       0x20 ../../../../lib/32b/libtx.a(txe_tsa.o)
 .debug_aranges
                0x000018e0       0x20 ../../../../lib/32b/libtx.a(txe_tt.o)
 .debug_aranges
                0x00001900       0x20 ../../../../lib/32b/libtx.a(txe_taa.o)
 .debug_aranges
                0x00001920       0x20 ../../../../lib/32b/libtx.a(txe_tmch.o)
 .debug_aranges
                0x00001940       0x20 ../../../../lib/32b/libtx.a(txe_tmcr.o)
 .debug_aranges
                0x00001960       0x20 ../../../../lib/32b/libtx.a(txe_tda.o)
 .debug_aranges
                0x00001980       0x20 ../../../../lib/32b/libtx.a(txe_timd.o)
 .debug_aranges
                0x000019a0       0x20 ../../../../lib/32b/libtx.a(TX_MC.o)
 .debug_aranges
                0x000019c0       0x20 ../../../../lib/32b/libtx.a(TX_MG.o)
 .debug_aranges
                0x000019e0       0x20 ../../../../lib/32b/libtx.a(TX_MP.o)
 .debug_aranges
                0x00001a00       0x20 ../../../../lib/32b/libtx.a(TX_MPRI.o)
 .debug_aranges
                0x00001a20       0x20 ../../../../lib/32b/libtx.a(TX_MPC.o)
 .debug_aranges
                0x00001a40       0x20 ../../../../lib/32b/libtx.a(TX_MCLE.o)
 .debug_aranges
                0x00001a60       0x20 ../../../../lib/32b/libtx.a(TXE_MC.o)
 .debug_aranges
                0x00001a80       0x20 ../../../../lib/32b/libtx.a(TXE_MG.o)
 .debug_aranges
                0x00001aa0       0x20 ../../../../lib/32b/libtx.a(TXE_MP.o)
 .debug_aranges
                0x00001ac0       0x20 ../../../../lib/32b/libtx.a(tx_ihl.o)
 .debug_aranges
                0x00001ae0       0x20 ../../../../lib/32b/libtx.a(tx_tse.o)
 .debug_aranges
                0x00001b00       0x20 ../../../../lib/32b/libtx.a(tx_tsus.o)
 .debug_aranges
                0x00001b20       0x20 ../../../../lib/32b/libtx.a(tx_tsa.o)
 .debug_aranges
                0x00001b40       0x20 ../../../../lib/32b/libtx.a(tx_tra.o)
 .debug_aranges
                0x00001b60       0x20 ../../../../lib/32b/libtx.a(tx_tts.o)
 .debug_aranges
                0x00001b80       0x20 ../../../../lib/32b/libtx.a(tx_tdel.o)
 .debug_aranges
                0x00001ba0       0x20 ../../../../lib/32b/libtx.a(tx_tprch.o)
 .debug_aranges
                0x00001bc0       0x20 ../../../../lib/32b/libtx.a(tx_tt.o)
 .debug_aranges
                0x00001be0       0x20 ../../../../lib/32b/libtx.a(tx_td.o)
 .debug_aranges
                0x00001c00       0x20 ../../../../lib/32b/libtx.a(tx_timcr.o)
 .debug_aranges
                0x00001c20       0x20 ../../../../lib/32b/libtx.a(tx_taa.o)
 .debug_aranges
                0x00001c40       0x20 ../../../../lib/32b/libtx.a(tx_tda.o)
 .debug_aranges
                0x00001c60       0x20 ../../../../lib/32b/libtx.a(tx_timch.o)
 .debug_aranges
                0x00001c80       0x20 ../../../../lib/32b/libtx.a(tx_timd.o)
 .debug_aranges
                0x00001ca0       0x20 ../../../../lib/32b/libtx.a(tx_sc.o)
 .debug_aranges
                0x00001cc0       0x20 ../../../../lib/32b/libtx.a(tx_sd.o)
 .debug_aranges
                0x00001ce0       0x20 ../../../../lib/32b/libtx.a(tx_sg.o)
 .debug_aranges
                0x00001d00       0x20 ../../../../lib/32b/libtx.a(tx_sp.o)
 .debug_aranges
                0x00001d20       0x20 ../../../../lib/32b/libtx.a(tx_scle.o)
 .debug_aranges
                0x00001d40       0x20 ../../../../lib/32b/libtx.a(tx_qc.o)
 .debug_aranges
                0x00001d60       0x20 ../../../../lib/32b/libtx.a(tx_qs.o)
 .debug_aranges
                0x00001d80       0x20 ../../../../lib/32b/libtx.a(tx_qr.o)
 .debug_aranges
                0x00001da0       0x20 ../../../../lib/32b/libtx.a(tx_qcle.o)
 .debug_aranges
                0x00001dc0       0x20 ../../../../lib/32b/libtx.a(tx_efc.o)
 .debug_aranges
                0x00001de0       0x20 ../../../../lib/32b/libtx.a(tx_efg.o)
 .debug_aranges
                0x00001e00       0x20 ../../../../lib/32b/libtx.a(tx_efcle.o)
 .debug_aranges
                0x00001e20       0x20 ../../../../lib/32b/libmanapi.a(man_env.o)
 .debug_aranges
                0x00001e40       0x20 ../../../../lib/32b/libmanapi.a(man_init.o)
 .debug_aranges
                0x00001e60       0x20 ../../../../lib/32b/libmanapi.a(hash.o)
 .debug_aranges
                0x00001e80       0x20 ../../../../lib/32b/libmanapi.a(man_row.o)
 .debug_aranges
                0x00001ea0       0x20 ../../../../lib/32b/libmanapi.a(man_main.o)
 .debug_aranges
                0x00001ec0       0x20 ../../../../lib/32b/libftpsvr.a(ftposp.o)
 .debug_aranges
                0x00001ee0       0x20 ../../../../lib/32b/libftpsvr.a(ftpsvr.o)
 .debug_aranges
                0x00001f00       0x20 ../../../../lib/32b/libtelnsvr.a(ts_mod.o)
 .debug_aranges
                0x00001f20       0x20 ../../../../lib/32b/libtelnsvr.a(telnetd2.o)
 .debug_aranges
                0x00001f40       0x20 ../../../../lib/32b/libtelnsvr.a(fsminit.o)
 .debug_aranges
                0x00001f60       0x20 ../../../../lib/32b/libtelnsvr.a(ttgetc.o)
 .debug_aranges
                0x00001f80       0x20 ../../../../lib/32b/libtelnsvr.a(will_not.o)
 .debug_aranges
                0x00001fa0       0x20 ../../../../lib/32b/libtelnsvr.a(do_echo.o)
 .debug_aranges
                0x00001fc0       0x20 ../../../../lib/32b/libtelnsvr.a(do_noga.o)
 .debug_aranges
                0x00001fe0       0x20 ../../../../lib/32b/libtelnsvr.a(do_notsu.o)
 .debug_aranges
                0x00002000       0x20 ../../../../lib/32b/libtelnsvr.a(do_txbin.o)
 .debug_aranges
                0x00002020       0x20 ../../../../lib/32b/libtelnsvr.a(tcga.o)
 .debug_aranges
                0x00002040       0x20 ../../../../lib/32b/libtelnsvr.a(recopt.o)
 .debug_aranges
                0x00002060       0x20 ../../../../lib/32b/libdnsclnt.a(dnsc_api.o)
 .debug_aranges
                0x00002080       0x20 ../../../../lib/32b/libfastip.a(fast_ip.o)
 .debug_aranges
                0x000020a0       0x20 ../../../../lib/32b/libtcpip.a(ace.o)
 .debug_aranges
                0x000020c0       0x20 ../../../../lib/32b/libtcpip.a(ace_os.o)
 .debug_aranges
                0x000020e0       0x20 ../../../../lib/32b/libtcpip.a(ace_dhcp.o)
 .debug_aranges
                0x00002100       0x20 ../../../../lib/32b/libtcpip.a(ace_bootp.o)
 .debug_aranges
                0x00002120       0x20 ../../../../lib/32b/libtcpip.a(ace_autoip.o)
 .debug_aranges
                0x00002140       0x20 ../../../../lib/32b/libtcpip.a(ace_static.o)
 .debug_aranges
                0x00002160       0x20 ../../../../lib/32b/libtcpip.a(ace_rarp.o)
 .debug_aranges
                0x00002180       0x20 ../../../../lib/32b/libtcpip.a(ace_pingarp.o)
 .debug_aranges
                0x000021a0       0x20 ../../../../lib/32b/libtcpip.a(fnsrr.o)
 .debug_aranges
                0x000021c0       0x20 ../../../../lib/32b/libtcpip.a(heap.o)
 .debug_aranges
                0x000021e0       0x20 ../../../../lib/32b/libtcpip.a(icmp.o)
 .debug_aranges
                0x00002200       0x20 ../../../../lib/32b/libtcpip.a(ipclassm.o)
 .debug_aranges
                0x00002220       0x20 ../../../../lib/32b/libtcpip.a(ipcomm.o)
 .debug_aranges
                0x00002240       0x20 ../../../../lib/32b/libtcpip.a(ipfrag.o)
 .debug_aranges
                0x00002260       0x20 ../../../../lib/32b/libtcpip.a(ipmisc.o)
 .debug_aranges
                0x00002280       0x20 ../../../../lib/32b/libtcpip.a(ipnetd.o)
 .debug_aranges
                0x000022a0       0x20 ../../../../lib/32b/libtcpip.a(ipopt.o)
 .debug_aranges
                0x000022c0       0x20 ../../../../lib/32b/libtcpip.a(ipxmit.o)
 .debug_aranges
                0x000022e0       0x20 ../../../../lib/32b/libtcpip.a(lkheap.o)
 .debug_aranges
                0x00002300       0x20 ../../../../lib/32b/libtcpip.a(llconfig.o)
 .debug_aranges
                0x00002320       0x20 ../../../../lib/32b/libtcpip.a(m.o)
 .debug_aranges
                0x00002340       0x20 ../../../../lib/32b/libtcpip.a(md.o)
 .debug_aranges
                0x00002360       0x20 ../../../../lib/32b/libtcpip.a(md5.o)
 .debug_aranges
                0x00002380       0x20 ../../../../lib/32b/libtcpip.a(msm.o)
 .debug_aranges
                0x000023a0       0x20 ../../../../lib/32b/libtcpip.a(ncaf.o)
 .debug_aranges
                0x000023c0       0x20 ../../../../lib/32b/libtcpip.a(naadddev.o)
 .debug_aranges
                0x000023e0       0x20 ../../../../lib/32b/libtcpip.a(ncdev.o)
 .debug_aranges
                0x00002400       0x20 ../../../../lib/32b/libtcpip.a(ncdid.o)
 .debug_aranges
                0x00002420       0x20 ../../../../lib/32b/libtcpip.a(ncmisc.o)
 .debug_aranges
                0x00002440       0x20 ../../../../lib/32b/libtcpip.a(ncpr.o)
 .debug_aranges
                0x00002460       0x20 ../../../../lib/32b/libtcpip.a(q.o)
 .debug_aranges
                0x00002480       0x20 ../../../../lib/32b/libtcpip.a(secure.o)
 .debug_aranges
                0x000024a0       0x20 ../../../../lib/32b/libtcpip.a(select.o)
 .debug_aranges
                0x000024c0       0x20 ../../../../lib/32b/libtcpip.a(sock.o)
 .debug_aranges
                0x000024e0       0x20 ../../../../lib/32b/libtcpip.a(sop.o)
 .debug_aranges
                0x00002500       0x20 ../../../../lib/32b/libtcpip.a(timer.o)
 .debug_aranges
                0x00002520       0x20 ../../../../lib/32b/libtcpip.a(twq.o)
 .debug_aranges
                0x00002540       0x20 ../../../../lib/32b/libtcpip.a(udpnetd.o)
 .debug_aranges
                0x00002560       0x20 ../../../../lib/32b/libtcpip.a(udpopt.o)
 .debug_aranges
                0x00002580       0x20 ../../../../lib/32b/libtcpip.a(udpsock.o)
 .debug_aranges
                0x000025a0       0x20 ../../../../lib/32b/libtcpip.a(tcpxmit.o)
 .debug_aranges
                0x000025c0       0x20 ../../../../lib/32b/libtcpip.a(tcpnetd.o)
 .debug_aranges
                0x000025e0       0x20 ../../../../lib/32b/libtcpip.a(tcpsend.o)
 .debug_aranges
                0x00002600       0x20 ../../../../lib/32b/libtcpip.a(tcpsock.o)
 .debug_aranges
                0x00002620       0x20 ../../../../lib/32b/libtcpip.a(tcpmisc.o)
 .debug_aranges
                0x00002640       0x20 ../../../../lib/32b/libtcpip.a(tcptrans.o)
 .debug_aranges
                0x00002660       0x20 ../../../../lib/32b/libtcpip.a(tcpimpco.o)
 .debug_aranges
                0x00002680       0x20 ../../../../lib/32b/libtcpip.a(igmp.o)
 .debug_aranges
                0x000026a0       0x20 ../../../../lib/32b/libtcpip.a(socketopt.o)
 .debug_aranges
                0x000026c0       0x20 ../../../../lib/32b/libtcpip.a(sockapi.o)
 .debug_aranges
                0x000026e0       0x20 ../../../../lib/32b/libtcpip.a(autoip.o)
 .debug_aranges
                0x00002700       0x20 ../../../../lib/32b/libtcpip.a(rricirc.o)
 .debug_aranges
                0x00002720       0x20 ../../../../lib/32b/libtcpip.a(rripfdb.o)
 .debug_aranges
                0x00002740       0x20 ../../../../lib/32b/libtcpip.a(rripfwd.o)
 .debug_aranges
                0x00002760       0x20 ../../../../lib/32b/libtcpip.a(rrrcirc.o)
 .debug_aranges
                0x00002780       0x20 ../../../../lib/32b/libtcpip.a(rrtask.o)
 .debug_aranges
                0x000027a0       0x20 ../../../../lib/32b/libtcpip.a(res_init.o)
 .debug_aranges
                0x000027c0       0x20 ../../../../lib/32b/libtcpip.a(gethnama.o)
 .debug_aranges
                0x000027e0       0x20 ../../../../lib/32b/libtcpip.a(dnscache.o)
 .debug_aranges
                0x00002800       0x20 ../../../../lib/32b/libtcpip.a(pppdev.o)
 .debug_aranges
                0x00002820       0x20 ../../../../lib/32b/libtcpip.a(pppfsm.o)
 .debug_aranges
                0x00002840       0x20 ../../../../lib/32b/libtcpip.a(pppipcp.o)
 .debug_aranges
                0x00002860       0x20 ../../../../lib/32b/libtcpip.a(ppplcp.o)
 .debug_aranges
                0x00002880       0x20 ../../../../lib/32b/libtcpip.a(ppppap.o)
 .debug_aranges
                0x000028a0       0x20 ../../../../lib/32b/libtcpip.a(pppsend.o)
 .debug_aranges
                0x000028c0       0x20 ../../../../lib/32b/libtcpip.a(pppsess.o)
 .debug_aranges
                0x000028e0       0x20 ../../../../lib/32b/libtcpip.a(ppputil.o)
 .debug_aranges
                0x00002900       0x20 ../../../../lib/32b/libtcpip.a(pppauth.o)
 .debug_aranges
                0x00002920       0x20 ../../../../lib/32b/libtcpip.a(pppuapi.o)
 .debug_aranges
                0x00002940       0x20 ../../../../lib/32b/libtcpip.a(dhcpapi.o)
 .debug_aranges
                0x00002960       0x20 ../../../../lib/32b/libtcpip.a(dhcparp.o)
 .debug_aranges
                0x00002980       0x20 ../../../../lib/32b/libtcpip.a(options.o)
 .debug_aranges
                0x000029a0       0x20 ../../../../lib/32b/libtcpip.a(client.o)
 .debug_aranges
                0x000029c0       0x20 ../../../../lib/32b/libtcpip.a(pppapi.o)
 .debug_aranges
                0x000029e0       0x20 ../../../../lib/32b/libtcpip.a(modem.o)
 .debug_aranges
                0x00002a00       0x20 ../../../../lib/32b/libtcpip.a(uart_bpool.o)
 .debug_aranges
                0x00002a20       0x20 ../../../../lib/32b/libtcpip.a(osdep.o)
 .debug_aranges
                0x00002a40       0x20 ../../../../lib/32b/libtcpip.a(bdoptlib.o)
 .debug_aranges
                0x00002a60       0x20 ../../../../lib/32b/libtcpip.a(bootpapi.o)
 .debug_aranges
                0x00002a80       0x20 ../../../../lib/32b/libtcpip.a(udpxmit.o)
 .debug_aranges
                0x00002aa0       0x20 ../../../../lib/32b/libtcpip.a(arp.o)
 .debug_aranges
                0x00002ac0       0x20 ../../../../lib/32b/libtcpip.a(bind.o)
 .debug_aranges
                0x00002ae0       0x20 ../../../../lib/32b/libtcpip.a(connect.o)
 .debug_aranges
                0x00002b00       0x20 ../../../../lib/32b/libtcpip.a(enet.o)
 .debug_aranges
                0x00002b20       0x20 ../../../../lib/32b/libtcpip.a(frk.o)
 .debug_aranges
                0x00002b40       0x20 ../../../../lib/32b/libtcpip.a(frklk.o)
 .debug_aranges
                0x00002b60       0x20 ../../../../lib/32b/libtcpip.a(fselect.o)
 .debug_aranges
                0x00002b80       0x20 ../../../../lib/32b/libtcpip.a(getpeern.o)
 .debug_aranges
                0x00002ba0       0x20 ../../../../lib/32b/libtcpip.a(getsockn.o)
 .debug_aranges
                0x00002bc0       0x20 ../../../../lib/32b/libtcpip.a(inet_add.o)
 .debug_aranges
                0x00002be0       0x20 ../../../../lib/32b/libtcpip.a(ip.o)
 .debug_aranges
                0x00002c00       0x20 ../../../../lib/32b/libtcpip.a(lbdev.o)
 .debug_aranges
                0x00002c20       0x20 ../../../../lib/32b/libtcpip.a(link.o)
 .debug_aranges
                0x00002c40       0x20 ../../../../lib/32b/libtcpip.a(listen.o)
 .debug_aranges
                0x00002c60       0x20 ../../../../lib/32b/libtcpip.a(node.o)
 .debug_aranges
                0x00002c80       0x20 ../../../../lib/32b/libtcpip.a(nselect.o)
 .debug_aranges
                0x00002ca0       0x20 ../../../../lib/32b/libtcpip.a(pioctl.o)
 .debug_aranges
                0x00002cc0       0x20 ../../../../lib/32b/libtcpip.a(recv.o)
 .debug_aranges
                0x00002ce0       0x20 ../../../../lib/32b/libtcpip.a(recvfrom.o)
 .debug_aranges
                0x00002d00       0x20 ../../../../lib/32b/libtcpip.a(send.o)
 .debug_aranges
                0x00002d20       0x20 ../../../../lib/32b/libtcpip.a(sendto.o)
 .debug_aranges
                0x00002d40       0x20 ../../../../lib/32b/libtcpip.a(shutdown.o)
 .debug_aranges
                0x00002d60       0x20 ../../../../lib/32b/libtcpip.a(sob.o)
 .debug_aranges
                0x00002d80       0x20 ../../../../lib/32b/libtcpip.a(socket.o)
 .debug_aranges
                0x00002da0       0x20 ../../../../lib/32b/libtcpip.a(accept.o)
 .debug_aranges
                0x00002dc0       0x20 ../../../../lib/32b/libtcpip.a(tcpperf.o)
 .debug_aranges
                0x00002de0       0x20 ../../../../lib/32b/libtcpip.a(ndq.o)
 .debug_aranges
                0x00002e00       0x20 ../../../../lib/32b/libtcpip.a(strcmpi.o)
 .debug_aranges
                0x00002e20       0x20 ../../../../lib/32b/libtcpip.a(inet_pto.o)
 .debug_aranges
                0x00002e40       0x20 ../../../../lib/32b/libtcpip.a(res_comp.o)
 .debug_aranges
                0x00002e60       0x20 ../../../../lib/32b/libtcpip.a(res_quer.o)
 .debug_aranges
                0x00002e80       0x20 ../../../../lib/32b/libtcpip.a(res_send.o)
 .debug_aranges
                0x00002ea0       0x20 ../../../../lib/32b/libtcpip.a(vjcomp.o)
 .debug_aranges
                0x00002ec0       0x20 ../../../../lib/32b/libtcpip.a(pppbs.o)
 .debug_aranges
                0x00002ee0       0x20 ../../../../lib/32b/libtcpip.a(pppchap.o)
 .debug_aranges
                0x00002f00       0x20 ../../../../lib/32b/libtcpip.a(ppprecv.o)
 .debug_aranges
                0x00002f20       0x20 ../../../../lib/32b/libtcpip.a(ppp.o)
 .debug_aranges
                0x00002f40       0x20 ../../../../lib/32b/libtcpip.a(socketif.o)
 .debug_aranges
                0x00002f60       0x20 ../../../../lib/32b/libtcpip.a(if.o)
 .debug_aranges
                0x00002f80       0x20 ../../../../lib/32b/libtcpip.a(uart.o)
 .debug_aranges
                0x00002fa0       0x20 ../../../../lib/32b/libtcpip.a(nullmdm.o)
 .debug_aranges
                0x00002fc0       0x20 ../../../../lib/32b/libtcpip.a(bootp.o)
 .debug_aranges
                0x00002fe0       0x20 ../../../../lib/32b/libtcpip.a(res_mkqu.o)
 .debug_aranges
                0x00003000       0x20 ../../../../lib/32b/gnu/libc.a(assert.o)
 .debug_aranges
                0x00003020       0x20 ../../../../lib/32b/gnu/libc.a(bzero.o)
 .debug_aranges
                0x00003040       0x20 ../../../../lib/32b/gnu/libc.a(div.o)
 .debug_aranges
                0x00003060       0x20 ../../../../lib/32b/gnu/libc.a(fiprintf.o)
 .debug_aranges
                0x00003080       0x20 ../../../../lib/32b/gnu/libc.a(libcfunc.o)
 .debug_aranges
                0x000030a0       0x20 ../../../../lib/32b/gnu/libc.a(puts.o)
 .debug_aranges
                0x000030c0       0x20 ../../../../lib/32b/gnu/libc.a(sysclose.o)
 .debug_aranges
                0x000030e0       0x20 ../../../../lib/32b/gnu/libc.a(sysread.o)
 .debug_aranges
                0x00003100       0x20 ../../../../lib/32b/gnu/libc.a(syswrite.o)
 .debug_aranges
                0x00003120       0x20 ../../../../lib/32b/gnu/libc.a(vfiprintf.o)
 .debug_aranges
                0x00003140       0x20 ../../../../lib/32b/gnu/libc.a(wbuf.o)
 .debug_aranges
                0x00003160       0x20 ../../../../lib/32b/librphttpd.a(RpForm.o)
 .debug_aranges
                0x00003180       0x20 ../../../../lib/32b/librphttpd.a(RpHtml.o)
 .debug_aranges
                0x000031a0       0x20 ../../../../lib/32b/librphttpd.a(RpQuery.o)
 .debug_aranges
                0x000031c0       0x20 ../../../../lib/32b/librphttpd.a(hserv.o)
 .debug_aranges
                0x000031e0       0x20 ../../../../lib/32b/librphttpd.a(RpHttp.o)
 .debug_aranges
                0x00003200       0x20 ../../../../lib/32b/librphttpd.a(RpFrmItm.o)
 .debug_aranges
                0x00003220       0x20 ../../../../lib/32b/librphttpd.a(RmSmtp.o)
 .debug_aranges
                0x00003240       0x20 ../../../../lib/32b/librphttpd.a(AsCommon.o)
 .debug_aranges
                0x00003260       0x20 ../../../../lib/32b/librphttpd.a(AsDate.o)
 .debug_aranges
                0x00003280       0x20 ../../../../lib/32b/librphttpd.a(AsMain.o)
 .debug_aranges
                0x000032a0       0x20 ../../../../lib/32b/librphttpd.a(AsMimes.o)
 .debug_aranges
                0x000032c0       0x20 ../../../../lib/32b/librphttpd.a(AsParse.o)
 .debug_aranges
                0x000032e0       0x20 ../../../../lib/32b/librphttpd.a(AsBase64.o)
 .debug_aranges
                0x00003300       0x20 ../../../../lib/32b/librphttpd.a(AsConvrt.o)
 .debug_aranges
                0x00003320       0x20 ../../../../lib/32b/librphttpd.a(AsVarAcc.o)
 .debug_aranges
                0x00003340       0x20 ../../../../lib/32b/librphttpd.a(AsCustom.o)
 .debug_aranges
                0x00003360       0x20 ../../../../lib/32b/librphttpd.a(Sfil.o)
 .debug_aranges
                0x00003380       0x20 ../../../../lib/32b/librphttpd.a(STCP.o)
 .debug_aranges
                0x000033a0       0x20 ../../../../lib/32b/librphttpd.a(RpAccess.o)
 .debug_aranges
                0x000033c0       0x20 ../../../../lib/32b/librphttpd.a(RpData.o)
 .debug_aranges
                0x000033e0       0x20 ../../../../lib/32b/librphttpd.a(RpHttpDy.o)
 .debug_aranges
                0x00003400       0x20 ../../../../lib/32b/librphttpd.a(RpUser.o)
 .debug_aranges
                0x00003420       0x20 ../../../../lib/32b/librphttpd.a(mcfil.o)
 .debug_aranges
                0x00003440       0x20 ../../../../lib/32b/librphttpd.a(RpHttpRq.o)
 .debug_aranges
                0x00003460       0x20 ../../../../lib/32b/librphttpd.a(RpHttpPs.o)
 .debug_aranges
                0x00003480       0x20 ../../../../lib/32b/librphttpd.a(RpFile.o)
 .debug_aranges
                0x000034a0       0x20 ../../../../lib/32b/librphttpd.a(RmMailer.o)
 .debug_aranges
                0x000034c0       0x20 ../../../../lib/32b/librphttpd.a(PrPop3.o)
 .debug_aranges
                0x000034e0       0x20 ../../../../lib/32b/librphttpd.a(maw_main.o)
 .debug_aranges
                0x00003500       0x20 ../../../../lib/32b/librphttpd.a(AsMD5.o)
 .debug_aranges
                0x00003520       0x20 ../../../../lib/32b/librphttpd.a(Spwd.o)
 .debug_aranges
                0x00003540       0x20 ../../../../lib/32b/librphttpd.a(RpCallBk.o)
 .debug_aranges
                0x00003560       0x20 ../../../../lib/32b/librphttpd.a(RpMulti.o)
 .debug_aranges
                0x00003580       0x20 ../../../../lib/32b/librphttpd.a(RpUrl.o)
 .debug_aranges
                0x000035a0       0x20 ../../../../lib/32b/librphttpd.a(PrRomPop.o)
 .debug_aranges
                0x000035c0       0x20 ../../../../lib/32b/libmanMib.a(MibMan.o)
 .debug_aranges
                0x000035e0       0x20 ../../../../lib/32b/libmanMib.a(RFC1213_MIBAction.o)
 .debug_aranges
                0x00003600       0x20 ../../../../lib/32b/libmanMib.a(SNMPv2_MIBAction.o)
 .debug_aranges
                0x00003620       0x20 ../../../../lib/32b/libmanMib.a(man_sys.o)
 .debug_aranges
                0x00003640       0x20 ../../../../lib/32b/libmanMib.a(man_if.o)
 .debug_aranges
                0x00003660       0x20 ../../../../lib/32b/libmanMib.a(man_at.o)
 .debug_aranges
                0x00003680       0x20 ../../../../lib/32b/libmanMib.a(man_ip.o)
 .debug_aranges
                0x000036a0       0x20 ../../../../lib/32b/libmanMib.a(man_icmp.o)
 .debug_aranges
                0x000036c0       0x20 ../../../../lib/32b/libmanMib.a(man_tcp.o)
 .debug_aranges
                0x000036e0       0x20 ../../../../lib/32b/libmanMib.a(man_upd.o)
 .debug_aranges
                0x00003700       0x20 ../../../../lib/32b/libmanMib.a(man_egp.o)
 .debug_aranges
                0x00003720       0x20 ../../../../lib/32b/libmanMib.a(man_snmp.o)
 .debug_aranges
                0x00003740       0x20 ../../../../lib/32b/libsntp.a(UDPsntp.o)
 .debug_aranges
                0x00003760       0x20 ../../../../lib/32b/libfilesys.a(fss.o)
 .debug_aranges
                0x00003780       0x20 ../../../../lib/32b/libfilesys.a(rss.o)
 .debug_aranges
                0x000037a0       0x20 ../../../../lib/32b/libfilesys.a(crc32h.o)
 .debug_aranges
                0x000037c0       0x20 ../../../../lib/32b/libfilesys.a(bheader.o)
 .debug_aranges
                0x000037e0       0x20 ../../../../lib/32b/libfilesys.a(fs_api.o)
 .debug_aranges
                0x00003800       0x20 ../../../../lib/32b/libfilesys.a(io.o)
 .debug_aranges
                0x00003820       0x20 ../../../../lib/32b/libfilesys.a(parser.o)
 .debug_aranges
                0x00003840       0x20 ../../../../lib/32b/libfilesys.a(ftables.o)
 .debug_aranges
                0x00003860       0x20 ../../../../lib/32b/libfilesys.a(thread.o)
 .debug_aranges
                0x00003880       0x20 ../../../../lib/32b/libfilesys.a(sblock.o)
 .debug_aranges
                0x000038a0       0x20 ../../../../lib/32b/libfilesys.a(bpool.o)
 .debug_aranges
                0x000038c0       0x20 ../../../../lib/32b/libfilesys.a(pwr_loss.o)
 .debug_aranges
                0x000038e0       0x20 ../../../../lib/32b/libfilesys.a(inode.o)
 .debug_aranges
                0x00003900       0x20 ../../../../lib/32b/libfilesys.a(services.o)
 .debug_aranges
                0x00003920       0x20 ../../../../lib/32b/libbsp.a(MII.o)
 .debug_aranges
                0x00003940       0x20 ../../../../lib/32b/libbsp.a(select_support.o)
 .debug_aranges
                0x00003960       0x20 ../../../../lib/32b/libbsp.a(eth_init.o)
 .debug_aranges
                0x00003980       0x20 ../../../../lib/32b/libbsp.a(eth_dma.o)
 .debug_aranges
                0x000039a0       0x20 ../../../../lib/32b/libbsp.a(eth_isr.o)
 .debug_aranges
                0x000039c0       0x20 ../../../../lib/32b/libbsp.a(eth_mcast.o)
 .debug_aranges
                0x000039e0       0x20 ../../../../lib/32b/libbsp.a(eth_os.o)
 .debug_aranges
                0x00003a00       0x20 ../../../../lib/32b/libbsp.a(eth_recv.o)
 .debug_aranges
                0x00003a20       0x20 ../../../../lib/32b/libbsp.a(eth_send.o)
 .debug_aranges
                0x00003a40       0x20 ../../../../lib/32b/libbsp.a(eth_stack.o)
 .debug_aranges
                0x00003a60       0x20 ../../../../lib/32b/libbsp.a(eth_watchdog.o)
 .debug_aranges
                0x00003a80       0x20 ../../../../lib/32b/libbsp.a(eth_reset.o)
 .debug_aranges
                0x00003aa0       0x20 ../../../../lib/32b/libtx.a(tx_timeg.o)
 .debug_aranges
                0x00003ac0       0x20 ../../../../lib/32b/libtx.a(txe_efs.o)
 .debug_aranges
                0x00003ae0       0x20 ../../../../lib/32b/libtx.a(txe_tpch.o)
 .debug_aranges
                0x00003b00       0x20 ../../../../lib/32b/libtx.a(txe_trel.o)
 .debug_aranges
                0x00003b20       0x20 ../../../../lib/32b/libtx.a(TXE_TIG.o)
 .debug_aranges
                0x00003b40       0x20 ../../../../lib/32b/libtx.a(TXE_MD.o)
 .debug_aranges
                0x00003b60       0x20 ../../../../lib/32b/libtx.a(tx_trel.o)
 .debug_aranges
                0x00003b80       0x20 ../../../../lib/32b/libtx.a(tx_tpch.o)
 .debug_aranges
                0x00003ba0       0x20 ../../../../lib/32b/libtx.a(tx_efs.o)
 .debug_aranges
                0x00003bc0       0x20 ../../../../lib/32b/libtx.a(TX_TIG.o)
 .debug_aranges
                0x00003be0       0x20 ../../../../lib/32b/libtx.a(TX_MD.o)
 .debug_aranges
                0x00003c00       0x20 ../../../../lib/32b/libemailc.a(allegro_mailc.o)
 .debug_aranges
                0x00003c20       0x20 ../../../../lib/32b/libtcpip.a(udpopen.o)
 .debug_aranges
                0x00003c40       0x20 ../../../../lib/32b/libtcpip.a(strcpy.o)
 .debug_aranges
                0x00003c60       0x20 ../../../../lib/32b/libtcpip.a(strlen.o)
 .debug_aranges
                0x00003c80       0x20 ../../../../lib/32b/libtcpip.a(memory.o)
 .debug_aranges
                0x00003ca0       0x20 ../../../../lib/32b/libtcpip.a(ipbind.o)
 .debug_aranges
                0x00003cc0       0x20 ../../../../lib/32b/gnu/libc.a(atol.o)
 .debug_aranges
                0x00003ce0       0x20 ../../../../lib/32b/gnu/libc.a(rand.o)
 .debug_aranges
                0x00003d00       0x20 ../../../../lib/32b/gnu/libc.a(time.o)
 .debug_aranges
                0x00003d20       0x20 ../../../../lib/32b/gnu/libc.a(timer.o)

.debug_pubnames
                0x00000000    0x17142
 *(.debug_pubnames)
 .debug_pubnames
                0x00000000      0x450 ./objs/appconf_api.o
 .debug_pubnames
                0x00000450      0x478 ./objs/root.o
 .debug_pubnames
                0x000008c8       0x53 ./objs/MibMan.o
 .debug_pubnames
                0x0000091b      0xb80 ./objs/EARMIB.o
 .debug_pubnames
                0x0000149b     0x10f9 ./objs/EARMIBAction.o
 .debug_pubnames
                0x00002594      0x1b3 ./objs/ipgFlash.o
 .debug_pubnames
                0x00002747       0xeb ./objs/telnet.o
 .debug_pubnames
                0x00002832      0x4d8 ./objs/menu.o
 .debug_pubnames
                0x00002d0a      0x36e ./objs/ipgsnmp.o
 .debug_pubnames
                0x00003078       0xd2 ./objs/earTemperatureAlarmThreshold.o
 .debug_pubnames
                0x0000314a      0x11a ./objs/earSnmpMngrTable.o
 .debug_pubnames
                0x00003264       0x64 ./objs/earTrapPort.o
 .debug_pubnames
                0x000032c8       0x8e ./objs/earPumpsOff.o
 .debug_pubnames
                0x00003356       0x62 ./objs/earChassisReboot.o
 .debug_pubnames
                0x000033b8       0x46 ./objs/earModelNumberRead.o
 .debug_pubnames
                0x000033fe       0x7b ./objs/earRtcTime.o
 .debug_pubnames
                0x00003479       0x25 ./objs/find_highwater.o
 .debug_pubnames
                0x0000349e      0x1a4 ./objs/readFrom2U2.o
 .debug_pubnames
                0x00003642      0x369 ./objs/semaphores.o
 .debug_pubnames
                0x000039ab      0x212 ./objs/Snmp_api.o
 .debug_pubnames
                0x00003bbd       0xb8 ./objs/configNotification.o
 .debug_pubnames
                0x00003c75       0x68 ./objs/atmel.o
 .debug_pubnames
                0x00003cdd       0xf5 ./objs/EDFAWelcomePage.o
 .debug_pubnames
                0x00003dd2      0x9b8 ./objs/EDFAWelcomePage_v.o
 .debug_pubnames
                0x0000478a       0x3c ./objs/RpPages.o
 .debug_pubnames
                0x000047c6       0x2c ./objs/security.o
 .debug_pubnames
                0x000047f2       0x2a ./objs/RpUsrDct.o
 .debug_pubnames
                0x0000481c       0x4c ./objs/cgi.o
 .debug_pubnames
                0x00004868      0x111 ./objs/file.o
 .debug_pubnames
                0x00004979       0x3d ./objs/naftpapp.o
 .debug_pubnames
                0x000049b6       0x2c /usr/lib/gcc-lib/arm-elf/3.2/be/libgcc.a(_addsub_sf.o)
 .debug_pubnames
                0x000049e2       0x1f /usr/lib/gcc-lib/arm-elf/3.2/be/libgcc.a(_div_sf.o)
 .debug_pubnames
                0x00004a01       0x22 /usr/lib/gcc-lib/arm-elf/3.2/be/libgcc.a(_si_to_sf.o)
 .debug_pubnames
                0x00004a23       0x24 /usr/lib/gcc-lib/arm-elf/3.2/be/libgcc.a(_sf_to_df.o)
 .debug_pubnames
                0x00004a47       0x22 /usr/lib/gcc-lib/arm-elf/3.2/be/libgcc.a(_thenan_sf.o)
 .debug_pubnames
                0x00004a69       0x1f /usr/lib/gcc-lib/arm-elf/3.2/be/libgcc.a(_div_df.o)
 .debug_pubnames
                0x00004a88       0x20 /usr/lib/gcc-lib/arm-elf/3.2/be/libgcc.a(_make_df.o)
 .debug_pubnames
                0x00004aa8       0x23 /usr/lib/gcc-lib/arm-elf/3.2/be/libgcc.a(_df_to_sf.o)
 .debug_pubnames
                0x00004acb       0x22 /usr/lib/gcc-lib/arm-elf/3.2/be/libgcc.a(_thenan_df.o)
 .debug_pubnames
                0x00004aed       0x1f /usr/lib/gcc-lib/arm-elf/3.2/be/libgcc.a(_pack_sf.o)
 .debug_pubnames
                0x00004b0c       0x21 /usr/lib/gcc-lib/arm-elf/3.2/be/libgcc.a(_unpack_sf.o)
 .debug_pubnames
                0x00004b2d       0x20 /usr/lib/gcc-lib/arm-elf/3.2/be/libgcc.a(_make_sf.o)
 .debug_pubnames
                0x00004b4d       0x1f /usr/lib/gcc-lib/arm-elf/3.2/be/libgcc.a(_pack_df.o)
 .debug_pubnames
                0x00004b6c       0x21 /usr/lib/gcc-lib/arm-elf/3.2/be/libgcc.a(_unpack_df.o)
 .debug_pubnames
                0x00004b8d       0x20 /usr/lib/gcc-lib/arm-elf/3.2/be/libgcc.a(_lshrdi3.o)
 .debug_pubnames
                0x00004bad       0x20 /usr/lib/gcc-lib/arm-elf/3.2/be/libgcc.a(_ashldi3.o)
 .debug_pubnames
                0x00004bcd       0x1b ../../../../lib/32b/gnu/libc.a(atof.o)
 .debug_pubnames
                0x00004be8       0x1b ../../../../lib/32b/gnu/libc.a(atoi.o)
 .debug_pubnames
                0x00004c03       0x1d ../../../../lib/32b/gnu/libc.a(calloc.o)
 .debug_pubnames
                0x00004c20       0x20 ../../../../lib/32b/gnu/libc.a(callocr.o)
 .debug_pubnames
                0x00004c40       0x1b ../../../../lib/32b/gnu/libc.a(exit.o)
 .debug_pubnames
                0x00004c5b       0x1d ../../../../lib/32b/gnu/libc.a(fflush.o)
 .debug_pubnames
                0x00004c78       0x55 ../../../../lib/32b/gnu/libc.a(findfp.o)
 .debug_pubnames
                0x00004ccd       0x1d ../../../../lib/32b/gnu/libc.a(fwalk.o)
 .debug_pubnames
                0x00004cea       0x22 ../../../../lib/32b/gnu/libc.a(impure.o)
 .debug_pubnames
                0x00004d0c       0x1e ../../../../lib/32b/gnu/libc.a(isdigit.o)
 .debug_pubnames
                0x00004d2a       0x1e ../../../../lib/32b/gnu/libc.a(isspace.o)
 .debug_pubnames
                0x00004d48       0x20 ../../../../lib/32b/gnu/libc.a(lcltime.o)
 .debug_pubnames
                0x00004d68       0x22 ../../../../lib/32b/gnu/libc.a(lcltime_r.o)
 .debug_pubnames
                0x00004d8a       0x26 ../../../../lib/32b/gnu/libc.a(malloc.o)
 .debug_pubnames
                0x00004db0       0xce ../../../../lib/32b/gnu/libc.a(mallocr.o)
 .debug_pubnames
                0x00004e7e       0x1d ../../../../lib/32b/gnu/libc.a(memcmp.o)
 .debug_pubnames
                0x00004e9b       0x1d ../../../../lib/32b/gnu/libc.a(memcpy.o)
 .debug_pubnames
                0x00004eb8       0x1d ../../../../lib/32b/gnu/libc.a(memset.o)
 .debug_pubnames
                0x00004ed5       0x32 ../../../../lib/32b/gnu/libc.a(mktm_r.o)
 .debug_pubnames
                0x00004f07       0x38 ../../../../lib/32b/gnu/libc.a(mlock.o)
 .debug_pubnames
                0x00004f3f       0x2b ../../../../lib/32b/gnu/libc.a(printf.o)
 .debug_pubnames
                0x00004f6a       0x1e ../../../../lib/32b/gnu/libc.a(rget.o)
 .debug_pubnames
                0x00004f88       0x1e ../../../../lib/32b/gnu/libc.a(sbrkr.o)
 .debug_pubnames
                0x00004fa6       0x2f ../../../../lib/32b/gnu/libc.a(snprintf.o)
 .debug_pubnames
                0x00004fd5       0x2d ../../../../lib/32b/gnu/libc.a(sprintf.o)
 .debug_pubnames
                0x00005002       0x2b ../../../../lib/32b/gnu/libc.a(sscanf.o)
 .debug_pubnames
                0x0000502d       0x44 ../../../../lib/32b/gnu/libc.a(stdio.o)
 .debug_pubnames
                0x00005071       0x1d ../../../../lib/32b/gnu/libc.a(strcat.o)
 .debug_pubnames
                0x0000508e       0x1d ../../../../lib/32b/gnu/libc.a(strchr.o)
 .debug_pubnames
                0x000050ab       0x1d ../../../../lib/32b/gnu/libc.a(strcmp.o)
 .debug_pubnames
                0x000050c8       0x1d ../../../../lib/32b/gnu/libc.a(strcpy.o)
 .debug_pubnames
                0x000050e5       0x1d ../../../../lib/32b/gnu/libc.a(strlen.o)
 .debug_pubnames
                0x00005102       0x1e ../../../../lib/32b/gnu/libc.a(strncmp.o)
 .debug_pubnames
                0x00005120       0x1e ../../../../lib/32b/gnu/libc.a(strncpy.o)
 .debug_pubnames
                0x0000513e       0x1d ../../../../lib/32b/gnu/libc.a(strstr.o)
 .debug_pubnames
                0x0000515b       0x36 ../../../../lib/32b/gnu/libc.a(strtod.o)
 .debug_pubnames
                0x00005191       0x1d ../../../../lib/32b/gnu/libc.a(strtok.o)
 .debug_pubnames
                0x000051ae       0x2e ../../../../lib/32b/gnu/libc.a(strtok_r.o)
 .debug_pubnames
                0x000051dc       0x2b ../../../../lib/32b/gnu/libc.a(strtol.o)
 .debug_pubnames
                0x00005207       0x30 ../../../../lib/32b/gnu/libc.a(tzlock.o)
 .debug_pubnames
                0x00005237       0x6f ../../../../lib/32b/gnu/libc.a(tzset_r.o)
 .debug_pubnames
                0x000052a6       0x2f ../../../../lib/32b/gnu/libc.a(vfprintf.o)
 .debug_pubnames
                0x000052d5       0x58 ../../../../lib/32b/gnu/libc.a(vfscanf.o)
 .debug_pubnames
                0x0000532d       0x1f ../../../../lib/32b/gnu/libc.a(writer.o)
 .debug_pubnames
                0x0000534c       0x20 ../../../../lib/32b/gnu/libc.a(wsetup.o)
 .debug_pubnames
                0x0000536c      0x18d ../../../../lib/32b/gnu/libc.a(syscalls.o)
 .debug_pubnames
                0x000054f9       0x1f ../../../../lib/32b/gnu/libc.a(closer.o)
 .debug_pubnames
                0x00005518       0x2e ../../../../lib/32b/gnu/libc.a(ctype_.o)
 .debug_pubnames
                0x00005546       0x1e ../../../../lib/32b/gnu/libc.a(dtoa.o)
 .debug_pubnames
                0x00005564       0x1e ../../../../lib/32b/gnu/libc.a(errno.o)
 .debug_pubnames
                0x00005582       0x1c ../../../../lib/32b/gnu/libc.a(fread.o)
 .debug_pubnames
                0x0000559e       0x31 ../../../../lib/32b/gnu/libc.a(freer.o)
 .debug_pubnames
                0x000055cf       0x21 ../../../../lib/32b/gnu/libc.a(fvwrite.o)
 .debug_pubnames
                0x000055f0       0x2f ../../../../lib/32b/gnu/libc.a(getenv_r.o)
 .debug_pubnames
                0x0000561f       0xc3 ../../../../lib/32b/gnu/libc.a(locale.o)
 .debug_pubnames
                0x000056e2       0x1f ../../../../lib/32b/gnu/libc.a(lseekr.o)
 .debug_pubnames
                0x00005701       0x21 ../../../../lib/32b/gnu/libc.a(makebuf.o)
 .debug_pubnames
                0x00005722       0x20 ../../../../lib/32b/gnu/libc.a(mbtowc_r.o)
 .debug_pubnames
                0x00005742       0x1d ../../../../lib/32b/gnu/libc.a(memchr.o)
 .debug_pubnames
                0x0000575f       0x1e ../../../../lib/32b/gnu/libc.a(memmove.o)
 .debug_pubnames
                0x0000577d      0x112 ../../../../lib/32b/gnu/libc.a(mprec.o)
 .debug_pubnames
                0x0000588f       0x1e ../../../../lib/32b/gnu/libc.a(readr.o)
 .debug_pubnames
                0x000058ad       0x21 ../../../../lib/32b/gnu/libc.a(reallocr.o)
 .debug_pubnames
                0x000058ce       0x52 ../../../../lib/32b/gnu/libc.a(reent.o)
 .debug_pubnames
                0x00005920       0x20 ../../../../lib/32b/gnu/libc.a(refill.o)
 .debug_pubnames
                0x00005940       0x21 ../../../../lib/32b/gnu/libc.a(s_infconst.o)
 .debug_pubnames
                0x00005961       0x1c ../../../../lib/32b/gnu/libc.a(s_isinf.o)
 .debug_pubnames
                0x0000597d       0x1c ../../../../lib/32b/gnu/libc.a(s_isnan.o)
 .debug_pubnames
                0x00005999       0x2a ../../../../lib/32b/gnu/libc.a(setenv.o)
 .debug_pubnames
                0x000059c3       0x30 ../../../../lib/32b/gnu/libc.a(setenv_r.o)
 .debug_pubnames
                0x000059f3       0x2d ../../../../lib/32b/gnu/libc.a(strtoul.o)
 .debug_pubnames
                0x00005a20       0x1b ../../../../lib/32b/gnu/libc.a(sysopen.o)
 .debug_pubnames
                0x00005a3b       0x1c ../../../../lib/32b/gnu/libc.a(tzset.o)
 .debug_pubnames
                0x00005a57       0x2b ../../../../lib/32b/gnu/libc.a(ungetc.o)
 .debug_pubnames
                0x00005a82       0x1c ../../../../lib/32b/gnu/libc.a(bcopy.o)
 .debug_pubnames
                0x00005a9e       0x1e ../../../../lib/32b/gnu/libc.a(environ.o)
 .debug_pubnames
                0x00005abc       0x32 ../../../../lib/32b/gnu/libc.a(envlock.o)
 .debug_pubnames
                0x00005aee       0x1f ../../../../lib/32b/gnu/libc.a(fstatr.o)
 .debug_pubnames
                0x00005b0d       0x20 /usr/lib/gcc-lib/arm-elf/3.2/be/libgcc.a(_udivdi3.o)
 .debug_pubnames
                0x00005b2d       0x20 /usr/lib/gcc-lib/arm-elf/3.2/be/libgcc.a(_umoddi3.o)
 .debug_pubnames
                0x00005b4d       0x2c /usr/lib/gcc-lib/arm-elf/3.2/be/libgcc.a(_addsub_df.o)
 .debug_pubnames
                0x00005b79       0x1f /usr/lib/gcc-lib/arm-elf/3.2/be/libgcc.a(_mul_df.o)
 .debug_pubnames
                0x00005b98       0x1e /usr/lib/gcc-lib/arm-elf/3.2/be/libgcc.a(_eq_df.o)
 .debug_pubnames
                0x00005bb6       0x1e /usr/lib/gcc-lib/arm-elf/3.2/be/libgcc.a(_ne_df.o)
 .debug_pubnames
                0x00005bd4       0x1e /usr/lib/gcc-lib/arm-elf/3.2/be/libgcc.a(_gt_df.o)
 .debug_pubnames
                0x00005bf2       0x1e /usr/lib/gcc-lib/arm-elf/3.2/be/libgcc.a(_ge_df.o)
 .debug_pubnames
                0x00005c10       0x1e /usr/lib/gcc-lib/arm-elf/3.2/be/libgcc.a(_lt_df.o)
 .debug_pubnames
                0x00005c2e       0x1e /usr/lib/gcc-lib/arm-elf/3.2/be/libgcc.a(_le_df.o)
 .debug_pubnames
                0x00005c4c       0x22 /usr/lib/gcc-lib/arm-elf/3.2/be/libgcc.a(_si_to_df.o)
 .debug_pubnames
                0x00005c6e       0x20 /usr/lib/gcc-lib/arm-elf/3.2/be/libgcc.a(_df_to_si.o)
 .debug_pubnames
                0x00005c8e       0x1f /usr/lib/gcc-lib/arm-elf/3.2/be/libgcc.a(_negate_df.o)
 .debug_pubnames
                0x00005cad       0x20 /usr/lib/gcc-lib/arm-elf/3.2/be/libgcc.a(_clz.o)
 .debug_pubnames
                0x00005ccd       0x26 /usr/lib/gcc-lib/arm-elf/3.2/be/libgcc.a(_fpcmp_parts_df.o)
 .debug_pubnames
                0x00005cf3      0x270 ../../../../lib/32b/libbsp.a(bsp_api.o)
 .debug_pubnames
                0x00005f63       0x41 ../../../../lib/32b/libbsp.a(nainet.o)
 .debug_pubnames
                0x00005fa4       0x1b ../../../../lib/32b/libbsp.a(main.o)
 .debug_pubnames
                0x00005fbf       0xcc ../../../../lib/32b/libbsp.a(errhndlr.o)
 .debug_pubnames
                0x0000608b       0x4c ../../../../lib/32b/libbsp.a(narmbrd.o)
 .debug_pubnames
                0x000060d7       0xb7 ../../../../lib/32b/libbsp.a(narmled.o)
 .debug_pubnames
                0x0000618e       0x67 ../../../../lib/32b/libbsp.a(devices.o)
 .debug_pubnames
                0x000061f5       0x70 ../../../../lib/32b/libbsp.a(flashnvrm.o)
 .debug_pubnames
                0x00006265       0xad ../../../../lib/32b/libbsp.a(sysAccess.o)
 .debug_pubnames
                0x00006312       0x94 ../../../../lib/32b/libbsp.a(lpbkdev.o)
 .debug_pubnames
                0x000063a6       0x71 ../../../../lib/32b/libbsp.a(nuldev.o)
 .debug_pubnames
                0x00006417       0x98 ../../../../lib/32b/libbsp.a(nacache.o)
 .debug_pubnames
                0x000064af       0xac ../../../../lib/32b/libbsp.a(NCC_INIT.o)
 .debug_pubnames
                0x0000655b      0x109 ../../../../lib/32b/libbsp.a(NCC_POST.o)
 .debug_pubnames
                0x00006664       0x64 ../../../../lib/32b/libbsp.a(IRQREG.o)
 .debug_pubnames
                0x000066c8      0x13d ../../../../lib/32b/libbsp.a(gpio.o)
 .debug_pubnames
                0x00006805       0xf2 ../../../../lib/32b/libbsp.a(cs.o)
 .debug_pubnames
                0x000068f7      0x141 ../../../../lib/32b/libbsp.a(boardParams.o)
 .debug_pubnames
                0x00006a38       0x60 ../../../../lib/32b/libbsp.a(nawait.o)
 .debug_pubnames
                0x00006a98       0x1e ../../../../lib/32b/libbsp.a(nareset.o)
 .debug_pubnames
                0x00006ab6      0x108 ../../../../lib/32b/libbsp.a(startfilesystem.o)
 .debug_pubnames
                0x00006bbe       0x68 ../../../../lib/32b/libbsp.a(fbanks.o)
 .debug_pubnames
                0x00006c26       0x9e ../../../../lib/32b/libbsp.a(rtc.o)
 .debug_pubnames
                0x00006cc4      0x112 ../../../../lib/32b/libbsp.a(termios.o)
 .debug_pubnames
                0x00006dd6       0xe9 ../../../../lib/32b/libbsp.a(netos_serl.o)
 .debug_pubnames
                0x00006ebf       0x93 ../../../../lib/32b/libbsp.a(NA_ISR.o)
 .debug_pubnames
                0x00006f52       0x1e ../../../../lib/32b/libbsp.a(crc32h.o)
 .debug_pubnames
                0x00006f70       0x8f ../../../../lib/32b/libbsp.a(udpdb.o)
 .debug_pubnames
                0x00006fff       0xd1 ../../../../lib/32b/libbsp.a(bsp.o)
 .debug_pubnames
                0x000070d0       0xac ../../../../lib/32b/libbsp.a(bsproot.o)
 .debug_pubnames
                0x0000717c       0xc5 ../../../../lib/32b/libbsp.a(starttcp.o)
 .debug_pubnames
                0x00007241       0x85 ../../../../lib/32b/libbsp.a(bsptimer.o)
 .debug_pubnames
                0x000072c6       0x38 ../../../../lib/32b/libbsp.a(sysClock.o)
 .debug_pubnames
                0x000072fe      0x13b ../../../../lib/32b/libbsp.a(hdlcdvr.o)
 .debug_pubnames
                0x00007439      0x2a4 ../../../../lib/32b/libbsp.a(aceParams.o)
 .debug_pubnames
                0x000076dd      0x10c ../../../../lib/32b/libbsp.a(aceCallbacks.o)
 .debug_pubnames
                0x000077e9       0xe5 ../../../../lib/32b/libbsp.a(naip_global.o)
 .debug_pubnames
                0x000078ce       0x84 ../../../../lib/32b/libbsp.a(naifconfig.o)
 .debug_pubnames
                0x00007952       0x26 ../../../../lib/32b/libbsp.a(dialog.o)
 .debug_pubnames
                0x00007978       0x95 ../../../../lib/32b/libbsp.a(flashutil.o)
 .debug_pubnames
                0x00007a0d       0x59 ../../../../lib/32b/libbsp.a(event_handler.o)
 .debug_pubnames
                0x00007a66       0xe7 ../../../../lib/32b/libbsp.a(hdlcmem.o)
 .debug_pubnames
                0x00007b4d      0x62e ../../../../lib/32b/libflash.a(naflash.o)
 .debug_pubnames
                0x0000817b       0x2e ../../../../lib/32b/libflash.a(naflsem.o)
 .debug_pubnames
                0x000081a9       0xc3 ../../../../lib/32b/libposix.a(posix_semaphore.o)
 .debug_pubnames
                0x0000826c      0x188 ../../../../lib/32b/libposix.a(posix_thread.o)
 .debug_pubnames
                0x000083f4       0x73 ../../../../lib/32b/libtx.a(tx_ike.o)
 .debug_pubnames
                0x00008467      0x1a6 ../../../../lib/32b/libtx.a(tx_timi.o)
 .debug_pubnames
                0x0000860d      0x1b6 ../../../../lib/32b/libtx.a(tx_ti.o)
 .debug_pubnames
                0x000087c3       0x28 ../../../../lib/32b/libtx.a(tx_tc.o)
 .debug_pubnames
                0x000087eb       0x28 ../../../../lib/32b/libtx.a(tx_tr.o)
 .debug_pubnames
                0x00008813       0x2d ../../../../lib/32b/libtx.a(tx_tte.o)
 .debug_pubnames
                0x00008840       0x29 ../../../../lib/32b/libtx.a(tx_ta.o)
 .debug_pubnames
                0x00008869       0x29 ../../../../lib/32b/libtx.a(tx_tto.o)
 .debug_pubnames
                0x00008892       0x27 ../../../../lib/32b/libtx.a(tx_tsle.o)
 .debug_pubnames
                0x000088b9       0x2a ../../../../lib/32b/libtx.a(tx_tide.o)
 .debug_pubnames
                0x000088e3       0xd9 ../../../../lib/32b/libtx.a(tx_gnu.o)
 .debug_pubnames
                0x000089bc       0x2e ../../../../lib/32b/libtx.a(txe_efc.o)
 .debug_pubnames
                0x000089ea       0x2b ../../../../lib/32b/libtx.a(txe_efg.o)
 .debug_pubnames
                0x00008a15       0x28 ../../../../lib/32b/libtx.a(txe_qc.o)
 .debug_pubnames
                0x00008a3d       0x29 ../../../../lib/32b/libtx.a(txe_qr.o)
 .debug_pubnames
                0x00008a66       0x26 ../../../../lib/32b/libtx.a(txe_qs.o)
 .debug_pubnames
                0x00008a8c       0x2c ../../../../lib/32b/libtx.a(txe_sc.o)
 .debug_pubnames
                0x00008ab8       0x2c ../../../../lib/32b/libtx.a(txe_sd.o)
 .debug_pubnames
                0x00008ae4       0x29 ../../../../lib/32b/libtx.a(txe_sg.o)
 .debug_pubnames
                0x00008b0d       0x29 ../../../../lib/32b/libtx.a(txe_sp.o)
 .debug_pubnames
                0x00008b36       0x29 ../../../../lib/32b/libtx.a(txe_tc.o)
 .debug_pubnames
                0x00008b5f       0x29 ../../../../lib/32b/libtx.a(txe_tdel.o)
 .debug_pubnames
                0x00008b88       0x32 ../../../../lib/32b/libtx.a(txe_trpc.o)
 .debug_pubnames
                0x00008bba       0x2d ../../../../lib/32b/libtx.a(txe_tra.o)
 .debug_pubnames
                0x00008be7       0x2e ../../../../lib/32b/libtx.a(txe_tsa.o)
 .debug_pubnames
                0x00008c15       0x2c ../../../../lib/32b/libtx.a(txe_tt.o)
 .debug_pubnames
                0x00008c41       0x2e ../../../../lib/32b/libtx.a(txe_taa.o)
 .debug_pubnames
                0x00008c6f       0x28 ../../../../lib/32b/libtx.a(txe_tmch.o)
 .debug_pubnames
                0x00008c97       0x28 ../../../../lib/32b/libtx.a(txe_tmcr.o)
 .debug_pubnames
                0x00008cbf       0x30 ../../../../lib/32b/libtx.a(txe_tda.o)
 .debug_pubnames
                0x00008cef       0x28 ../../../../lib/32b/libtx.a(txe_timd.o)
 .debug_pubnames
                0x00008d17       0x27 ../../../../lib/32b/libtx.a(TX_MC.o)
 .debug_pubnames
                0x00008d3e       0x24 ../../../../lib/32b/libtx.a(TX_MG.o)
 .debug_pubnames
                0x00008d62       0x24 ../../../../lib/32b/libtx.a(TX_MP.o)
 .debug_pubnames
                0x00008d86       0x2b ../../../../lib/32b/libtx.a(TX_MPRI.o)
 .debug_pubnames
                0x00008db1       0x30 ../../../../lib/32b/libtx.a(TX_MPC.o)
 .debug_pubnames
                0x00008de1       0x28 ../../../../lib/32b/libtx.a(TX_MCLE.o)
 .debug_pubnames
                0x00008e09       0x28 ../../../../lib/32b/libtx.a(TXE_MC.o)
 .debug_pubnames
                0x00008e31       0x25 ../../../../lib/32b/libtx.a(TXE_MG.o)
 .debug_pubnames
                0x00008e56       0x25 ../../../../lib/32b/libtx.a(TXE_MP.o)
 .debug_pubnames
                0x00008e7b      0x19a ../../../../lib/32b/libtx.a(tx_ihl.o)
 .debug_pubnames
                0x00009015       0x2d ../../../../lib/32b/libtx.a(tx_tse.o)
 .debug_pubnames
                0x00009042       0x29 ../../../../lib/32b/libtx.a(tx_tsus.o)
 .debug_pubnames
                0x0000906b       0x2d ../../../../lib/32b/libtx.a(tx_tsa.o)
 .debug_pubnames
                0x00009098       0x2c ../../../../lib/32b/libtx.a(tx_tra.o)
 .debug_pubnames
                0x000090c4       0x2c ../../../../lib/32b/libtx.a(tx_tts.o)
 .debug_pubnames
                0x000090f0       0x28 ../../../../lib/32b/libtx.a(tx_tdel.o)
 .debug_pubnames
                0x00009118       0x31 ../../../../lib/32b/libtx.a(tx_tprch.o)
 .debug_pubnames
                0x00009149       0x2b ../../../../lib/32b/libtx.a(tx_tt.o)
 .debug_pubnames
                0x00009174       0x2b ../../../../lib/32b/libtx.a(tx_td.o)
 .debug_pubnames
                0x0000919f       0x27 ../../../../lib/32b/libtx.a(tx_timcr.o)
 .debug_pubnames
                0x000091c6       0x2d ../../../../lib/32b/libtx.a(tx_taa.o)
 .debug_pubnames
                0x000091f3       0x2f ../../../../lib/32b/libtx.a(tx_tda.o)
 .debug_pubnames
                0x00009222       0x27 ../../../../lib/32b/libtx.a(tx_timch.o)
 .debug_pubnames
                0x00009249       0x27 ../../../../lib/32b/libtx.a(tx_timd.o)
 .debug_pubnames
                0x00009270       0x2b ../../../../lib/32b/libtx.a(tx_sc.o)
 .debug_pubnames
                0x0000929b       0x2b ../../../../lib/32b/libtx.a(tx_sd.o)
 .debug_pubnames
                0x000092c6       0x28 ../../../../lib/32b/libtx.a(tx_sg.o)
 .debug_pubnames
                0x000092ee       0x28 ../../../../lib/32b/libtx.a(tx_sp.o)
 .debug_pubnames
                0x00009316       0x2c ../../../../lib/32b/libtx.a(tx_scle.o)
 .debug_pubnames
                0x00009342       0x27 ../../../../lib/32b/libtx.a(tx_qc.o)
 .debug_pubnames
                0x00009369       0x25 ../../../../lib/32b/libtx.a(tx_qs.o)
 .debug_pubnames
                0x0000938e       0x28 ../../../../lib/32b/libtx.a(tx_qr.o)
 .debug_pubnames
                0x000093b6       0x28 ../../../../lib/32b/libtx.a(tx_qcle.o)
 .debug_pubnames
                0x000093de       0x2d ../../../../lib/32b/libtx.a(tx_efc.o)
 .debug_pubnames
                0x0000940b       0x2a ../../../../lib/32b/libtx.a(tx_efg.o)
 .debug_pubnames
                0x00009435       0x2e ../../../../lib/32b/libtx.a(tx_efcle.o)
 .debug_pubnames
                0x00009463      0x184 ../../../../lib/32b/libmanapi.a(man_env.o)
 .debug_pubnames
                0x000095e7      0x201 ../../../../lib/32b/libmanapi.a(man_init.o)
 .debug_pubnames
                0x000097e8       0x1b ../../../../lib/32b/libmanapi.a(hash.o)
 .debug_pubnames
                0x00009803      0x15a ../../../../lib/32b/libmanapi.a(man_row.o)
 .debug_pubnames
                0x0000995d       0xea ../../../../lib/32b/libmanapi.a(man_main.o)
 .debug_pubnames
                0x00009a47       0x8c ../../../../lib/32b/libftpsvr.a(ftposp.o)
 .debug_pubnames
                0x00009ad3      0x584 ../../../../lib/32b/libftpsvr.a(ftpsvr.o)
 .debug_pubnames
                0x0000a057      0x294 ../../../../lib/32b/libtelnsvr.a(ts_mod.o)
 .debug_pubnames
                0x0000a2eb      0x15a ../../../../lib/32b/libtelnsvr.a(telnetd2.o)
 .debug_pubnames
                0x0000a445       0x1e ../../../../lib/32b/libtelnsvr.a(fsminit.o)
 .debug_pubnames
                0x0000a463       0x33 ../../../../lib/32b/libtelnsvr.a(ttfsm.o)
 .debug_pubnames
                0x0000a496       0x2a ../../../../lib/32b/libtelnsvr.a(ttgetc.o)
 .debug_pubnames
                0x0000a4c0       0x22 ../../../../lib/32b/libtelnsvr.a(will_not.o)
 .debug_pubnames
                0x0000a4e2       0x2c ../../../../lib/32b/libtelnsvr.a(do_echo.o)
 .debug_pubnames
                0x0000a50e       0x2c ../../../../lib/32b/libtelnsvr.a(do_noga.o)
 .debug_pubnames
                0x0000a53a       0x20 ../../../../lib/32b/libtelnsvr.a(do_notsu.o)
 .debug_pubnames
                0x0000a55a       0x34 ../../../../lib/32b/libtelnsvr.a(do_txbin.o)
 .debug_pubnames
                0x0000a58e       0x28 ../../../../lib/32b/libtelnsvr.a(tcga.o)
 .debug_pubnames
                0x0000a5b6       0x27 ../../../../lib/32b/libtelnsvr.a(recopt.o)
 .debug_pubnames
                0x0000a5dd       0x5e ../../../../lib/32b/libdnsclnt.a(dnsc_api.o)
 .debug_pubnames
                0x0000a63b      0x14a ../../../../lib/32b/libfastip.a(fast_ip.o)
 .debug_pubnames
                0x0000a785       0x72 ../../../../lib/32b/libtcpip.a(ace.o)
 .debug_pubnames
                0x0000a7f7       0x8c ../../../../lib/32b/libtcpip.a(ace_os.o)
 .debug_pubnames
                0x0000a883       0xca ../../../../lib/32b/libtcpip.a(ace_dhcp.o)
 .debug_pubnames
                0x0000a94d       0x73 ../../../../lib/32b/libtcpip.a(ace_bootp.o)
 .debug_pubnames
                0x0000a9c0       0x58 ../../../../lib/32b/libtcpip.a(ace_autoip.o)
 .debug_pubnames
                0x0000aa18       0x58 ../../../../lib/32b/libtcpip.a(ace_static.o)
 .debug_pubnames
                0x0000aa70       0x52 ../../../../lib/32b/libtcpip.a(ace_rarp.o)
 .debug_pubnames
                0x0000aac2       0x5e ../../../../lib/32b/libtcpip.a(ace_pingarp.o)
 .debug_pubnames
                0x0000ab20      0x217 ../../../../lib/32b/libtcpip.a(fnsrr.o)
 .debug_pubnames
                0x0000ad37       0x45 ../../../../lib/32b/libtcpip.a(heap.o)
 .debug_pubnames
                0x0000ad7c      0x10f ../../../../lib/32b/libtcpip.a(icmp.o)
 .debug_pubnames
                0x0000ae8b       0x24 ../../../../lib/32b/libtcpip.a(ipclassm.o)
 .debug_pubnames
                0x0000aeaf       0x6a ../../../../lib/32b/libtcpip.a(ipcomm.o)
 .debug_pubnames
                0x0000af19       0x68 ../../../../lib/32b/libtcpip.a(ipfrag.o)
 .debug_pubnames
                0x0000af81       0xea ../../../../lib/32b/libtcpip.a(ipmisc.o)
 .debug_pubnames
                0x0000b06b       0x5d ../../../../lib/32b/libtcpip.a(ipnetd.o)
 .debug_pubnames
                0x0000b0c8       0xba ../../../../lib/32b/libtcpip.a(ipopt.o)
 .debug_pubnames
                0x0000b182       0x75 ../../../../lib/32b/libtcpip.a(ipxmit.o)
 .debug_pubnames
                0x0000b1f7       0xb8 ../../../../lib/32b/libtcpip.a(lkheap.o)
 .debug_pubnames
                0x0000b2af       0x57 ../../../../lib/32b/libtcpip.a(llconfig.o)
 .debug_pubnames
                0x0000b306       0x94 ../../../../lib/32b/libtcpip.a(m.o)
 .debug_pubnames
                0x0000b39a       0x3a ../../../../lib/32b/libtcpip.a(md.o)
 .debug_pubnames
                0x0000b3d4       0x39 ../../../../lib/32b/libtcpip.a(md5.o)
 .debug_pubnames
                0x0000b40d       0x91 ../../../../lib/32b/libtcpip.a(msm.o)
 .debug_pubnames
                0x0000b49e       0x76 ../../../../lib/32b/libtcpip.a(ncaf.o)
 .debug_pubnames
                0x0000b514       0x34 ../../../../lib/32b/libtcpip.a(naadddev.o)
 .debug_pubnames
                0x0000b548      0x17c ../../../../lib/32b/libtcpip.a(ncdev.o)
 .debug_pubnames
                0x0000b6c4      0x294 ../../../../lib/32b/libtcpip.a(ncdid.o)
 .debug_pubnames
                0x0000b958      0x6fa ../../../../lib/32b/libtcpip.a(ncmisc.o)
 .debug_pubnames
                0x0000c052      0x21a ../../../../lib/32b/libtcpip.a(ncpr.o)
 .debug_pubnames
                0x0000c26c      0x164 ../../../../lib/32b/libtcpip.a(q.o)
 .debug_pubnames
                0x0000c3d0       0x54 ../../../../lib/32b/libtcpip.a(secure.o)
 .debug_pubnames
                0x0000c424       0x92 ../../../../lib/32b/libtcpip.a(select.o)
 .debug_pubnames
                0x0000c4b6      0x1ce ../../../../lib/32b/libtcpip.a(sock.o)
 .debug_pubnames
                0x0000c684       0x2e ../../../../lib/32b/libtcpip.a(sop.o)
 .debug_pubnames
                0x0000c6b2       0xa2 ../../../../lib/32b/libtcpip.a(timer.o)
 .debug_pubnames
                0x0000c754       0x5b ../../../../lib/32b/libtcpip.a(twq.o)
 .debug_pubnames
                0x0000c7af       0x95 ../../../../lib/32b/libtcpip.a(udpnetd.o)
 .debug_pubnames
                0x0000c844       0x30 ../../../../lib/32b/libtcpip.a(udpopt.o)
 .debug_pubnames
                0x0000c874       0x8b ../../../../lib/32b/libtcpip.a(udpsock.o)
 .debug_pubnames
                0x0000c8ff       0x47 ../../../../lib/32b/libtcpip.a(tcpxmit.o)
 .debug_pubnames
                0x0000c946       0xd2 ../../../../lib/32b/libtcpip.a(tcpnetd.o)
 .debug_pubnames
                0x0000ca18       0x8d ../../../../lib/32b/libtcpip.a(tcpsend.o)
 .debug_pubnames
                0x0000caa5      0x11a ../../../../lib/32b/libtcpip.a(tcpsock.o)
 .debug_pubnames
                0x0000cbbf      0x35b ../../../../lib/32b/libtcpip.a(tcpmisc.o)
 .debug_pubnames
                0x0000cf1a       0x9e ../../../../lib/32b/libtcpip.a(tcptrans.o)
 .debug_pubnames
                0x0000cfb8       0x2d ../../../../lib/32b/libtcpip.a(tcpimpco.o)
 .debug_pubnames
                0x0000cfe5      0x1c1 ../../../../lib/32b/libtcpip.a(igmp.o)
 .debug_pubnames
                0x0000d1a6       0x7f ../../../../lib/32b/libtcpip.a(socketopt.o)
 .debug_pubnames
                0x0000d225      0x170 ../../../../lib/32b/libtcpip.a(sockapi.o)
 .debug_pubnames
                0x0000d395      0x11b ../../../../lib/32b/libtcpip.a(autoip.o)
 .debug_pubnames
                0x0000d4b0      0x115 ../../../../lib/32b/libtcpip.a(rricirc.o)
 .debug_pubnames
                0x0000d5c5      0x2e6 ../../../../lib/32b/libtcpip.a(rripfdb.o)
 .debug_pubnames
                0x0000d8ab       0x37 ../../../../lib/32b/libtcpip.a(rripfwd.o)
 .debug_pubnames
                0x0000d8e2       0x37 ../../../../lib/32b/libtcpip.a(rrrcirc.o)
 .debug_pubnames
                0x0000d919       0x46 ../../../../lib/32b/libtcpip.a(rrtask.o)
 .debug_pubnames
                0x0000d95f      0x116 ../../../../lib/32b/libtcpip.a(res_init.o)
 .debug_pubnames
                0x0000da75       0xc0 ../../../../lib/32b/libtcpip.a(gethnama.o)
 .debug_pubnames
                0x0000db35      0x192 ../../../../lib/32b/libtcpip.a(dnscache.o)
 .debug_pubnames
                0x0000dcc7       0xd2 ../../../../lib/32b/libtcpip.a(pppdev.o)
 .debug_pubnames
                0x0000dd99      0x1bd ../../../../lib/32b/libtcpip.a(pppfsm.o)
 .debug_pubnames
                0x0000df56      0x263 ../../../../lib/32b/libtcpip.a(pppipcp.o)
 .debug_pubnames
                0x0000e1b9      0x260 ../../../../lib/32b/libtcpip.a(ppplcp.o)
 .debug_pubnames
                0x0000e419      0x1aa ../../../../lib/32b/libtcpip.a(ppppap.o)
 .debug_pubnames
                0x0000e5c3       0x62 ../../../../lib/32b/libtcpip.a(pppsend.o)
 .debug_pubnames
                0x0000e625       0x60 ../../../../lib/32b/libtcpip.a(pppsess.o)
 .debug_pubnames
                0x0000e685       0x8d ../../../../lib/32b/libtcpip.a(ppputil.o)
 .debug_pubnames
                0x0000e712      0x144 ../../../../lib/32b/libtcpip.a(pppauth.o)
 .debug_pubnames
                0x0000e856       0x73 ../../../../lib/32b/libtcpip.a(pppuapi.o)
 .debug_pubnames
                0x0000e8c9      0x233 ../../../../lib/32b/libtcpip.a(dhcpapi.o)
 .debug_pubnames
                0x0000eafc       0x68 ../../../../lib/32b/libtcpip.a(dhcparp.o)
 .debug_pubnames
                0x0000eb64       0x39 ../../../../lib/32b/libtcpip.a(options.o)
 .debug_pubnames
                0x0000eb9d      0x426 ../../../../lib/32b/libtcpip.a(client.o)
 .debug_pubnames
                0x0000efc3      0x241 ../../../../lib/32b/libtcpip.a(pppapi.o)
 .debug_pubnames
                0x0000f204      0x17f ../../../../lib/32b/libtcpip.a(modem.o)
 .debug_pubnames
                0x0000f383       0xe6 ../../../../lib/32b/libtcpip.a(uart_bpool.o)
 .debug_pubnames
                0x0000f469      0x11d ../../../../lib/32b/libtcpip.a(osdep.o)
 .debug_pubnames
                0x0000f586       0x6e ../../../../lib/32b/libtcpip.a(bdoptlib.o)
 .debug_pubnames
                0x0000f5f4      0x113 ../../../../lib/32b/libtcpip.a(bootpapi.o)
 .debug_pubnames
                0x0000f707       0x39 ../../../../lib/32b/libtcpip.a(udpxmit.o)
 .debug_pubnames
                0x0000f740      0x163 ../../../../lib/32b/libtcpip.a(arp.o)
 .debug_pubnames
                0x0000f8a3       0x1f ../../../../lib/32b/libtcpip.a(bind.o)
 .debug_pubnames
                0x0000f8c2       0x22 ../../../../lib/32b/libtcpip.a(connect.o)
 .debug_pubnames
                0x0000f8e4       0x3a ../../../../lib/32b/libtcpip.a(enet.o)
 .debug_pubnames
                0x0000f91e       0x5c ../../../../lib/32b/libtcpip.a(frk.o)
 .debug_pubnames
                0x0000f97a       0x67 ../../../../lib/32b/libtcpip.a(frklk.o)
 .debug_pubnames
                0x0000f9e1       0x21 ../../../../lib/32b/libtcpip.a(fselect.o)
 .debug_pubnames
                0x0000fa02       0x26 ../../../../lib/32b/libtcpip.a(getpeern.o)
 .debug_pubnames
                0x0000fa28       0x26 ../../../../lib/32b/libtcpip.a(getsockn.o)
 .debug_pubnames
                0x0000fa4e       0x36 ../../../../lib/32b/libtcpip.a(inet_add.o)
 .debug_pubnames
                0x0000fa84       0x27 ../../../../lib/32b/libtcpip.a(ip.o)
 .debug_pubnames
                0x0000faab       0x93 ../../../../lib/32b/libtcpip.a(lbdev.o)
 .debug_pubnames
                0x0000fb3e       0x43 ../../../../lib/32b/libtcpip.a(link.o)
 .debug_pubnames
                0x0000fb81       0x21 ../../../../lib/32b/libtcpip.a(listen.o)
 .debug_pubnames
                0x0000fba2       0x2f ../../../../lib/32b/libtcpip.a(node.o)
 .debug_pubnames
                0x0000fbd1       0x3c ../../../../lib/32b/libtcpip.a(nselect.o)
 .debug_pubnames
                0x0000fc0d       0x34 ../../../../lib/32b/libtcpip.a(pioctl.o)
 .debug_pubnames
                0x0000fc41       0x1f ../../../../lib/32b/libtcpip.a(recv.o)
 .debug_pubnames
                0x0000fc60       0x23 ../../../../lib/32b/libtcpip.a(recvfrom.o)
 .debug_pubnames
                0x0000fc83       0x1f ../../../../lib/32b/libtcpip.a(send.o)
 .debug_pubnames
                0x0000fca2       0x21 ../../../../lib/32b/libtcpip.a(sendto.o)
 .debug_pubnames
                0x0000fcc3       0x23 ../../../../lib/32b/libtcpip.a(shutdown.o)
 .debug_pubnames
                0x0000fce6       0x2e ../../../../lib/32b/libtcpip.a(sob.o)
 .debug_pubnames
                0x0000fd14       0x2f ../../../../lib/32b/libtcpip.a(socket.o)
 .debug_pubnames
                0x0000fd43       0x21 ../../../../lib/32b/libtcpip.a(accept.o)
 .debug_pubnames
                0x0000fd64       0x24 ../../../../lib/32b/libtcpip.a(tcpperf.o)
 .debug_pubnames
                0x0000fd88       0x3e ../../../../lib/32b/libtcpip.a(ndq.o)
 .debug_pubnames
                0x0000fdc6       0x22 ../../../../lib/32b/libtcpip.a(strcmpi.o)
 .debug_pubnames
                0x0000fde8       0x20 ../../../../lib/32b/libtcpip.a(inet_pto.o)
 .debug_pubnames
                0x0000fe08       0x7d ../../../../lib/32b/libtcpip.a(res_comp.o)
 .debug_pubnames
                0x0000fe85       0x5f ../../../../lib/32b/libtcpip.a(res_quer.o)
 .debug_pubnames
                0x0000fee4       0x4c ../../../../lib/32b/libtcpip.a(res_send.o)
 .debug_pubnames
                0x0000ff30       0x8e ../../../../lib/32b/libtcpip.a(vjcomp.o)
 .debug_pubnames
                0x0000ffbe       0x5a ../../../../lib/32b/libtcpip.a(pppbs.o)
 .debug_pubnames
                0x00010018      0x27b ../../../../lib/32b/libtcpip.a(pppchap.o)
 .debug_pubnames
                0x00010293       0x2a ../../../../lib/32b/libtcpip.a(ppprecv.o)
 .debug_pubnames
                0x000102bd       0x5d ../../../../lib/32b/libtcpip.a(ppp.o)
 .debug_pubnames
                0x0001031a      0x11e ../../../../lib/32b/libtcpip.a(socketif.o)
 .debug_pubnames
                0x00010438       0x45 ../../../../lib/32b/libtcpip.a(if.o)
 .debug_pubnames
                0x0001047d       0xa9 ../../../../lib/32b/libtcpip.a(uart.o)
 .debug_pubnames
                0x00010526       0x5d ../../../../lib/32b/libtcpip.a(nullmdm.o)
 .debug_pubnames
                0x00010583       0x69 ../../../../lib/32b/libtcpip.a(bootp.o)
 .debug_pubnames
                0x000105ec       0x22 ../../../../lib/32b/libtcpip.a(res_mkqu.o)
 .debug_pubnames
                0x0001060e       0x1f ../../../../lib/32b/gnu/libc.a(assert.o)
 .debug_pubnames
                0x0001062d       0x1c ../../../../lib/32b/gnu/libc.a(bzero.o)
 .debug_pubnames
                0x00010649       0x1a ../../../../lib/32b/gnu/libc.a(div.o)
 .debug_pubnames
                0x00010663       0x1f ../../../../lib/32b/gnu/libc.a(fiprintf.o)
 .debug_pubnames
                0x00010682       0x26 ../../../../lib/32b/gnu/libc.a(libcfunc.o)
 .debug_pubnames
                0x000106a8       0x27 ../../../../lib/32b/gnu/libc.a(puts.o)
 .debug_pubnames
                0x000106cf       0x1c ../../../../lib/32b/gnu/libc.a(sysclose.o)
 .debug_pubnames
                0x000106eb       0x1b ../../../../lib/32b/gnu/libc.a(sysread.o)
 .debug_pubnames
                0x00010706       0x1c ../../../../lib/32b/gnu/libc.a(syswrite.o)
 .debug_pubnames
                0x00010722       0x31 ../../../../lib/32b/gnu/libc.a(vfiprintf.o)
 .debug_pubnames
                0x00010753       0x1e ../../../../lib/32b/gnu/libc.a(wbuf.o)
 .debug_pubnames
                0x00010771      0x1dd ../../../../lib/32b/librphttpd.a(RpForm.o)
 .debug_pubnames
                0x0001094e       0xe6 ../../../../lib/32b/librphttpd.a(RpHtml.o)
 .debug_pubnames
                0x00010a34       0x96 ../../../../lib/32b/librphttpd.a(RpQuery.o)
 .debug_pubnames
                0x00010aca      0x1ee ../../../../lib/32b/librphttpd.a(hserv.o)
 .debug_pubnames
                0x00010cb8       0xf9 ../../../../lib/32b/librphttpd.a(RpHttp.o)
 .debug_pubnames
                0x00010db1       0x3d ../../../../lib/32b/librphttpd.a(RpFrmItm.o)
 .debug_pubnames
                0x00010dee      0x12c ../../../../lib/32b/librphttpd.a(RmSmtp.o)
 .debug_pubnames
                0x00010f1a      0x1df ../../../../lib/32b/librphttpd.a(AsCommon.o)
 .debug_pubnames
                0x000110f9       0x8a ../../../../lib/32b/librphttpd.a(AsDate.o)
 .debug_pubnames
                0x00011183       0x1e ../../../../lib/32b/librphttpd.a(AsGlobal.o)
 .debug_pubnames
                0x000111a1      0x1a0 ../../../../lib/32b/librphttpd.a(AsMain.o)
 .debug_pubnames
                0x00011341       0xbd ../../../../lib/32b/librphttpd.a(AsMimes.o)
 .debug_pubnames
                0x000113fe      0x124 ../../../../lib/32b/librphttpd.a(AsParse.o)
 .debug_pubnames
                0x00011522       0x5c ../../../../lib/32b/librphttpd.a(AsBase64.o)
 .debug_pubnames
                0x0001157e      0x186 ../../../../lib/32b/librphttpd.a(AsConvrt.o)
 .debug_pubnames
                0x00011704       0xc3 ../../../../lib/32b/librphttpd.a(AsVarAcc.o)
 .debug_pubnames
                0x000117c7       0x67 ../../../../lib/32b/librphttpd.a(AsCustom.o)
 .debug_pubnames
                0x0001182e      0x329 ../../../../lib/32b/librphttpd.a(Sfil.o)
 .debug_pubnames
                0x00011b57      0x1d5 ../../../../lib/32b/librphttpd.a(STCP.o)
 .debug_pubnames
                0x00011d2c      0x2b6 ../../../../lib/32b/librphttpd.a(RpAccess.o)
 .debug_pubnames
                0x00011fe2      0x156 ../../../../lib/32b/librphttpd.a(RpData.o)
 .debug_pubnames
                0x00012138       0x4f ../../../../lib/32b/librphttpd.a(RpHttpDy.o)
 .debug_pubnames
                0x00012187       0x26 ../../../../lib/32b/librphttpd.a(RpUser.o)
 .debug_pubnames
                0x000121ad      0x1be ../../../../lib/32b/librphttpd.a(mcfil.o)
 .debug_pubnames
                0x0001236b       0xd4 ../../../../lib/32b/librphttpd.a(RpHttpRq.o)
 .debug_pubnames
                0x0001243f       0xf3 ../../../../lib/32b/librphttpd.a(RpHttpPs.o)
 .debug_pubnames
                0x00012532       0x57 ../../../../lib/32b/librphttpd.a(RpFile.o)
 .debug_pubnames
                0x00012589      0x217 ../../../../lib/32b/librphttpd.a(RmMailer.o)
 .debug_pubnames
                0x000127a0       0x22 ../../../../lib/32b/librphttpd.a(RmData.o)
 .debug_pubnames
                0x000127c2       0xef ../../../../lib/32b/librphttpd.a(PrPop3.o)
 .debug_pubnames
                0x000128b1       0x21 ../../../../lib/32b/librphttpd.a(PrData.o)
 .debug_pubnames
                0x000128d2       0xb5 ../../../../lib/32b/librphttpd.a(maw_main.o)
 .debug_pubnames
                0x00012987       0x1c ../../../../lib/32b/librphttpd.a(AsMD5.o)
 .debug_pubnames
                0x000129a3       0xf8 ../../../../lib/32b/librphttpd.a(Spwd.o)
 .debug_pubnames
                0x00012a9b      0x172 ../../../../lib/32b/librphttpd.a(RpCallBk.o)
 .debug_pubnames
                0x00012c0d       0x60 ../../../../lib/32b/librphttpd.a(RpMulti.o)
 .debug_pubnames
                0x00012c6d       0x80 ../../../../lib/32b/librphttpd.a(RpUrl.o)
 .debug_pubnames
                0x00012ced      0x18c ../../../../lib/32b/librphttpd.a(PrRomPop.o)
 .debug_pubnames
                0x00012e79       0x24 ../../../../lib/32b/libmanMib.a(MibMan.o)
 .debug_pubnames
                0x00012e9d      0x19f ../../../../lib/32b/libmanMib.a(RFC1213_MIB.o)
 .debug_pubnames
                0x0001303c       0x8f ../../../../lib/32b/libmanMib.a(SNMPv2_MIB.o)
 .debug_pubnames
                0x000130cb      0x158 ../../../../lib/32b/libmanMib.a(RFC1213_MIBAction.o)
 .debug_pubnames
                0x00013223       0x39 ../../../../lib/32b/libmanMib.a(SNMPv2_MIBAction.o)
 .debug_pubnames
                0x0001325c      0x1a9 ../../../../lib/32b/libmanMib.a(man_sys.o)
 .debug_pubnames
                0x00013405      0x2c2 ../../../../lib/32b/libmanMib.a(man_if.o)
 .debug_pubnames
                0x000136c7       0xac ../../../../lib/32b/libmanMib.a(man_at.o)
 .debug_pubnames
                0x00013773      0x62a ../../../../lib/32b/libmanMib.a(man_ip.o)
 .debug_pubnames
                0x00013d9d      0x2f5 ../../../../lib/32b/libmanMib.a(man_icmp.o)
 .debug_pubnames
                0x00014092      0x2a2 ../../../../lib/32b/libmanMib.a(man_tcp.o)
 .debug_pubnames
                0x00014334      0x102 ../../../../lib/32b/libmanMib.a(man_upd.o)
 .debug_pubnames
                0x00014436      0x27f ../../../../lib/32b/libmanMib.a(man_egp.o)
 .debug_pubnames
                0x000146b5      0x379 ../../../../lib/32b/libmanMib.a(man_snmp.o)
 .debug_pubnames
                0x00014a2e      0x128 ../../../../lib/32b/libsntp.a(UDPsntp.o)
 .debug_pubnames
                0x00014b56       0x7e ../../../../lib/32b/libfilesys.a(fss.o)
 .debug_pubnames
                0x00014bd4       0x7e ../../../../lib/32b/libfilesys.a(rss.o)
 .debug_pubnames
                0x00014c52       0x51 ../../../../lib/32b/libfilesys.a(crc32h.o)
 .debug_pubnames
                0x00014ca3       0xf6 ../../../../lib/32b/libfilesys.a(bheader.o)
 .debug_pubnames
                0x00014d99      0x28f ../../../../lib/32b/libfilesys.a(fs_api.o)
 .debug_pubnames
                0x00015028      0x2c4 ../../../../lib/32b/libfilesys.a(io.o)
 .debug_pubnames
                0x000152ec       0xef ../../../../lib/32b/libfilesys.a(parser.o)
 .debug_pubnames
                0x000153db      0x475 ../../../../lib/32b/libfilesys.a(ftables.o)
 .debug_pubnames
                0x00015850       0xd2 ../../../../lib/32b/libfilesys.a(thread.o)
 .debug_pubnames
                0x00015922      0x253 ../../../../lib/32b/libfilesys.a(sblock.o)
 .debug_pubnames
                0x00015b75       0xaa ../../../../lib/32b/libfilesys.a(bpool.o)
 .debug_pubnames
                0x00015c1f      0x207 ../../../../lib/32b/libfilesys.a(pwr_loss.o)
 .debug_pubnames
                0x00015e26      0x25f ../../../../lib/32b/libfilesys.a(inode.o)
 .debug_pubnames
                0x00016085      0x13c ../../../../lib/32b/libfilesys.a(services.o)
 .debug_pubnames
                0x000161c1      0x1ed ../../../../lib/32b/libbsp.a(MII.o)
 .debug_pubnames
                0x000163ae       0x39 ../../../../lib/32b/libbsp.a(select_support.o)
 .debug_pubnames
                0x000163e7       0xaf ../../../../lib/32b/libbsp.a(eth_init.o)
 .debug_pubnames
                0x00016496      0x176 ../../../../lib/32b/libbsp.a(eth_dma.o)
 .debug_pubnames
                0x0001660c       0x60 ../../../../lib/32b/libbsp.a(eth_isr.o)
 .debug_pubnames
                0x0001666c       0x55 ../../../../lib/32b/libbsp.a(eth_mcast.o)
 .debug_pubnames
                0x000166c1       0x97 ../../../../lib/32b/libbsp.a(eth_os.o)
 .debug_pubnames
                0x00016758       0x27 ../../../../lib/32b/libbsp.a(eth_recv.o)
 .debug_pubnames
                0x0001677f       0xc1 ../../../../lib/32b/libbsp.a(eth_send.o)
 .debug_pubnames
                0x00016840      0x1e6 ../../../../lib/32b/libbsp.a(eth_stack.o)
 .debug_pubnames
                0x00016a26       0x45 ../../../../lib/32b/libbsp.a(eth_watchdog.o)
 .debug_pubnames
                0x00016a6b       0xbc ../../../../lib/32b/libbsp.a(eth_reset.o)
 .debug_pubnames
                0x00016b27       0x23 ../../../../lib/32b/libtx.a(tx_timeg.o)
 .debug_pubnames
                0x00016b4a       0x2b ../../../../lib/32b/libtx.a(txe_efs.o)
 .debug_pubnames
                0x00016b75       0x34 ../../../../lib/32b/libtx.a(txe_tpch.o)
 .debug_pubnames
                0x00016ba9       0x2d ../../../../lib/32b/libtx.a(txe_trel.o)
 .debug_pubnames
                0x00016bd6       0x2b ../../../../lib/32b/libtx.a(TXE_TIG.o)
 .debug_pubnames
                0x00016c01       0x28 ../../../../lib/32b/libtx.a(TXE_MD.o)
 .debug_pubnames
                0x00016c29       0x2c ../../../../lib/32b/libtx.a(tx_trel.o)
 .debug_pubnames
                0x00016c55       0x33 ../../../../lib/32b/libtx.a(tx_tpch.o)
 .debug_pubnames
                0x00016c88       0x2a ../../../../lib/32b/libtx.a(tx_efs.o)
 .debug_pubnames
                0x00016cb2       0x2a ../../../../lib/32b/libtx.a(TX_TIG.o)
 .debug_pubnames
                0x00016cdc       0x27 ../../../../lib/32b/libtx.a(TX_MD.o)
 .debug_pubnames
                0x00016d03      0x2cc ../../../../lib/32b/libemailc.a(allegro_mailc.o)
 .debug_pubnames
                0x00016fcf       0x23 ../../../../lib/32b/libtcpip.a(udpopen.o)
 .debug_pubnames
                0x00016ff2       0x21 ../../../../lib/32b/libtcpip.a(strcpy.o)
 .debug_pubnames
                0x00017013       0x21 ../../../../lib/32b/libtcpip.a(strlen.o)
 .debug_pubnames
                0x00017034       0x5e ../../../../lib/32b/libtcpip.a(memory.o)
 .debug_pubnames
                0x00017092       0x22 ../../../../lib/32b/libtcpip.a(ipbind.o)
 .debug_pubnames
                0x000170b4       0x1b ../../../../lib/32b/gnu/libc.a(atol.o)
 .debug_pubnames
                0x000170cf       0x25 ../../../../lib/32b/gnu/libc.a(rand.o)
 .debug_pubnames
                0x000170f4       0x1b ../../../../lib/32b/gnu/libc.a(time.o)
 .debug_pubnames
                0x0001710f       0x33 ../../../../lib/32b/gnu/libc.a(timer.o)

.debug_info     0x00000000   0x552576
 *(.debug_info)
 .debug_info    0x00000000     0x303e ./objs/appconf_api.o
 .debug_info    0x0000303e     0x7a8b ./objs/root.o
 .debug_info    0x0000aac9     0x21ad ./objs/MibMan.o
 .debug_info    0x0000cc76     0x5202 ./objs/EARMIB.o
 .debug_info    0x00011e78     0x91c2 ./objs/EARMIBAction.o
 .debug_info    0x0001b03a     0x41d1 ./objs/ipgFlash.o
 .debug_info    0x0001f20b     0x45ee ./objs/telnet.o
 .debug_info    0x000237f9     0x60ae ./objs/menu.o
 .debug_info    0x000298a7     0x5be3 ./objs/ipgsnmp.o
 .debug_info    0x0002f48a     0x5066 ./objs/earTemperatureAlarmThreshold.o
 .debug_info    0x000344f0     0x5177 ./objs/earSnmpMngrTable.o
 .debug_info    0x00039667     0x4ffa ./objs/earTrapPort.o
 .debug_info    0x0003e661     0x4f5d ./objs/earPumpsOff.o
 .debug_info    0x000435be     0x2e3f ./objs/earChassisReboot.o
 .debug_info    0x000463fd     0x38cc ./objs/earModelNumberRead.o
 .debug_info    0x00049cc9     0x5019 ./objs/earRtcTime.o
 .debug_info    0x0004ece2       0xcf ./objs/find_highwater.o
 .debug_info    0x0004edb1     0x4b95 ./objs/readFrom2U2.o
 .debug_info    0x00053946     0x4828 ./objs/semaphores.o
 .debug_info    0x0005816e     0x3f58 ./objs/Snmp_api.o
 .debug_info    0x0005c0c6     0x508c ./objs/configNotification.o
 .debug_info    0x00061152     0x179c ./objs/atmel.o
 .debug_info    0x000628ee     0x4097 ./objs/EDFAWelcomePage.o
 .debug_info    0x00066985     0x7048 ./objs/EDFAWelcomePage_v.o
 .debug_info    0x0006d9cd     0x1a8d ./objs/RpPages.o
 .debug_info    0x0006f45a     0x2827 ./objs/security.o
 .debug_info    0x00071c81     0x19f6 ./objs/RpUsrDct.o
 .debug_info    0x00073677     0x1c47 ./objs/cgi.o
 .debug_info    0x000752be     0x1cc1 ./objs/file.o
 .debug_info    0x00076f7f     0x23b1 ./objs/naftpapp.o
 .debug_info    0x00079330      0x6db /usr/lib/gcc-lib/arm-elf/3.2/be/libgcc.a(_addsub_sf.o)
 .debug_info    0x00079a0b      0x62e /usr/lib/gcc-lib/arm-elf/3.2/be/libgcc.a(_div_sf.o)
 .debug_info    0x0007a039      0x49a /usr/lib/gcc-lib/arm-elf/3.2/be/libgcc.a(_si_to_sf.o)
 .debug_info    0x0007a4d3      0x4af /usr/lib/gcc-lib/arm-elf/3.2/be/libgcc.a(_sf_to_df.o)
 .debug_info    0x0007a982      0x45f /usr/lib/gcc-lib/arm-elf/3.2/be/libgcc.a(_thenan_sf.o)
 .debug_info    0x0007ade1      0x640 /usr/lib/gcc-lib/arm-elf/3.2/be/libgcc.a(_div_df.o)
 .debug_info    0x0007b421      0x4d8 /usr/lib/gcc-lib/arm-elf/3.2/be/libgcc.a(_make_df.o)
 .debug_info    0x0007b8f9      0x4d1 /usr/lib/gcc-lib/arm-elf/3.2/be/libgcc.a(_df_to_sf.o)
 .debug_info    0x0007bdca      0x46b /usr/lib/gcc-lib/arm-elf/3.2/be/libgcc.a(_thenan_df.o)
 .debug_info    0x0007c235      0x585 /usr/lib/gcc-lib/arm-elf/3.2/be/libgcc.a(_pack_sf.o)
 .debug_info    0x0007c7ba      0x4c5 /usr/lib/gcc-lib/arm-elf/3.2/be/libgcc.a(_unpack_sf.o)
 .debug_info    0x0007cc7f      0x4cb /usr/lib/gcc-lib/arm-elf/3.2/be/libgcc.a(_make_sf.o)
 .debug_info    0x0007d14a      0x597 /usr/lib/gcc-lib/arm-elf/3.2/be/libgcc.a(_pack_df.o)
 .debug_info    0x0007d6e1      0x4d1 /usr/lib/gcc-lib/arm-elf/3.2/be/libgcc.a(_unpack_df.o)
 .debug_info    0x0007dbb2      0x653 /usr/lib/gcc-lib/arm-elf/3.2/be/libgcc.a(_lshrdi3.o)
 .debug_info    0x0007e205      0x659 /usr/lib/gcc-lib/arm-elf/3.2/be/libgcc.a(_ashldi3.o)
 .debug_info    0x0007e85e      0x981 ../../../../lib/32b/gnu/libc.a(atof.o)
 .debug_info    0x0007f1df      0x97a ../../../../lib/32b/gnu/libc.a(atoi.o)
 .debug_info    0x0007fb59      0x99c ../../../../lib/32b/gnu/libc.a(calloc.o)
 .debug_info    0x000804f5      0xcd9 ../../../../lib/32b/gnu/libc.a(callocr.o)
 .debug_info    0x000811ce      0xbaa ../../../../lib/32b/gnu/libc.a(exit.o)
 .debug_info    0x00081d78      0xb81 ../../../../lib/32b/gnu/libc.a(fflush.o)
 .debug_info    0x000828f9      0xf97 ../../../../lib/32b/gnu/libc.a(findfp.o)
 .debug_info    0x00083890      0xc0b ../../../../lib/32b/gnu/libc.a(fwalk.o)
 .debug_info    0x0008449b      0x94e ../../../../lib/32b/gnu/libc.a(impure.o)
 .debug_info    0x00084de9       0x7d ../../../../lib/32b/gnu/libc.a(isdigit.o)
 .debug_info    0x00084e66       0x7d ../../../../lib/32b/gnu/libc.a(isspace.o)
 .debug_info    0x00084ee3      0xbc8 ../../../../lib/32b/gnu/libc.a(lcltime.o)
 .debug_info    0x00085aab      0xc20 ../../../../lib/32b/gnu/libc.a(lcltime_r.o)
 .debug_info    0x000866cb      0xa93 ../../../../lib/32b/gnu/libc.a(malloc.o)
 .debug_info    0x0008715e      0xe81 ../../../../lib/32b/gnu/libc.a(mallocr.o)
 .debug_info    0x00087fdf      0x96a ../../../../lib/32b/gnu/libc.a(memcmp.o)
 .debug_info    0x00088949      0x11a ../../../../lib/32b/gnu/libc.a(memcpy.o)
 .debug_info    0x00088a63      0x96a ../../../../lib/32b/gnu/libc.a(memset.o)
 .debug_info    0x000893cd      0xe8c ../../../../lib/32b/gnu/libc.a(mktm_r.o)
 .debug_info    0x0008a259      0x9e8 ../../../../lib/32b/gnu/libc.a(mlock.o)
 .debug_info    0x0008ac41      0xbc1 ../../../../lib/32b/gnu/libc.a(printf.o)
 .debug_info    0x0008b802      0xb52 ../../../../lib/32b/gnu/libc.a(rget.o)
 .debug_info    0x0008c354      0xb61 ../../../../lib/32b/gnu/libc.a(sbrkr.o)
 .debug_info    0x0008ceb5      0xc16 ../../../../lib/32b/gnu/libc.a(snprintf.o)
 .debug_info    0x0008dacb      0xc02 ../../../../lib/32b/gnu/libc.a(sprintf.o)
 .debug_info    0x0008e6cd      0xc47 ../../../../lib/32b/gnu/libc.a(sscanf.o)
 .debug_info    0x0008f314      0xf08 ../../../../lib/32b/gnu/libc.a(stdio.o)
 .debug_info    0x0009021c      0x943 ../../../../lib/32b/gnu/libc.a(strcat.o)
 .debug_info    0x00090b5f      0x966 ../../../../lib/32b/gnu/libc.a(strchr.o)
 .debug_info    0x000914c5      0x939 ../../../../lib/32b/gnu/libc.a(strcmp.o)
 .debug_info    0x00091dfe      0x962 ../../../../lib/32b/gnu/libc.a(strcpy.o)
 .debug_info    0x00092760      0x937 ../../../../lib/32b/gnu/libc.a(strlen.o)
 .debug_info    0x00093097      0x94b ../../../../lib/32b/gnu/libc.a(strncmp.o)
 .debug_info    0x000939e2      0x976 ../../../../lib/32b/gnu/libc.a(strncpy.o)
 .debug_info    0x00094358      0x939 ../../../../lib/32b/gnu/libc.a(strstr.o)
 .debug_info    0x00094c91     0x1242 ../../../../lib/32b/gnu/libc.a(strtod.o)
 .debug_info    0x00095ed3      0x96d ../../../../lib/32b/gnu/libc.a(strtok.o)
 .debug_info    0x00096840      0x9b8 ../../../../lib/32b/gnu/libc.a(strtok_r.o)
 .debug_info    0x000971f8      0xabd ../../../../lib/32b/gnu/libc.a(strtol.o)
 .debug_info    0x00097cb5      0xc27 ../../../../lib/32b/gnu/libc.a(tzlock.o)
 .debug_info    0x000988dc      0xe7d ../../../../lib/32b/gnu/libc.a(tzset_r.o)
 .debug_info    0x00099759     0x170c ../../../../lib/32b/gnu/libc.a(vfprintf.o)
 .debug_info    0x0009ae65     0x102d ../../../../lib/32b/gnu/libc.a(vfscanf.o)
 .debug_info    0x0009be92      0xb74 ../../../../lib/32b/gnu/libc.a(writer.o)
 .debug_info    0x0009ca06      0xbc0 ../../../../lib/32b/gnu/libc.a(wsetup.o)
 .debug_info    0x0009d5c6     0x1f53 ../../../../lib/32b/gnu/libc.a(syscalls.o)
 .debug_info    0x0009f519      0xb45 ../../../../lib/32b/gnu/libc.a(closer.o)
 .debug_info    0x000a005e       0x79 ../../../../lib/32b/gnu/libc.a(ctype_.o)
 .debug_info    0x000a00d7     0x12e8 ../../../../lib/32b/gnu/libc.a(dtoa.o)
 .debug_info    0x000a13bf      0x961 ../../../../lib/32b/gnu/libc.a(errno.o)
 .debug_info    0x000a1d20      0xbb0 ../../../../lib/32b/gnu/libc.a(fread.o)
 .debug_info    0x000a28d0      0xdc1 ../../../../lib/32b/gnu/libc.a(freer.o)
 .debug_info    0x000a3691      0xcca ../../../../lib/32b/gnu/libc.a(fvwrite.o)
 .debug_info    0x000a435b      0xa56 ../../../../lib/32b/gnu/libc.a(getenv_r.o)
 .debug_info    0x000a4db1      0xbae ../../../../lib/32b/gnu/libc.a(locale.o)
 .debug_info    0x000a595f      0xb6d ../../../../lib/32b/gnu/libc.a(lseekr.o)
 .debug_info    0x000a64cc      0xda8 ../../../../lib/32b/gnu/libc.a(makebuf.o)
 .debug_info    0x000a7274      0xaf0 ../../../../lib/32b/gnu/libc.a(mbtowc_r.o)
 .debug_info    0x000a7d64      0x991 ../../../../lib/32b/gnu/libc.a(memchr.o)
 .debug_info    0x000a86f5      0x9a1 ../../../../lib/32b/gnu/libc.a(memmove.o)
 .debug_info    0x000a9096     0x17fe ../../../../lib/32b/gnu/libc.a(mprec.o)
 .debug_info    0x000aa894      0xb6d ../../../../lib/32b/gnu/libc.a(readr.o)
 .debug_info    0x000ab401      0xe43 ../../../../lib/32b/gnu/libc.a(reallocr.o)
 .debug_info    0x000ac244      0xaa5 ../../../../lib/32b/gnu/libc.a(reent.o)
 .debug_info    0x000acce9      0xbe6 ../../../../lib/32b/gnu/libc.a(refill.o)
 .debug_info    0x000ad8cf      0xc76 ../../../../lib/32b/gnu/libc.a(s_infconst.o)
 .debug_info    0x000ae545      0xc8e ../../../../lib/32b/gnu/libc.a(s_isinf.o)
 .debug_info    0x000af1d3      0xc8e ../../../../lib/32b/gnu/libc.a(s_isnan.o)
 .debug_info    0x000afe61      0x9d4 ../../../../lib/32b/gnu/libc.a(setenv.o)
 .debug_info    0x000b0835      0xd17 ../../../../lib/32b/gnu/libc.a(setenv_r.o)
 .debug_info    0x000b154c      0xabd ../../../../lib/32b/gnu/libc.a(strtoul.o)
 .debug_info    0x000b2009      0xdfb ../../../../lib/32b/gnu/libc.a(sysopen.o)
 .debug_info    0x000b2e04      0xc12 ../../../../lib/32b/gnu/libc.a(tzset.o)
 .debug_info    0x000b3a16      0xc08 ../../../../lib/32b/gnu/libc.a(ungetc.o)
 .debug_info    0x000b461e      0x932 ../../../../lib/32b/gnu/libc.a(bcopy.o)
 .debug_info    0x000b4f50       0x73 ../../../../lib/32b/gnu/libc.a(environ.o)
 .debug_info    0x000b4fc3      0x926 ../../../../lib/32b/gnu/libc.a(envlock.o)
 .debug_info    0x000b58e9      0xd18 ../../../../lib/32b/gnu/libc.a(fstatr.o)
 .debug_info    0x000b6601      0xb0a /usr/lib/gcc-lib/arm-elf/3.2/be/libgcc.a(_udivdi3.o)
 .debug_info    0x000b710b      0xb17 /usr/lib/gcc-lib/arm-elf/3.2/be/libgcc.a(_umoddi3.o)
 .debug_info    0x000b7c22      0x6eb /usr/lib/gcc-lib/arm-elf/3.2/be/libgcc.a(_addsub_df.o)
 .debug_info    0x000b830d      0x726 /usr/lib/gcc-lib/arm-elf/3.2/be/libgcc.a(_mul_df.o)
 .debug_info    0x000b8a33      0x51b /usr/lib/gcc-lib/arm-elf/3.2/be/libgcc.a(_eq_df.o)
 .debug_info    0x000b8f4e      0x51b /usr/lib/gcc-lib/arm-elf/3.2/be/libgcc.a(_ne_df.o)
 .debug_info    0x000b9469      0x51b /usr/lib/gcc-lib/arm-elf/3.2/be/libgcc.a(_gt_df.o)
 .debug_info    0x000b9984      0x51b /usr/lib/gcc-lib/arm-elf/3.2/be/libgcc.a(_ge_df.o)
 .debug_info    0x000b9e9f      0x51b /usr/lib/gcc-lib/arm-elf/3.2/be/libgcc.a(_lt_df.o)
 .debug_info    0x000ba3ba      0x51b /usr/lib/gcc-lib/arm-elf/3.2/be/libgcc.a(_le_df.o)
 .debug_info    0x000ba8d5      0x4a6 /usr/lib/gcc-lib/arm-elf/3.2/be/libgcc.a(_si_to_df.o)
 .debug_info    0x000bad7b      0x567 /usr/lib/gcc-lib/arm-elf/3.2/be/libgcc.a(_df_to_si.o)
 .debug_info    0x000bb2e2      0x4e4 /usr/lib/gcc-lib/arm-elf/3.2/be/libgcc.a(_negate_df.o)
 .debug_info    0x000bb7c6      0x614 /usr/lib/gcc-lib/arm-elf/3.2/be/libgcc.a(_clz.o)
 .debug_info    0x000bbdda      0x543 /usr/lib/gcc-lib/arm-elf/3.2/be/libgcc.a(_fpcmp_parts_df.o)
 .debug_info    0x000bc31d     0x1895 ../../../../lib/32b/libbsp.a(bsp_api.o)
 .debug_info    0x000bdbb2     0x2c33 ../../../../lib/32b/libbsp.a(nainet.o)
 .debug_info    0x000c07e5     0x2cde ../../../../lib/32b/libbsp.a(main.o)
 .debug_info    0x000c34c3     0x2ea2 ../../../../lib/32b/libbsp.a(errhndlr.o)
 .debug_info    0x000c6365     0x2e59 ../../../../lib/32b/libbsp.a(narmbrd.o)
 .debug_info    0x000c91be     0x181d ../../../../lib/32b/libbsp.a(narmled.o)
 .debug_info    0x000ca9db     0x191d ../../../../lib/32b/libbsp.a(devices.o)
 .debug_info    0x000cc2f8     0x1aa8 ../../../../lib/32b/libbsp.a(flashnvrm.o)
 .debug_info    0x000cdda0     0x103c ../../../../lib/32b/libbsp.a(sysAccess.o)
 .debug_info    0x000ceddc     0x1ee0 ../../../../lib/32b/libbsp.a(lpbkdev.o)
 .debug_info    0x000d0cbc     0x187d ../../../../lib/32b/libbsp.a(nuldev.o)
 .debug_info    0x000d2539     0x1918 ../../../../lib/32b/libbsp.a(nacache.o)
 .debug_info    0x000d3e51     0x1d3c ../../../../lib/32b/libbsp.a(NCC_INIT.o)
 .debug_info    0x000d5b8d     0x1a58 ../../../../lib/32b/libbsp.a(NCC_POST.o)
 .debug_info    0x000d75e5      0x4b4 ../../../../lib/32b/libbsp.a(IRQREG.o)
 .debug_info    0x000d7a99     0x1a9f ../../../../lib/32b/libbsp.a(gpio.o)
 .debug_info    0x000d9538     0x2f20 ../../../../lib/32b/libbsp.a(cs.o)
 .debug_info    0x000dc458     0x358a ../../../../lib/32b/libbsp.a(boardParams.o)
 .debug_info    0x000df9e2     0x16ee ../../../../lib/32b/libbsp.a(nawait.o)
 .debug_info    0x000e10d0      0x2e9 ../../../../lib/32b/libbsp.a(nareset.o)
 .debug_info    0x000e13b9     0x300c ../../../../lib/32b/libbsp.a(startfilesystem.o)
 .debug_info    0x000e43c5     0x123e ../../../../lib/32b/libbsp.a(fbanks.o)
 .debug_info    0x000e5603     0x214d ../../../../lib/32b/libbsp.a(rtc.o)
 .debug_info    0x000e7750      0x73b ../../../../lib/32b/libbsp.a(termios.o)
 .debug_info    0x000e7e8b     0x3b25 ../../../../lib/32b/libbsp.a(netos_serl.o)
 .debug_info    0x000eb9b0     0x18da ../../../../lib/32b/libbsp.a(NA_ISR.o)
 .debug_info    0x000ed28a      0x46f ../../../../lib/32b/libbsp.a(crc32h.o)
 .debug_info    0x000ed6f9     0x23cf ../../../../lib/32b/libbsp.a(udpdb.o)
 .debug_info    0x000efac8      0xe81 ../../../../lib/32b/libbsp.a(bsp.o)
 .debug_info    0x000f0949     0x390c ../../../../lib/32b/libbsp.a(bsproot.o)
 .debug_info    0x000f4255     0x4bfd ../../../../lib/32b/libbsp.a(starttcp.o)
 .debug_info    0x000f8e52     0x178c ../../../../lib/32b/libbsp.a(bsptimer.o)
 .debug_info    0x000fa5de      0xd1e ../../../../lib/32b/libbsp.a(sysClock.o)
 .debug_info    0x000fb2fc     0x2ef4 ../../../../lib/32b/libbsp.a(hdlcdvr.o)
 .debug_info    0x000fe1f0     0x35a7 ../../../../lib/32b/libbsp.a(aceParams.o)
 .debug_info    0x00101797     0x4808 ../../../../lib/32b/libbsp.a(aceCallbacks.o)
 .debug_info    0x00105f9f     0x2d47 ../../../../lib/32b/libbsp.a(naip_global.o)
 .debug_info    0x00108ce6     0x424f ../../../../lib/32b/libbsp.a(naifconfig.o)
 .debug_info    0x0010cf35     0x35ef ../../../../lib/32b/libbsp.a(dialog.o)
 .debug_info    0x00110524      0xc1d ../../../../lib/32b/libbsp.a(flashutil.o)
 .debug_info    0x00111141     0x1a75 ../../../../lib/32b/libbsp.a(event_handler.o)
 .debug_info    0x00112bb6     0x2153 ../../../../lib/32b/libbsp.a(hdlcmem.o)
 .debug_info    0x00114d09     0x2629 ../../../../lib/32b/libflash.a(naflash.o)
 .debug_info    0x00117332      0xdae ../../../../lib/32b/libflash.a(naflsem.o)
 .debug_info    0x001180e0     0x16c7 ../../../../lib/32b/libposix.a(posix_semaphore.o)
 .debug_info    0x001197a7     0x1f8b ../../../../lib/32b/libposix.a(posix_thread.o)
 .debug_info    0x0011b732      0xa16 ../../../../lib/32b/libtx.a(tx_ike.o)
 .debug_info    0x0011c148     0x1390 ../../../../lib/32b/libtx.a(tx_timi.o)
 .debug_info    0x0011d4d8     0x13ed ../../../../lib/32b/libtx.a(tx_ti.o)
 .debug_info    0x0011e8c5     0x13bd ../../../../lib/32b/libtx.a(tx_tc.o)
 .debug_info    0x0011fc82      0xaed ../../../../lib/32b/libtx.a(tx_tr.o)
 .debug_info    0x0012076f      0xba4 ../../../../lib/32b/libtx.a(tx_tte.o)
 .debug_info    0x00121313      0xa8c ../../../../lib/32b/libtx.a(tx_ta.o)
 .debug_info    0x00121d9f      0xa9b ../../../../lib/32b/libtx.a(tx_tto.o)
 .debug_info    0x0012283a      0xa71 ../../../../lib/32b/libtx.a(tx_tsle.o)
 .debug_info    0x001232ab      0x9f5 ../../../../lib/32b/libtx.a(tx_tide.o)
 .debug_info    0x00123ca0      0xb32 ../../../../lib/32b/libtx.a(tx_gnu.o)
 .debug_info    0x001247d2      0xa4a ../../../../lib/32b/libtx.a(txe_efc.o)
 .debug_info    0x0012521c      0xa6d ../../../../lib/32b/libtx.a(txe_efg.o)
 .debug_info    0x00125c89      0xa74 ../../../../lib/32b/libtx.a(txe_qc.o)
 .debug_info    0x001266fd      0xa4b ../../../../lib/32b/libtx.a(txe_qr.o)
 .debug_info    0x00127148      0xa4b ../../../../lib/32b/libtx.a(txe_qs.o)
 .debug_info    0x00127b93      0xa58 ../../../../lib/32b/libtx.a(txe_sc.o)
 .debug_info    0x001285eb      0xa2f ../../../../lib/32b/libtx.a(txe_sd.o)
 .debug_info    0x0012901a      0xa3d ../../../../lib/32b/libtx.a(txe_sg.o)
 .debug_info    0x00129a57      0xa08 ../../../../lib/32b/libtx.a(txe_sp.o)
 .debug_info    0x0012a45f      0xaba ../../../../lib/32b/libtx.a(txe_tc.o)
 .debug_info    0x0012af19      0xa22 ../../../../lib/32b/libtx.a(txe_tdel.o)
 .debug_info    0x0012b93b      0xa44 ../../../../lib/32b/libtx.a(txe_trpc.o)
 .debug_info    0x0012c37f      0xa08 ../../../../lib/32b/libtx.a(txe_tra.o)
 .debug_info    0x0012cd87      0xa22 ../../../../lib/32b/libtx.a(txe_tsa.o)
 .debug_info    0x0012d7a9      0xa22 ../../../../lib/32b/libtx.a(txe_tt.o)
 .debug_info    0x0012e1cb      0xa08 ../../../../lib/32b/libtx.a(txe_taa.o)
 .debug_info    0x0012ebd3      0xa31 ../../../../lib/32b/libtx.a(txe_tmch.o)
 .debug_info    0x0012f604      0xa90 ../../../../lib/32b/libtx.a(txe_tmcr.o)
 .debug_info    0x00130094      0xa08 ../../../../lib/32b/libtx.a(txe_tda.o)
 .debug_info    0x00130a9c      0xa2f ../../../../lib/32b/libtx.a(txe_timd.o)
 .debug_info    0x001314cb      0xa8e ../../../../lib/32b/libtx.a(TX_MC.o)
 .debug_info    0x00131f59      0xa9e ../../../../lib/32b/libtx.a(TX_MG.o)
 .debug_info    0x001329f7      0xb70 ../../../../lib/32b/libtx.a(TX_MP.o)
 .debug_info    0x00133567      0xa59 ../../../../lib/32b/libtx.a(TX_MPRI.o)
 .debug_info    0x00133fc0      0xb1e ../../../../lib/32b/libtx.a(TX_MPC.o)
 .debug_info    0x00134ade      0xaa9 ../../../../lib/32b/libtx.a(TX_MCLE.o)
 .debug_info    0x00135587      0xa58 ../../../../lib/32b/libtx.a(TXE_MC.o)
 .debug_info    0x00135fdf      0xa3d ../../../../lib/32b/libtx.a(TXE_MG.o)
 .debug_info    0x00136a1c      0xa08 ../../../../lib/32b/libtx.a(TXE_MP.o)
 .debug_info    0x00137424      0xabc ../../../../lib/32b/libtx.a(tx_ihl.o)
 .debug_info    0x00137ee0      0xa45 ../../../../lib/32b/libtx.a(tx_tse.o)
 .debug_info    0x00138925      0xb50 ../../../../lib/32b/libtx.a(tx_tsus.o)
 .debug_info    0x00139475      0xa91 ../../../../lib/32b/libtx.a(tx_tsa.o)
 .debug_info    0x00139f06      0xa91 ../../../../lib/32b/libtx.a(tx_tra.o)
 .debug_info    0x0013a997      0xa9d ../../../../lib/32b/libtx.a(tx_tts.o)
 .debug_info    0x0013b434      0xa65 ../../../../lib/32b/libtx.a(tx_tdel.o)
 .debug_info    0x0013be99      0xb43 ../../../../lib/32b/libtx.a(tx_tprch.o)
 .debug_info    0x0013c9dc      0xa91 ../../../../lib/32b/libtx.a(tx_tt.o)
 .debug_info    0x0013d46d      0xa43 ../../../../lib/32b/libtx.a(tx_td.o)
 .debug_info    0x0013deb0      0xac6 ../../../../lib/32b/libtx.a(tx_timcr.o)
 .debug_info    0x0013e976      0x9fb ../../../../lib/32b/libtx.a(tx_taa.o)
 .debug_info    0x0013f371      0xa8c ../../../../lib/32b/libtx.a(tx_tda.o)
 .debug_info    0x0013fdfd      0xa59 ../../../../lib/32b/libtx.a(tx_timch.o)
 .debug_info    0x00140856      0xa57 ../../../../lib/32b/libtx.a(tx_timd.o)
 .debug_info    0x001412ad      0xa8e ../../../../lib/32b/libtx.a(tx_sc.o)
 .debug_info    0x00141d3b      0xafd ../../../../lib/32b/libtx.a(tx_sd.o)
 .debug_info    0x00142838      0xa9e ../../../../lib/32b/libtx.a(tx_sg.o)
 .debug_info    0x001432d6      0xa75 ../../../../lib/32b/libtx.a(tx_sp.o)
 .debug_info    0x00143d4b      0xaa9 ../../../../lib/32b/libtx.a(tx_scle.o)
 .debug_info    0x001447f4      0xac6 ../../../../lib/32b/libtx.a(tx_qc.o)
 .debug_info    0x001452ba      0xaec ../../../../lib/32b/libtx.a(tx_qs.o)
 .debug_info    0x00145da6      0xb25 ../../../../lib/32b/libtx.a(tx_qr.o)
 .debug_info    0x001468cb      0xaa9 ../../../../lib/32b/libtx.a(tx_qcle.o)
 .debug_info    0x00147374      0xa80 ../../../../lib/32b/libtx.a(tx_efc.o)
 .debug_info    0x00147df4      0xacf ../../../../lib/32b/libtx.a(tx_efg.o)
 .debug_info    0x001488c3      0xaa9 ../../../../lib/32b/libtx.a(tx_efcle.o)
 .debug_info    0x0014936c     0x21bf ../../../../lib/32b/libmanapi.a(man_env.o)
 .debug_info    0x0014b52b     0x207e ../../../../lib/32b/libmanapi.a(man_init.o)
 .debug_info    0x0014d5a9      0x245 ../../../../lib/32b/libmanapi.a(hash.o)
 .debug_info    0x0014d7ee     0x22be ../../../../lib/32b/libmanapi.a(man_row.o)
 .debug_info    0x0014faac     0x1f37 ../../../../lib/32b/libmanapi.a(man_main.o)
 .debug_info    0x001519e3     0x2a16 ../../../../lib/32b/libftpsvr.a(ftposp.o)
 .debug_info    0x001543f9     0x3daa ../../../../lib/32b/libftpsvr.a(ftpsvr.o)
 .debug_info    0x001581a3     0x31e0 ../../../../lib/32b/libtelnsvr.a(ts_mod.o)
 .debug_info    0x0015b383     0x3bc9 ../../../../lib/32b/libtelnsvr.a(telnetd2.o)
 .debug_info    0x0015ef4c      0x12d ../../../../lib/32b/libtelnsvr.a(fsminit.o)
 .debug_info    0x0015f079      0xb29 ../../../../lib/32b/libtelnsvr.a(ttfsm.o)
 .debug_info    0x0015fba2     0x2696 ../../../../lib/32b/libtelnsvr.a(ttgetc.o)
 .debug_info    0x00162238     0x130c ../../../../lib/32b/libtelnsvr.a(will_not.o)
 .debug_info    0x00163544     0x1d46 ../../../../lib/32b/libtelnsvr.a(do_echo.o)
 .debug_info    0x0016528a     0x1d46 ../../../../lib/32b/libtelnsvr.a(do_noga.o)
 .debug_info    0x00166fd0     0x1d02 ../../../../lib/32b/libtelnsvr.a(do_notsu.o)
 .debug_info    0x00168cd2     0x1d46 ../../../../lib/32b/libtelnsvr.a(do_txbin.o)
 .debug_info    0x0016aa18     0x1304 ../../../../lib/32b/libtelnsvr.a(tcga.o)
 .debug_info    0x0016bd1c     0x1328 ../../../../lib/32b/libtelnsvr.a(recopt.o)
 .debug_info    0x0016d044     0x493d ../../../../lib/32b/libdnsclnt.a(dnsc_api.o)
 .debug_info    0x00171981     0x3b49 ../../../../lib/32b/libfastip.a(fast_ip.o)
 .debug_info    0x001754ca     0x5712 ../../../../lib/32b/libtcpip.a(ace.o)
 .debug_info    0x0017abdc     0x4ba1 ../../../../lib/32b/libtcpip.a(ace_os.o)
 .debug_info    0x0017f77d     0x5344 ../../../../lib/32b/libtcpip.a(ace_dhcp.o)
 .debug_info    0x00184ac1     0x5150 ../../../../lib/32b/libtcpip.a(ace_bootp.o)
 .debug_info    0x00189c11     0x5410 ../../../../lib/32b/libtcpip.a(ace_autoip.o)
 .debug_info    0x0018f021     0x2000 ../../../../lib/32b/libtcpip.a(ace_static.o)
 .debug_info    0x00191021     0x53c4 ../../../../lib/32b/libtcpip.a(ace_rarp.o)
 .debug_info    0x001963e5     0x53b3 ../../../../lib/32b/libtcpip.a(ace_pingarp.o)
 .debug_info    0x0019b798     0x6b15 ../../../../lib/32b/libtcpip.a(fnsrr.o)
 .debug_info    0x001a22ad     0x44d7 ../../../../lib/32b/libtcpip.a(heap.o)
 .debug_info    0x001a6784     0x6b6f ../../../../lib/32b/libtcpip.a(icmp.o)
 .debug_info    0x001ad2f3     0x1970 ../../../../lib/32b/libtcpip.a(ipclassm.o)
 .debug_info    0x001aec63     0x4556 ../../../../lib/32b/libtcpip.a(ipcomm.o)
 .debug_info    0x001b31b9     0x4913 ../../../../lib/32b/libtcpip.a(ipfrag.o)
 .debug_info    0x001b7acc     0x48fb ../../../../lib/32b/libtcpip.a(ipmisc.o)
 .debug_info    0x001bc3c7     0x64cf ../../../../lib/32b/libtcpip.a(ipnetd.o)
 .debug_info    0x001c2896     0x487f ../../../../lib/32b/libtcpip.a(ipopt.o)
 .debug_info    0x001c7115     0x4894 ../../../../lib/32b/libtcpip.a(ipxmit.o)
 .debug_info    0x001cb9a9     0x1893 ../../../../lib/32b/libtcpip.a(lkheap.o)
 .debug_info    0x001cd23c     0x7157 ../../../../lib/32b/libtcpip.a(llconfig.o)
 .debug_info    0x001d4393     0x47ff ../../../../lib/32b/libtcpip.a(m.o)
 .debug_info    0x001d8b92     0x152e ../../../../lib/32b/libtcpip.a(md.o)
 .debug_info    0x001da0c0      0x26d ../../../../lib/32b/libtcpip.a(md5.o)
 .debug_info    0x001da32d     0x468c ../../../../lib/32b/libtcpip.a(msm.o)
 .debug_info    0x001de9b9     0x50e8 ../../../../lib/32b/libtcpip.a(ncaf.o)
 .debug_info    0x001e3aa1     0x44d6 ../../../../lib/32b/libtcpip.a(naadddev.o)
 .debug_info    0x001e7f77     0x689e ../../../../lib/32b/libtcpip.a(ncdev.o)
 .debug_info    0x001ee815     0x46e9 ../../../../lib/32b/libtcpip.a(ncdid.o)
 .debug_info    0x001f2efe     0x65db ../../../../lib/32b/libtcpip.a(ncmisc.o)
 .debug_info    0x001f94d9     0x56a8 ../../../../lib/32b/libtcpip.a(ncpr.o)
 .debug_info    0x001feb81     0x4bce ../../../../lib/32b/libtcpip.a(q.o)
 .debug_info    0x0020374f     0x19b8 ../../../../lib/32b/libtcpip.a(secure.o)
 .debug_info    0x00205107     0x47aa ../../../../lib/32b/libtcpip.a(select.o)
 .debug_info    0x002098b1     0x4ced ../../../../lib/32b/libtcpip.a(sock.o)
 .debug_info    0x0020e59e     0x445f ../../../../lib/32b/libtcpip.a(sop.o)
 .debug_info    0x002129fd     0x463f ../../../../lib/32b/libtcpip.a(timer.o)
 .debug_info    0x0021703c     0x44a5 ../../../../lib/32b/libtcpip.a(twq.o)
 .debug_info    0x0021b4e1     0x46b3 ../../../../lib/32b/libtcpip.a(udpnetd.o)
 .debug_info    0x0021fb94     0x4468 ../../../../lib/32b/libtcpip.a(udpopt.o)
 .debug_info    0x00223ffc     0x4624 ../../../../lib/32b/libtcpip.a(udpsock.o)
 .debug_info    0x00228620     0x46d2 ../../../../lib/32b/libtcpip.a(tcpxmit.o)
 .debug_info    0x0022ccf2     0x56b9 ../../../../lib/32b/libtcpip.a(tcpnetd.o)
 .debug_info    0x002323ab     0x4974 ../../../../lib/32b/libtcpip.a(tcpsend.o)
 .debug_info    0x00236d1f     0x540e ../../../../lib/32b/libtcpip.a(tcpsock.o)
 .debug_info    0x0023c12d     0x51e3 ../../../../lib/32b/libtcpip.a(tcpmisc.o)
 .debug_info    0x00241310     0x44ef ../../../../lib/32b/libtcpip.a(tcptrans.o)
 .debug_info    0x002457ff     0x4439 ../../../../lib/32b/libtcpip.a(tcpimpco.o)
 .debug_info    0x00249c38     0x4a95 ../../../../lib/32b/libtcpip.a(igmp.o)
 .debug_info    0x0024e6cd     0x4acb ../../../../lib/32b/libtcpip.a(socketopt.o)
 .debug_info    0x00253198     0x2f1f ../../../../lib/32b/libtcpip.a(sockapi.o)
 .debug_info    0x002560b7     0x6909 ../../../../lib/32b/libtcpip.a(autoip.o)
 .debug_info    0x0025c9c0     0x3758 ../../../../lib/32b/libtcpip.a(rricirc.o)
 .debug_info    0x00260118     0x4790 ../../../../lib/32b/libtcpip.a(rripfdb.o)
 .debug_info    0x002648a8     0x32a6 ../../../../lib/32b/libtcpip.a(rripfwd.o)
 .debug_info    0x00267b4e     0x32d3 ../../../../lib/32b/libtcpip.a(rrrcirc.o)
 .debug_info    0x0026ae21     0x62f2 ../../../../lib/32b/libtcpip.a(rrtask.o)
 .debug_info    0x00271113     0x2745 ../../../../lib/32b/libtcpip.a(res_init.o)
 .debug_info    0x00273858     0x2a50 ../../../../lib/32b/libtcpip.a(gethnama.o)
 .debug_info    0x002762a8     0x4b85 ../../../../lib/32b/libtcpip.a(dnscache.o)
 .debug_info    0x0027ae2d     0x52c5 ../../../../lib/32b/libtcpip.a(pppdev.o)
 .debug_info    0x002800f2     0x55c5 ../../../../lib/32b/libtcpip.a(pppfsm.o)
 .debug_info    0x002856b7     0x76c3 ../../../../lib/32b/libtcpip.a(pppipcp.o)
 .debug_info    0x0028cd7a     0x59e0 ../../../../lib/32b/libtcpip.a(ppplcp.o)
 .debug_info    0x0029275a     0x55cd ../../../../lib/32b/libtcpip.a(ppppap.o)
 .debug_info    0x00297d27     0x51e7 ../../../../lib/32b/libtcpip.a(pppsend.o)
 .debug_info    0x0029cf0e     0x5020 ../../../../lib/32b/libtcpip.a(pppsess.o)
 .debug_info    0x002a1f2e     0x5293 ../../../../lib/32b/libtcpip.a(ppputil.o)
 .debug_info    0x002a71c1     0x5350 ../../../../lib/32b/libtcpip.a(pppauth.o)
 .debug_info    0x002ac511     0x514c ../../../../lib/32b/libtcpip.a(pppuapi.o)
 .debug_info    0x002b165d     0x5641 ../../../../lib/32b/libtcpip.a(dhcpapi.o)
 .debug_info    0x002b6c9e     0x4cf0 ../../../../lib/32b/libtcpip.a(dhcparp.o)
 .debug_info    0x002bb98e     0x4af0 ../../../../lib/32b/libtcpip.a(options.o)
 .debug_info    0x002c047e     0x4095 ../../../../lib/32b/libtcpip.a(client.o)
 .debug_info    0x002c4513     0x75dd ../../../../lib/32b/libtcpip.a(pppapi.o)
 .debug_info    0x002cbaf0     0x74cf ../../../../lib/32b/libtcpip.a(modem.o)
 .debug_info    0x002d2fbf     0x15c6 ../../../../lib/32b/libtcpip.a(uart_bpool.o)
 .debug_info    0x002d4585     0x435b ../../../../lib/32b/libtcpip.a(osdep.o)
 .debug_info    0x002d88e0     0x1636 ../../../../lib/32b/libtcpip.a(bdoptlib.o)
 .debug_info    0x002d9f16     0x4a8d ../../../../lib/32b/libtcpip.a(bootpapi.o)
 .debug_info    0x002de9a3     0x451e ../../../../lib/32b/libtcpip.a(udpxmit.o)
 .debug_info    0x002e2ec1     0x5108 ../../../../lib/32b/libtcpip.a(arp.o)
 .debug_info    0x002e7fc9     0x4413 ../../../../lib/32b/libtcpip.a(bind.o)
 .debug_info    0x002ec3dc     0x4393 ../../../../lib/32b/libtcpip.a(connect.o)
 .debug_info    0x002f076f     0x44e4 ../../../../lib/32b/libtcpip.a(enet.o)
 .debug_info    0x002f4c53     0x4532 ../../../../lib/32b/libtcpip.a(frk.o)
 .debug_info    0x002f9185     0x4529 ../../../../lib/32b/libtcpip.a(frklk.o)
 .debug_info    0x002fd6ae     0x4527 ../../../../lib/32b/libtcpip.a(fselect.o)
 .debug_info    0x00301bd5     0x4393 ../../../../lib/32b/libtcpip.a(getpeern.o)
 .debug_info    0x00305f68     0x4393 ../../../../lib/32b/libtcpip.a(getsockn.o)
 .debug_info    0x0030a2fb     0x2bf8 ../../../../lib/32b/libtcpip.a(inet_add.o)
 .debug_info    0x0030cef3     0x437d ../../../../lib/32b/libtcpip.a(ip.o)
 .debug_info    0x00311270     0x444f ../../../../lib/32b/libtcpip.a(lbdev.o)
 .debug_info    0x003156bf     0x44c7 ../../../../lib/32b/libtcpip.a(link.o)
 .debug_info    0x00319b86     0x4386 ../../../../lib/32b/libtcpip.a(listen.o)
 .debug_info    0x0031df0c     0x43b8 ../../../../lib/32b/libtcpip.a(node.o)
 .debug_info    0x003222c4     0x44af ../../../../lib/32b/libtcpip.a(nselect.o)
 .debug_info    0x00326773     0x43ee ../../../../lib/32b/libtcpip.a(pioctl.o)
 .debug_info    0x0032ab61     0x4396 ../../../../lib/32b/libtcpip.a(recv.o)
 .debug_info    0x0032eef7     0x43d3 ../../../../lib/32b/libtcpip.a(recvfrom.o)
 .debug_info    0x003332ca     0x43b1 ../../../../lib/32b/libtcpip.a(send.o)
 .debug_info    0x0033767b     0x43de ../../../../lib/32b/libtcpip.a(sendto.o)
 .debug_info    0x0033ba59     0x4386 ../../../../lib/32b/libtcpip.a(shutdown.o)
 .debug_info    0x0033fddf     0x4512 ../../../../lib/32b/libtcpip.a(sob.o)
 .debug_info    0x003442f1     0x445e ../../../../lib/32b/libtcpip.a(socket.o)
 .debug_info    0x0034874f     0x43de ../../../../lib/32b/libtcpip.a(accept.o)
 .debug_info    0x0034cb2d     0x4400 ../../../../lib/32b/libtcpip.a(tcpperf.o)
 .debug_info    0x00350f2d     0x444d ../../../../lib/32b/libtcpip.a(ndq.o)
 .debug_info    0x0035537a     0x1514 ../../../../lib/32b/libtcpip.a(strcmpi.o)
 .debug_info    0x0035688e     0x2637 ../../../../lib/32b/libtcpip.a(inet_pto.o)
 .debug_info    0x00358ec5     0x28fa ../../../../lib/32b/libtcpip.a(res_comp.o)
 .debug_info    0x0035b7bf     0x27b7 ../../../../lib/32b/libtcpip.a(res_quer.o)
 .debug_info    0x0035df76     0x28f3 ../../../../lib/32b/libtcpip.a(res_send.o)
 .debug_info    0x00360869     0x5507 ../../../../lib/32b/libtcpip.a(vjcomp.o)
 .debug_info    0x00365d70     0x510c ../../../../lib/32b/libtcpip.a(pppbs.o)
 .debug_info    0x0036ae7c     0x5919 ../../../../lib/32b/libtcpip.a(pppchap.o)
 .debug_info    0x00370795     0x5191 ../../../../lib/32b/libtcpip.a(ppprecv.o)
 .debug_info    0x00375926     0x50c9 ../../../../lib/32b/libtcpip.a(ppp.o)
 .debug_info    0x0037a9ef     0x4e0c ../../../../lib/32b/libtcpip.a(socketif.o)
 .debug_info    0x0037f7fb     0x4a71 ../../../../lib/32b/libtcpip.a(if.o)
 .debug_info    0x0038426c     0x72fb ../../../../lib/32b/libtcpip.a(uart.o)
 .debug_info    0x0038b567     0x51cd ../../../../lib/32b/libtcpip.a(nullmdm.o)
 .debug_info    0x00390734     0x4976 ../../../../lib/32b/libtcpip.a(bootp.o)
 .debug_info    0x003950aa     0x2784 ../../../../lib/32b/libtcpip.a(res_mkqu.o)
 .debug_info    0x0039782e      0xbae ../../../../lib/32b/gnu/libc.a(assert.o)
 .debug_info    0x003983dc      0x92b ../../../../lib/32b/gnu/libc.a(bzero.o)
 .debug_info    0x00398d07      0x994 ../../../../lib/32b/gnu/libc.a(div.o)
 .debug_info    0x0039969b      0xb60 ../../../../lib/32b/gnu/libc.a(fiprintf.o)
 .debug_info    0x0039a1fb       0xb0 ../../../../lib/32b/gnu/libc.a(libcfunc.o)
 .debug_info    0x0039a2ab      0xc38 ../../../../lib/32b/gnu/libc.a(puts.o)
 .debug_info    0x0039aee3      0x961 ../../../../lib/32b/gnu/libc.a(sysclose.o)
 .debug_info    0x0039b844      0xb3f ../../../../lib/32b/gnu/libc.a(sysread.o)
 .debug_info    0x0039c383      0xb46 ../../../../lib/32b/gnu/libc.a(syswrite.o)
 .debug_info    0x0039cec9     0x1404 ../../../../lib/32b/gnu/libc.a(vfiprintf.o)
 .debug_info    0x0039e2cd      0xbea ../../../../lib/32b/gnu/libc.a(wbuf.o)
 .debug_info    0x0039eeb7     0x66ec ../../../../lib/32b/librphttpd.a(RpForm.o)
 .debug_info    0x003a55a3     0x6dac ../../../../lib/32b/librphttpd.a(RpHtml.o)
 .debug_info    0x003ac34f     0x5ab9 ../../../../lib/32b/librphttpd.a(RpQuery.o)
 .debug_info    0x003b1e08     0x7a9e ../../../../lib/32b/librphttpd.a(hserv.o)
 .debug_info    0x003b98a6     0x5ef1 ../../../../lib/32b/librphttpd.a(RpHttp.o)
 .debug_info    0x003bf797     0x5a11 ../../../../lib/32b/librphttpd.a(RpFrmItm.o)
 .debug_info    0x003c51a8     0x61c4 ../../../../lib/32b/librphttpd.a(RmSmtp.o)
 .debug_info    0x003cb36c     0x6042 ../../../../lib/32b/librphttpd.a(AsCommon.o)
 .debug_info    0x003d13ae     0x66ff ../../../../lib/32b/librphttpd.a(AsDate.o)
 .debug_info    0x003d7aad     0x5949 ../../../../lib/32b/librphttpd.a(AsGlobal.o)
 .debug_info    0x003dd3f6     0x8384 ../../../../lib/32b/librphttpd.a(AsMain.o)
 .debug_info    0x003e577a     0x5aaa ../../../../lib/32b/librphttpd.a(AsMimes.o)
 .debug_info    0x003eb224     0x5d98 ../../../../lib/32b/librphttpd.a(AsParse.o)
 .debug_info    0x003f0fbc     0x5b5f ../../../../lib/32b/librphttpd.a(AsBase64.o)
 .debug_info    0x003f6b1b     0x5f6b ../../../../lib/32b/librphttpd.a(AsConvrt.o)
 .debug_info    0x003fca86     0x5fa5 ../../../../lib/32b/librphttpd.a(AsVarAcc.o)
 .debug_info    0x00402a2b     0x5bba ../../../../lib/32b/librphttpd.a(AsCustom.o)
 .debug_info    0x004085e5     0x70b0 ../../../../lib/32b/librphttpd.a(Sfil.o)
 .debug_info    0x0040f695     0x7c22 ../../../../lib/32b/librphttpd.a(STCP.o)
 .debug_info    0x004172b7     0x6e63 ../../../../lib/32b/librphttpd.a(RpAccess.o)
 .debug_info    0x0041e11a     0x6182 ../../../../lib/32b/librphttpd.a(RpData.o)
 .debug_info    0x0042429c     0x59e1 ../../../../lib/32b/librphttpd.a(RpHttpDy.o)
 .debug_info    0x00429c7d     0x59a2 ../../../../lib/32b/librphttpd.a(RpUser.o)
 .debug_info    0x0042f61f     0x172c ../../../../lib/32b/librphttpd.a(mcfil.o)
 .debug_info    0x00430d4b     0x6677 ../../../../lib/32b/librphttpd.a(RpHttpRq.o)
 .debug_info    0x004373c2     0x63bd ../../../../lib/32b/librphttpd.a(RpHttpPs.o)
 .debug_info    0x0043d77f     0x5ab1 ../../../../lib/32b/librphttpd.a(RpFile.o)
 .debug_info    0x00443230     0x615c ../../../../lib/32b/librphttpd.a(RmMailer.o)
 .debug_info    0x0044938c     0x5949 ../../../../lib/32b/librphttpd.a(RmData.o)
 .debug_info    0x0044ecd5     0x6e40 ../../../../lib/32b/librphttpd.a(PrPop3.o)
 .debug_info    0x00455b15     0x5949 ../../../../lib/32b/librphttpd.a(PrData.o)
 .debug_info    0x0045b45e     0x42b3 ../../../../lib/32b/librphttpd.a(maw_main.o)
 .debug_info    0x0045f711     0x5be5 ../../../../lib/32b/librphttpd.a(AsMD5.o)
 .debug_info    0x004652f6     0x5c2d ../../../../lib/32b/librphttpd.a(Spwd.o)
 .debug_info    0x0046af23     0x5d0d ../../../../lib/32b/librphttpd.a(RpCallBk.o)
 .debug_info    0x00470c30     0x5c59 ../../../../lib/32b/librphttpd.a(RpMulti.o)
 .debug_info    0x00476889     0x5ae9 ../../../../lib/32b/librphttpd.a(RpUrl.o)
 .debug_info    0x0047c372     0x648e ../../../../lib/32b/librphttpd.a(PrRomPop.o)
 .debug_info    0x00482800     0x2b18 ../../../../lib/32b/libmanMib.a(MibMan.o)
 .debug_info    0x00485318     0x8169 ../../../../lib/32b/libmanMib.a(RFC1213_MIB.o)
 .debug_info    0x0048d481     0x7cda ../../../../lib/32b/libmanMib.a(SNMPv2_MIB.o)
 .debug_info    0x0049515b     0x2e56 ../../../../lib/32b/libmanMib.a(RFC1213_MIBAction.o)
 .debug_info    0x00497fb1     0x249f ../../../../lib/32b/libmanMib.a(SNMPv2_MIBAction.o)
 .debug_info    0x0049a450     0x8430 ../../../../lib/32b/libmanMib.a(man_sys.o)
 .debug_info    0x004a2880     0x88f6 ../../../../lib/32b/libmanMib.a(man_if.o)
 .debug_info    0x004ab176     0x7db7 ../../../../lib/32b/libmanMib.a(man_at.o)
 .debug_info    0x004b2f2d     0x984b ../../../../lib/32b/libmanMib.a(man_ip.o)
 .debug_info    0x004bc778     0x8736 ../../../../lib/32b/libmanMib.a(man_icmp.o)
 .debug_info    0x004c4eae     0x8722 ../../../../lib/32b/libmanMib.a(man_tcp.o)
 .debug_info    0x004cd5d0     0x7f44 ../../../../lib/32b/libmanMib.a(man_upd.o)
 .debug_info    0x004d5514     0x8829 ../../../../lib/32b/libmanMib.a(man_egp.o)
 .debug_info    0x004ddd3d     0x89ae ../../../../lib/32b/libmanMib.a(man_snmp.o)
 .debug_info    0x004e66eb     0x2a75 ../../../../lib/32b/libsntp.a(UDPsntp.o)
 .debug_info    0x004e9160     0x2f2a ../../../../lib/32b/libfilesys.a(fss.o)
 .debug_info    0x004ec08a     0x22ee ../../../../lib/32b/libfilesys.a(rss.o)
 .debug_info    0x004ee378      0x2d8 ../../../../lib/32b/libfilesys.a(crc32h.o)
 .debug_info    0x004ee650     0x10a8 ../../../../lib/32b/libfilesys.a(bheader.o)
 .debug_info    0x004ef6f8     0x3ae9 ../../../../lib/32b/libfilesys.a(fs_api.o)
 .debug_info    0x004f31e1     0x4a03 ../../../../lib/32b/libfilesys.a(io.o)
 .debug_info    0x004f7be4     0x1e36 ../../../../lib/32b/libfilesys.a(parser.o)
 .debug_info    0x004f9a1a     0x33ff ../../../../lib/32b/libfilesys.a(ftables.o)
 .debug_info    0x004fce19     0x252f ../../../../lib/32b/libfilesys.a(thread.o)
 .debug_info    0x004ff348      0x3ea ../../../../lib/32b/libfilesys.a(sblock.o)
 .debug_info    0x004ff732     0x2407 ../../../../lib/32b/libfilesys.a(bpool.o)
 .debug_info    0x00501b39     0x36ca ../../../../lib/32b/libfilesys.a(pwr_loss.o)
 .debug_info    0x00505203     0x27f9 ../../../../lib/32b/libfilesys.a(inode.o)
 .debug_info    0x005079fc     0x2359 ../../../../lib/32b/libfilesys.a(services.o)
 .debug_info    0x00509d55     0x3352 ../../../../lib/32b/libbsp.a(MII.o)
 .debug_info    0x0050d0a7     0x1e91 ../../../../lib/32b/libbsp.a(select_support.o)
 .debug_info    0x0050ef38     0x33cd ../../../../lib/32b/libbsp.a(eth_init.o)
 .debug_info    0x00512305     0x346c ../../../../lib/32b/libbsp.a(eth_dma.o)
 .debug_info    0x00515771     0x3303 ../../../../lib/32b/libbsp.a(eth_isr.o)
 .debug_info    0x00518a74     0x325c ../../../../lib/32b/libbsp.a(eth_mcast.o)
 .debug_info    0x0051bcd0     0x32b2 ../../../../lib/32b/libbsp.a(eth_os.o)
 .debug_info    0x0051ef82     0x40ec ../../../../lib/32b/libbsp.a(eth_recv.o)
 .debug_info    0x0052306e     0x4255 ../../../../lib/32b/libbsp.a(eth_send.o)
 .debug_info    0x005272c3     0x5221 ../../../../lib/32b/libbsp.a(eth_stack.o)
 .debug_info    0x0052c4e4     0x342d ../../../../lib/32b/libbsp.a(eth_watchdog.o)
 .debug_info    0x0052f911     0x322b ../../../../lib/32b/libbsp.a(eth_reset.o)
 .debug_info    0x00532b3c      0xa49 ../../../../lib/32b/libtx.a(tx_timeg.o)
 .debug_info    0x00533585      0xa24 ../../../../lib/32b/libtx.a(txe_efs.o)
 .debug_info    0x00533fa9      0xa44 ../../../../lib/32b/libtx.a(txe_tpch.o)
 .debug_info    0x005349ed      0x9fe ../../../../lib/32b/libtx.a(txe_trel.o)
 .debug_info    0x005353eb      0xa9e ../../../../lib/32b/libtx.a(TXE_TIG.o)
 .debug_info    0x00535e89      0xa2f ../../../../lib/32b/libtx.a(TXE_MD.o)
 .debug_info    0x005368b8      0xa98 ../../../../lib/32b/libtx.a(tx_trel.o)
 .debug_info    0x00537350      0xaf7 ../../../../lib/32b/libtx.a(tx_tpch.o)
 .debug_info    0x00537e47      0xc2e ../../../../lib/32b/libtx.a(tx_efs.o)
 .debug_info    0x00538a75      0xad1 ../../../../lib/32b/libtx.a(TX_TIG.o)
 .debug_info    0x00539546      0xafd ../../../../lib/32b/libtx.a(TX_MD.o)
 .debug_info    0x0053a043     0x928e ../../../../lib/32b/libemailc.a(allegro_mailc.o)
 .debug_info    0x005432d1     0x437c ../../../../lib/32b/libtcpip.a(udpopen.o)
 .debug_info    0x0054764d     0x14c7 ../../../../lib/32b/libtcpip.a(strcpy.o)
 .debug_info    0x00548b14     0x14b8 ../../../../lib/32b/libtcpip.a(strlen.o)
 .debug_info    0x00549fcc     0x1607 ../../../../lib/32b/libtcpip.a(memory.o)
 .debug_info    0x0054b5d3     0x4397 ../../../../lib/32b/libtcpip.a(ipbind.o)
 .debug_info    0x0054f96a      0x97a ../../../../lib/32b/gnu/libc.a(atol.o)
 .debug_info    0x005502e4      0x9e1 ../../../../lib/32b/gnu/libc.a(rand.o)
 .debug_info    0x00550cc5      0xbae ../../../../lib/32b/gnu/libc.a(time.o)
 .debug_info    0x00551873      0xd03 ../../../../lib/32b/gnu/libc.a(timer.o)

.debug_abbrev   0x00000000    0x3f3e9
 *(.debug_abbrev)
 .debug_abbrev  0x00000000      0x22b ./objs/appconf_api.o
 .debug_abbrev  0x0000022b      0x2fc ./objs/root.o
 .debug_abbrev  0x00000527      0x291 ./objs/MibMan.o
 .debug_abbrev  0x000007b8      0x1fc ./objs/EARMIB.o
 .debug_abbrev  0x000009b4      0x2f1 ./objs/EARMIBAction.o
 .debug_abbrev  0x00000ca5      0x35d ./objs/ipgFlash.o
 .debug_abbrev  0x00001002      0x2ca ./objs/telnet.o
 .debug_abbrev  0x000012cc      0x2da ./objs/menu.o
 .debug_abbrev  0x000015a6      0x363 ./objs/ipgsnmp.o
 .debug_abbrev  0x00001909      0x287 ./objs/earTemperatureAlarmThreshold.o
 .debug_abbrev  0x00001b90      0x2cc ./objs/earSnmpMngrTable.o
 .debug_abbrev  0x00001e5c      0x276 ./objs/earTrapPort.o
 .debug_abbrev  0x000020d2      0x287 ./objs/earPumpsOff.o
 .debug_abbrev  0x00002359      0x22f ./objs/earChassisReboot.o
 .debug_abbrev  0x00002588      0x22c ./objs/earModelNumberRead.o
 .debug_abbrev  0x000027b4      0x276 ./objs/earRtcTime.o
 .debug_abbrev  0x00002a2a       0x8b ./objs/find_highwater.o
 .debug_abbrev  0x00002ab5      0x314 ./objs/readFrom2U2.o
 .debug_abbrev  0x00002dc9      0x25b ./objs/semaphores.o
 .debug_abbrev  0x00003024      0x2ae ./objs/Snmp_api.o
 .debug_abbrev  0x000032d2      0x2b0 ./objs/configNotification.o
 .debug_abbrev  0x00003582      0x1d2 ./objs/atmel.o
 .debug_abbrev  0x00003754      0x156 ./objs/EDFAWelcomePage.o
 .debug_abbrev  0x000038aa      0x315 ./objs/EDFAWelcomePage_v.o
 .debug_abbrev  0x00003bbf      0x119 ./objs/RpPages.o
 .debug_abbrev  0x00003cd8      0x1ca ./objs/security.o
 .debug_abbrev  0x00003ea2      0x108 ./objs/RpUsrDct.o
 .debug_abbrev  0x00003faa      0x169 ./objs/cgi.o
 .debug_abbrev  0x00004113      0x12d ./objs/file.o
 .debug_abbrev  0x00004240      0x2c3 ./objs/naftpapp.o
 .debug_abbrev  0x00004503      0x1f2 /usr/lib/gcc-lib/arm-elf/3.2/be/libgcc.a(_addsub_sf.o)
 .debug_abbrev  0x000046f5      0x1ec /usr/lib/gcc-lib/arm-elf/3.2/be/libgcc.a(_div_sf.o)
 .debug_abbrev  0x000048e1      0x153 /usr/lib/gcc-lib/arm-elf/3.2/be/libgcc.a(_si_to_sf.o)
 .debug_abbrev  0x00004a34      0x153 /usr/lib/gcc-lib/arm-elf/3.2/be/libgcc.a(_sf_to_df.o)
 .debug_abbrev  0x00004b87      0x11c /usr/lib/gcc-lib/arm-elf/3.2/be/libgcc.a(_thenan_sf.o)
 .debug_abbrev  0x00004ca3      0x1ec /usr/lib/gcc-lib/arm-elf/3.2/be/libgcc.a(_div_df.o)
 .debug_abbrev  0x00004e8f      0x162 /usr/lib/gcc-lib/arm-elf/3.2/be/libgcc.a(_make_df.o)
 .debug_abbrev  0x00004ff1      0x162 /usr/lib/gcc-lib/arm-elf/3.2/be/libgcc.a(_df_to_sf.o)
 .debug_abbrev  0x00005153      0x11c /usr/lib/gcc-lib/arm-elf/3.2/be/libgcc.a(_thenan_df.o)
 .debug_abbrev  0x0000526f      0x1c4 /usr/lib/gcc-lib/arm-elf/3.2/be/libgcc.a(_pack_sf.o)
 .debug_abbrev  0x00005433      0x160 /usr/lib/gcc-lib/arm-elf/3.2/be/libgcc.a(_unpack_sf.o)
 .debug_abbrev  0x00005593      0x162 /usr/lib/gcc-lib/arm-elf/3.2/be/libgcc.a(_make_sf.o)
 .debug_abbrev  0x000056f5      0x1b9 /usr/lib/gcc-lib/arm-elf/3.2/be/libgcc.a(_pack_df.o)
 .debug_abbrev  0x000058ae      0x160 /usr/lib/gcc-lib/arm-elf/3.2/be/libgcc.a(_unpack_df.o)
 .debug_abbrev  0x00005a0e      0x14f /usr/lib/gcc-lib/arm-elf/3.2/be/libgcc.a(_lshrdi3.o)
 .debug_abbrev  0x00005b5d      0x14f /usr/lib/gcc-lib/arm-elf/3.2/be/libgcc.a(_ashldi3.o)
 .debug_abbrev  0x00005cac      0x15f ../../../../lib/32b/gnu/libc.a(atof.o)
 .debug_abbrev  0x00005e0b      0x15f ../../../../lib/32b/gnu/libc.a(atoi.o)
 .debug_abbrev  0x00005f6a      0x17f ../../../../lib/32b/gnu/libc.a(calloc.o)
 .debug_abbrev  0x000060e9      0x1ca ../../../../lib/32b/gnu/libc.a(callocr.o)
 .debug_abbrev  0x000062b3      0x18f ../../../../lib/32b/gnu/libc.a(exit.o)
 .debug_abbrev  0x00006442      0x191 ../../../../lib/32b/gnu/libc.a(fflush.o)
 .debug_abbrev  0x000065d3      0x1f9 ../../../../lib/32b/gnu/libc.a(findfp.o)
 .debug_abbrev  0x000067cc      0x19d ../../../../lib/32b/gnu/libc.a(fwalk.o)
 .debug_abbrev  0x00006969      0x169 ../../../../lib/32b/gnu/libc.a(impure.o)
 .debug_abbrev  0x00006ad2       0x78 ../../../../lib/32b/gnu/libc.a(isdigit.o)
 .debug_abbrev  0x00006b4a       0x78 ../../../../lib/32b/gnu/libc.a(isspace.o)
 .debug_abbrev  0x00006bc2      0x191 ../../../../lib/32b/gnu/libc.a(lcltime.o)
 .debug_abbrev  0x00006d53      0x17d ../../../../lib/32b/gnu/libc.a(lcltime_r.o)
 .debug_abbrev  0x00006ed0      0x199 ../../../../lib/32b/gnu/libc.a(malloc.o)
 .debug_abbrev  0x00007069      0x1e9 ../../../../lib/32b/gnu/libc.a(mallocr.o)
 .debug_abbrev  0x00007252      0x173 ../../../../lib/32b/gnu/libc.a(memcmp.o)
 .debug_abbrev  0x000073c5       0xa6 ../../../../lib/32b/gnu/libc.a(memcpy.o)
 .debug_abbrev  0x0000746b      0x18a ../../../../lib/32b/gnu/libc.a(memset.o)
 .debug_abbrev  0x000075f5      0x1b5 ../../../../lib/32b/gnu/libc.a(mktm_r.o)
 .debug_abbrev  0x000077aa      0x171 ../../../../lib/32b/gnu/libc.a(mlock.o)
 .debug_abbrev  0x0000791b      0x194 ../../../../lib/32b/gnu/libc.a(printf.o)
 .debug_abbrev  0x00007aaf      0x171 ../../../../lib/32b/gnu/libc.a(rget.o)
 .debug_abbrev  0x00007c20      0x1b3 ../../../../lib/32b/gnu/libc.a(sbrkr.o)
 .debug_abbrev  0x00007dd3      0x1b2 ../../../../lib/32b/gnu/libc.a(snprintf.o)
 .debug_abbrev  0x00007f85      0x1a3 ../../../../lib/32b/gnu/libc.a(sprintf.o)
 .debug_abbrev  0x00008128      0x1c7 ../../../../lib/32b/gnu/libc.a(sscanf.o)
 .debug_abbrev  0x000082ef      0x1ab ../../../../lib/32b/gnu/libc.a(stdio.o)
 .debug_abbrev  0x0000849a      0x186 ../../../../lib/32b/gnu/libc.a(strcat.o)
 .debug_abbrev  0x00008620      0x17d ../../../../lib/32b/gnu/libc.a(strchr.o)
 .debug_abbrev  0x0000879d      0x16e ../../../../lib/32b/gnu/libc.a(strcmp.o)
 .debug_abbrev  0x0000890b      0x17d ../../../../lib/32b/gnu/libc.a(strcpy.o)
 .debug_abbrev  0x00008a88      0x16e ../../../../lib/32b/gnu/libc.a(strlen.o)
 .debug_abbrev  0x00008bf6      0x16e ../../../../lib/32b/gnu/libc.a(strncmp.o)
 .debug_abbrev  0x00008d64      0x17d ../../../../lib/32b/gnu/libc.a(strncpy.o)
 .debug_abbrev  0x00008ee1      0x177 ../../../../lib/32b/gnu/libc.a(strstr.o)
 .debug_abbrev  0x00009058      0x266 ../../../../lib/32b/gnu/libc.a(strtod.o)
 .debug_abbrev  0x000092be      0x191 ../../../../lib/32b/gnu/libc.a(strtok.o)
 .debug_abbrev  0x0000944f      0x199 ../../../../lib/32b/gnu/libc.a(strtok_r.o)
 .debug_abbrev  0x000095e8      0x1c5 ../../../../lib/32b/gnu/libc.a(strtol.o)
 .debug_abbrev  0x000097ad      0x173 ../../../../lib/32b/gnu/libc.a(tzlock.o)
 .debug_abbrev  0x00009920      0x1b6 ../../../../lib/32b/gnu/libc.a(tzset_r.o)
 .debug_abbrev  0x00009ad6      0x2ff ../../../../lib/32b/gnu/libc.a(vfprintf.o)
 .debug_abbrev  0x00009dd5      0x28f ../../../../lib/32b/gnu/libc.a(vfscanf.o)
 .debug_abbrev  0x0000a064      0x196 ../../../../lib/32b/gnu/libc.a(writer.o)
 .debug_abbrev  0x0000a1fa      0x182 ../../../../lib/32b/gnu/libc.a(wsetup.o)
 .debug_abbrev  0x0000a37c      0x33b ../../../../lib/32b/gnu/libc.a(syscalls.o)
 .debug_abbrev  0x0000a6b7      0x191 ../../../../lib/32b/gnu/libc.a(closer.o)
 .debug_abbrev  0x0000a848       0x52 ../../../../lib/32b/gnu/libc.a(ctype_.o)
 .debug_abbrev  0x0000a89a      0x253 ../../../../lib/32b/gnu/libc.a(dtoa.o)
 .debug_abbrev  0x0000aaed      0x171 ../../../../lib/32b/gnu/libc.a(errno.o)
 .debug_abbrev  0x0000ac5e      0x19e ../../../../lib/32b/gnu/libc.a(fread.o)
 .debug_abbrev  0x0000adfc      0x1eb ../../../../lib/32b/gnu/libc.a(freer.o)
 .debug_abbrev  0x0000afe7      0x1aa ../../../../lib/32b/gnu/libc.a(fvwrite.o)
 .debug_abbrev  0x0000b191      0x1a1 ../../../../lib/32b/gnu/libc.a(getenv_r.o)
 .debug_abbrev  0x0000b332      0x1f0 ../../../../lib/32b/gnu/libc.a(locale.o)
 .debug_abbrev  0x0000b522      0x1a0 ../../../../lib/32b/gnu/libc.a(lseekr.o)
 .debug_abbrev  0x0000b6c2      0x19c ../../../../lib/32b/gnu/libc.a(makebuf.o)
 .debug_abbrev  0x0000b85e      0x18a ../../../../lib/32b/gnu/libc.a(mbtowc_r.o)
 .debug_abbrev  0x0000b9e8      0x191 ../../../../lib/32b/gnu/libc.a(memchr.o)
 .debug_abbrev  0x0000bb79      0x182 ../../../../lib/32b/gnu/libc.a(memmove.o)
 .debug_abbrev  0x0000bcfb      0x278 ../../../../lib/32b/gnu/libc.a(mprec.o)
 .debug_abbrev  0x0000bf73      0x191 ../../../../lib/32b/gnu/libc.a(readr.o)
 .debug_abbrev  0x0000c104      0x1e2 ../../../../lib/32b/gnu/libc.a(reallocr.o)
 .debug_abbrev  0x0000c2e6      0x1e7 ../../../../lib/32b/gnu/libc.a(reent.o)
 .debug_abbrev  0x0000c4cd      0x197 ../../../../lib/32b/gnu/libc.a(refill.o)
 .debug_abbrev  0x0000c664      0x194 ../../../../lib/32b/gnu/libc.a(s_infconst.o)
 .debug_abbrev  0x0000c7f8      0x1c7 ../../../../lib/32b/gnu/libc.a(s_isinf.o)
 .debug_abbrev  0x0000c9bf      0x1c7 ../../../../lib/32b/gnu/libc.a(s_isnan.o)
 .debug_abbrev  0x0000cb86      0x187 ../../../../lib/32b/gnu/libc.a(setenv.o)
 .debug_abbrev  0x0000cd0d      0x1cf ../../../../lib/32b/gnu/libc.a(setenv_r.o)
 .debug_abbrev  0x0000cedc      0x1c5 ../../../../lib/32b/gnu/libc.a(strtoul.o)
 .debug_abbrev  0x0000d0a1      0x192 ../../../../lib/32b/gnu/libc.a(sysopen.o)
 .debug_abbrev  0x0000d233      0x17e ../../../../lib/32b/gnu/libc.a(tzset.o)
 .debug_abbrev  0x0000d3b1      0x1a8 ../../../../lib/32b/gnu/libc.a(ungetc.o)
 .debug_abbrev  0x0000d559      0x171 ../../../../lib/32b/gnu/libc.a(bcopy.o)
 .debug_abbrev  0x0000d6ca       0x5a ../../../../lib/32b/gnu/libc.a(environ.o)
 .debug_abbrev  0x0000d724      0x15d ../../../../lib/32b/gnu/libc.a(envlock.o)
 .debug_abbrev  0x0000d881      0x1af ../../../../lib/32b/gnu/libc.a(fstatr.o)
 .debug_abbrev  0x0000da30      0x1c9 /usr/lib/gcc-lib/arm-elf/3.2/be/libgcc.a(_udivdi3.o)
 .debug_abbrev  0x0000dbf9      0x1d8 /usr/lib/gcc-lib/arm-elf/3.2/be/libgcc.a(_umoddi3.o)
 .debug_abbrev  0x0000ddd1      0x1f2 /usr/lib/gcc-lib/arm-elf/3.2/be/libgcc.a(_addsub_df.o)
 .debug_abbrev  0x0000dfc3      0x1ff /usr/lib/gcc-lib/arm-elf/3.2/be/libgcc.a(_mul_df.o)
 .debug_abbrev  0x0000e1c2      0x18b /usr/lib/gcc-lib/arm-elf/3.2/be/libgcc.a(_eq_df.o)
 .debug_abbrev  0x0000e34d      0x18b /usr/lib/gcc-lib/arm-elf/3.2/be/libgcc.a(_ne_df.o)
 .debug_abbrev  0x0000e4d8      0x18b /usr/lib/gcc-lib/arm-elf/3.2/be/libgcc.a(_gt_df.o)
 .debug_abbrev  0x0000e663      0x18b /usr/lib/gcc-lib/arm-elf/3.2/be/libgcc.a(_ge_df.o)
 .debug_abbrev  0x0000e7ee      0x18b /usr/lib/gcc-lib/arm-elf/3.2/be/libgcc.a(_lt_df.o)
 .debug_abbrev  0x0000e979      0x18b /usr/lib/gcc-lib/arm-elf/3.2/be/libgcc.a(_le_df.o)
 .debug_abbrev  0x0000eb04      0x153 /usr/lib/gcc-lib/arm-elf/3.2/be/libgcc.a(_si_to_df.o)
 .debug_abbrev  0x0000ec57      0x198 /usr/lib/gcc-lib/arm-elf/3.2/be/libgcc.a(_df_to_si.o)
 .debug_abbrev  0x0000edef      0x189 /usr/lib/gcc-lib/arm-elf/3.2/be/libgcc.a(_negate_df.o)
 .debug_abbrev  0x0000ef78      0x11a /usr/lib/gcc-lib/arm-elf/3.2/be/libgcc.a(_clz.o)
 .debug_abbrev  0x0000f092      0x17c /usr/lib/gcc-lib/arm-elf/3.2/be/libgcc.a(_fpcmp_parts_df.o)
 .debug_abbrev  0x0000f20e      0x1f7 ../../../../lib/32b/libbsp.a(bsp_api.o)
 .debug_abbrev  0x0000f405      0x24b ../../../../lib/32b/libbsp.a(nainet.o)
 .debug_abbrev  0x0000f650      0x1f7 ../../../../lib/32b/libbsp.a(main.o)
 .debug_abbrev  0x0000f847      0x231 ../../../../lib/32b/libbsp.a(errhndlr.o)
 .debug_abbrev  0x0000fa78      0x1d3 ../../../../lib/32b/libbsp.a(narmbrd.o)
 .debug_abbrev  0x0000fc4b      0x1f7 ../../../../lib/32b/libbsp.a(narmled.o)
 .debug_abbrev  0x0000fe42      0x1d3 ../../../../lib/32b/libbsp.a(devices.o)
 .debug_abbrev  0x00010015      0x213 ../../../../lib/32b/libbsp.a(flashnvrm.o)
 .debug_abbrev  0x00010228      0x210 ../../../../lib/32b/libbsp.a(sysAccess.o)
 .debug_abbrev  0x00010438      0x251 ../../../../lib/32b/libbsp.a(lpbkdev.o)
 .debug_abbrev  0x00010689      0x1a3 ../../../../lib/32b/libbsp.a(nuldev.o)
 .debug_abbrev  0x0001082c      0x235 ../../../../lib/32b/libbsp.a(nacache.o)
 .debug_abbrev  0x00010a61      0x25a ../../../../lib/32b/libbsp.a(NCC_INIT.o)
 .debug_abbrev  0x00010cbb      0x28c ../../../../lib/32b/libbsp.a(NCC_POST.o)
 .debug_abbrev  0x00010f47      0x154 ../../../../lib/32b/libbsp.a(IRQREG.o)
 .debug_abbrev  0x0001109b      0x213 ../../../../lib/32b/libbsp.a(gpio.o)
 .debug_abbrev  0x000112ae      0x25d ../../../../lib/32b/libbsp.a(cs.o)
 .debug_abbrev  0x0001150b      0x2ce ../../../../lib/32b/libbsp.a(boardParams.o)
 .debug_abbrev  0x000117d9      0x1fd ../../../../lib/32b/libbsp.a(nawait.o)
 .debug_abbrev  0x000119d6      0x119 ../../../../lib/32b/libbsp.a(nareset.o)
 .debug_abbrev  0x00011aef      0x253 ../../../../lib/32b/libbsp.a(startfilesystem.o)
 .debug_abbrev  0x00011d42      0x181 ../../../../lib/32b/libbsp.a(fbanks.o)
 .debug_abbrev  0x00011ec3      0x2ae ../../../../lib/32b/libbsp.a(rtc.o)
 .debug_abbrev  0x00012171       0xd7 ../../../../lib/32b/libbsp.a(termios.o)
 .debug_abbrev  0x00012248      0x2db ../../../../lib/32b/libbsp.a(netos_serl.o)
 .debug_abbrev  0x00012523      0x25d ../../../../lib/32b/libbsp.a(NA_ISR.o)
 .debug_abbrev  0x00012780      0x142 ../../../../lib/32b/libbsp.a(crc32h.o)
 .debug_abbrev  0x000128c2      0x25f ../../../../lib/32b/libbsp.a(udpdb.o)
 .debug_abbrev  0x00012b21      0x1a3 ../../../../lib/32b/libbsp.a(bsp.o)
 .debug_abbrev  0x00012cc4      0x2d1 ../../../../lib/32b/libbsp.a(bsproot.o)
 .debug_abbrev  0x00012f95      0x2f0 ../../../../lib/32b/libbsp.a(starttcp.o)
 .debug_abbrev  0x00013285      0x25f ../../../../lib/32b/libbsp.a(bsptimer.o)
 .debug_abbrev  0x000134e4      0x147 ../../../../lib/32b/libbsp.a(sysClock.o)
 .debug_abbrev  0x0001362b      0x297 ../../../../lib/32b/libbsp.a(hdlcdvr.o)
 .debug_abbrev  0x000138c2      0x234 ../../../../lib/32b/libbsp.a(aceParams.o)
 .debug_abbrev  0x00013af6      0x30a ../../../../lib/32b/libbsp.a(aceCallbacks.o)
 .debug_abbrev  0x00013e00      0x25a ../../../../lib/32b/libbsp.a(naip_global.o)
 .debug_abbrev  0x0001405a      0x2a7 ../../../../lib/32b/libbsp.a(naifconfig.o)
 .debug_abbrev  0x00014301      0x2bb ../../../../lib/32b/libbsp.a(dialog.o)
 .debug_abbrev  0x000145bc      0x1b4 ../../../../lib/32b/libbsp.a(flashutil.o)
 .debug_abbrev  0x00014770      0x214 ../../../../lib/32b/libbsp.a(event_handler.o)
 .debug_abbrev  0x00014984      0x2b2 ../../../../lib/32b/libbsp.a(hdlcmem.o)
 .debug_abbrev  0x00014c36      0x258 ../../../../lib/32b/libflash.a(naflash.o)
 .debug_abbrev  0x00014e8e      0x13d ../../../../lib/32b/libflash.a(naflsem.o)
 .debug_abbrev  0x00014fcb      0x1f5 ../../../../lib/32b/libposix.a(posix_semaphore.o)
 .debug_abbrev  0x000151c0      0x284 ../../../../lib/32b/libposix.a(posix_thread.o)
 .debug_abbrev  0x00015444       0xd8 ../../../../lib/32b/libtx.a(tx_ike.o)
 .debug_abbrev  0x0001551c      0x16a ../../../../lib/32b/libtx.a(tx_timi.o)
 .debug_abbrev  0x00015686      0x19b ../../../../lib/32b/libtx.a(tx_ti.o)
 .debug_abbrev  0x00015821      0x1b1 ../../../../lib/32b/libtx.a(tx_tc.o)
 .debug_abbrev  0x000159d2      0x10e ../../../../lib/32b/libtx.a(tx_tr.o)
 .debug_abbrev  0x00015ae0      0x11b ../../../../lib/32b/libtx.a(tx_tte.o)
 .debug_abbrev  0x00015bfb       0xfd ../../../../lib/32b/libtx.a(tx_ta.o)
 .debug_abbrev  0x00015cf8       0xfb ../../../../lib/32b/libtx.a(tx_tto.o)
 .debug_abbrev  0x00015df3      0x10e ../../../../lib/32b/libtx.a(tx_tsle.o)
 .debug_abbrev  0x00015f01       0xc9 ../../../../lib/32b/libtx.a(tx_tide.o)
 .debug_abbrev  0x00015fca      0x104 ../../../../lib/32b/libtx.a(tx_gnu.o)
 .debug_abbrev  0x000160ce       0xe9 ../../../../lib/32b/libtx.a(txe_efc.o)
 .debug_abbrev  0x000161b7       0xe9 ../../../../lib/32b/libtx.a(txe_efg.o)
 .debug_abbrev  0x000162a0       0xe9 ../../../../lib/32b/libtx.a(txe_qc.o)
 .debug_abbrev  0x00016389       0xe9 ../../../../lib/32b/libtx.a(txe_qr.o)
 .debug_abbrev  0x00016472       0xe9 ../../../../lib/32b/libtx.a(txe_qs.o)
 .debug_abbrev  0x0001655b       0xe9 ../../../../lib/32b/libtx.a(txe_sc.o)
 .debug_abbrev  0x00016644       0xe9 ../../../../lib/32b/libtx.a(txe_sd.o)
 .debug_abbrev  0x0001672d       0xe9 ../../../../lib/32b/libtx.a(txe_sg.o)
 .debug_abbrev  0x00016816       0xd8 ../../../../lib/32b/libtx.a(txe_sp.o)
 .debug_abbrev  0x000168ee       0xe9 ../../../../lib/32b/libtx.a(txe_tc.o)
 .debug_abbrev  0x000169d7       0xe9 ../../../../lib/32b/libtx.a(txe_tdel.o)
 .debug_abbrev  0x00016ac0       0xe9 ../../../../lib/32b/libtx.a(txe_trpc.o)
 .debug_abbrev  0x00016ba9       0xd8 ../../../../lib/32b/libtx.a(txe_tra.o)
 .debug_abbrev  0x00016c81       0xe9 ../../../../lib/32b/libtx.a(txe_tsa.o)
 .debug_abbrev  0x00016d6a       0xe9 ../../../../lib/32b/libtx.a(txe_tt.o)
 .debug_abbrev  0x00016e53       0xd8 ../../../../lib/32b/libtx.a(txe_taa.o)
 .debug_abbrev  0x00016f2b       0xe9 ../../../../lib/32b/libtx.a(txe_tmch.o)
 .debug_abbrev  0x00017014       0xe9 ../../../../lib/32b/libtx.a(txe_tmcr.o)
 .debug_abbrev  0x000170fd       0xd8 ../../../../lib/32b/libtx.a(txe_tda.o)
 .debug_abbrev  0x000171d5       0xe9 ../../../../lib/32b/libtx.a(txe_timd.o)
 .debug_abbrev  0x000172be       0xfd ../../../../lib/32b/libtx.a(TX_MC.o)
 .debug_abbrev  0x000173bb      0x10e ../../../../lib/32b/libtx.a(TX_MG.o)
 .debug_abbrev  0x000174c9      0x11d ../../../../lib/32b/libtx.a(TX_MP.o)
 .debug_abbrev  0x000175e6       0xec ../../../../lib/32b/libtx.a(TX_MPRI.o)
 .debug_abbrev  0x000176d2      0x10c ../../../../lib/32b/libtx.a(TX_MPC.o)
 .debug_abbrev  0x000177de       0xfb ../../../../lib/32b/libtx.a(TX_MCLE.o)
 .debug_abbrev  0x000178d9       0xe9 ../../../../lib/32b/libtx.a(TXE_MC.o)
 .debug_abbrev  0x000179c2       0xe9 ../../../../lib/32b/libtx.a(TXE_MG.o)
 .debug_abbrev  0x00017aab       0xd8 ../../../../lib/32b/libtx.a(TXE_MP.o)
 .debug_abbrev  0x00017b83       0xc7 ../../../../lib/32b/libtx.a(tx_ihl.o)
 .debug_abbrev  0x00017c4a       0xfd ../../../../lib/32b/libtx.a(tx_tse.o)
 .debug_abbrev  0x00017d47      0x11b ../../../../lib/32b/libtx.a(tx_tsus.o)
 .debug_abbrev  0x00017e62       0xfd ../../../../lib/32b/libtx.a(tx_tsa.o)
 .debug_abbrev  0x00017f5f       0xfd ../../../../lib/32b/libtx.a(tx_tra.o)
 .debug_abbrev  0x0001805c       0xff ../../../../lib/32b/libtx.a(tx_tts.o)
 .debug_abbrev  0x0001815b       0xfd ../../../../lib/32b/libtx.a(tx_tdel.o)
 .debug_abbrev  0x00018258      0x11d ../../../../lib/32b/libtx.a(tx_tprch.o)
 .debug_abbrev  0x00018375       0xfd ../../../../lib/32b/libtx.a(tx_tt.o)
 .debug_abbrev  0x00018472       0xec ../../../../lib/32b/libtx.a(tx_td.o)
 .debug_abbrev  0x0001855e       0xfd ../../../../lib/32b/libtx.a(tx_timcr.o)
 .debug_abbrev  0x0001865b       0xc9 ../../../../lib/32b/libtx.a(tx_taa.o)
 .debug_abbrev  0x00018724       0xfd ../../../../lib/32b/libtx.a(tx_tda.o)
 .debug_abbrev  0x00018821       0xec ../../../../lib/32b/libtx.a(tx_timch.o)
 .debug_abbrev  0x0001890d       0xfd ../../../../lib/32b/libtx.a(tx_timd.o)
 .debug_abbrev  0x00018a0a       0xfd ../../../../lib/32b/libtx.a(tx_sc.o)
 .debug_abbrev  0x00018b07      0x10e ../../../../lib/32b/libtx.a(tx_sd.o)
 .debug_abbrev  0x00018c15      0x10e ../../../../lib/32b/libtx.a(tx_sg.o)
 .debug_abbrev  0x00018d23       0xfd ../../../../lib/32b/libtx.a(tx_sp.o)
 .debug_abbrev  0x00018e20       0xfb ../../../../lib/32b/libtx.a(tx_scle.o)
 .debug_abbrev  0x00018f1b       0xfd ../../../../lib/32b/libtx.a(tx_qc.o)
 .debug_abbrev  0x00019018      0x11d ../../../../lib/32b/libtx.a(tx_qs.o)
 .debug_abbrev  0x00019135      0x11d ../../../../lib/32b/libtx.a(tx_qr.o)
 .debug_abbrev  0x00019252       0xfb ../../../../lib/32b/libtx.a(tx_qcle.o)
 .debug_abbrev  0x0001934d       0xfd ../../../../lib/32b/libtx.a(tx_efc.o)
 .debug_abbrev  0x0001944a      0x11d ../../../../lib/32b/libtx.a(tx_efg.o)
 .debug_abbrev  0x00019567       0xfb ../../../../lib/32b/libtx.a(tx_efcle.o)
 .debug_abbrev  0x00019662      0x1ee ../../../../lib/32b/libmanapi.a(man_env.o)
 .debug_abbrev  0x00019850      0x26b ../../../../lib/32b/libmanapi.a(man_init.o)
 .debug_abbrev  0x00019abb       0xdb ../../../../lib/32b/libmanapi.a(hash.o)
 .debug_abbrev  0x00019b96      0x224 ../../../../lib/32b/libmanapi.a(man_row.o)
 .debug_abbrev  0x00019dba      0x22c ../../../../lib/32b/libmanapi.a(man_main.o)
 .debug_abbrev  0x00019fe6      0x27f ../../../../lib/32b/libftpsvr.a(ftposp.o)
 .debug_abbrev  0x0001a265      0x327 ../../../../lib/32b/libftpsvr.a(ftpsvr.o)
 .debug_abbrev  0x0001a58c      0x2e7 ../../../../lib/32b/libtelnsvr.a(ts_mod.o)
 .debug_abbrev  0x0001a873      0x2a3 ../../../../lib/32b/libtelnsvr.a(telnetd2.o)
 .debug_abbrev  0x0001ab16       0xb5 ../../../../lib/32b/libtelnsvr.a(fsminit.o)
 .debug_abbrev  0x0001abcb      0x156 ../../../../lib/32b/libtelnsvr.a(ttfsm.o)
 .debug_abbrev  0x0001ad21      0x23a ../../../../lib/32b/libtelnsvr.a(ttgetc.o)
 .debug_abbrev  0x0001af5b      0x1a0 ../../../../lib/32b/libtelnsvr.a(will_not.o)
 .debug_abbrev  0x0001b0fb      0x1d7 ../../../../lib/32b/libtelnsvr.a(do_echo.o)
 .debug_abbrev  0x0001b2d2      0x1d7 ../../../../lib/32b/libtelnsvr.a(do_noga.o)
 .debug_abbrev  0x0001b4a9      0x1d7 ../../../../lib/32b/libtelnsvr.a(do_notsu.o)
 .debug_abbrev  0x0001b680      0x1d7 ../../../../lib/32b/libtelnsvr.a(do_txbin.o)
 .debug_abbrev  0x0001b857      0x1a2 ../../../../lib/32b/libtelnsvr.a(tcga.o)
 .debug_abbrev  0x0001b9f9      0x1a0 ../../../../lib/32b/libtelnsvr.a(recopt.o)
 .debug_abbrev  0x0001bb99      0x24f ../../../../lib/32b/libdnsclnt.a(dnsc_api.o)
 .debug_abbrev  0x0001bde8      0x2cd ../../../../lib/32b/libfastip.a(fast_ip.o)
 .debug_abbrev  0x0001c0b5      0x333 ../../../../lib/32b/libtcpip.a(ace.o)
 .debug_abbrev  0x0001c3e8      0x2ca ../../../../lib/32b/libtcpip.a(ace_os.o)
 .debug_abbrev  0x0001c6b2      0x335 ../../../../lib/32b/libtcpip.a(ace_dhcp.o)
 .debug_abbrev  0x0001c9e7      0x283 ../../../../lib/32b/libtcpip.a(ace_bootp.o)
 .debug_abbrev  0x0001cc6a      0x265 ../../../../lib/32b/libtcpip.a(ace_autoip.o)
 .debug_abbrev  0x0001cecf      0x1e8 ../../../../lib/32b/libtcpip.a(ace_static.o)
 .debug_abbrev  0x0001d0b7      0x265 ../../../../lib/32b/libtcpip.a(ace_rarp.o)
 .debug_abbrev  0x0001d31c      0x265 ../../../../lib/32b/libtcpip.a(ace_pingarp.o)
 .debug_abbrev  0x0001d581      0x37e ../../../../lib/32b/libtcpip.a(fnsrr.o)
 .debug_abbrev  0x0001d8ff      0x283 ../../../../lib/32b/libtcpip.a(heap.o)
 .debug_abbrev  0x0001db82      0x370 ../../../../lib/32b/libtcpip.a(icmp.o)
 .debug_abbrev  0x0001def2      0x1d0 ../../../../lib/32b/libtcpip.a(ipclassm.o)
 .debug_abbrev  0x0001e0c2      0x297 ../../../../lib/32b/libtcpip.a(ipcomm.o)
 .debug_abbrev  0x0001e359      0x34b ../../../../lib/32b/libtcpip.a(ipfrag.o)
 .debug_abbrev  0x0001e6a4      0x346 ../../../../lib/32b/libtcpip.a(ipmisc.o)
 .debug_abbrev  0x0001e9ea      0x32c ../../../../lib/32b/libtcpip.a(ipnetd.o)
 .debug_abbrev  0x0001ed16      0x2f0 ../../../../lib/32b/libtcpip.a(ipopt.o)
 .debug_abbrev  0x0001f006      0x303 ../../../../lib/32b/libtcpip.a(ipxmit.o)
 .debug_abbrev  0x0001f309      0x27f ../../../../lib/32b/libtcpip.a(lkheap.o)
 .debug_abbrev  0x0001f588      0x348 ../../../../lib/32b/libtcpip.a(llconfig.o)
 .debug_abbrev  0x0001f8d0      0x2e1 ../../../../lib/32b/libtcpip.a(m.o)
 .debug_abbrev  0x0001fbb1      0x1be ../../../../lib/32b/libtcpip.a(md.o)
 .debug_abbrev  0x0001fd6f       0xe5 ../../../../lib/32b/libtcpip.a(md5.o)
 .debug_abbrev  0x0001fe54      0x2e9 ../../../../lib/32b/libtcpip.a(msm.o)
 .debug_abbrev  0x0002013d      0x2b0 ../../../../lib/32b/libtcpip.a(ncaf.o)
 .debug_abbrev  0x000203ed      0x224 ../../../../lib/32b/libtcpip.a(naadddev.o)
 .debug_abbrev  0x00020611      0x384 ../../../../lib/32b/libtcpip.a(ncdev.o)
 .debug_abbrev  0x00020995      0x24c ../../../../lib/32b/libtcpip.a(ncdid.o)
 .debug_abbrev  0x00020be1      0x286 ../../../../lib/32b/libtcpip.a(ncmisc.o)
 .debug_abbrev  0x00020e67      0x306 ../../../../lib/32b/libtcpip.a(ncpr.o)
 .debug_abbrev  0x0002116d      0x327 ../../../../lib/32b/libtcpip.a(q.o)
 .debug_abbrev  0x00021494      0x220 ../../../../lib/32b/libtcpip.a(secure.o)
 .debug_abbrev  0x000216b4      0x304 ../../../../lib/32b/libtcpip.a(select.o)
 .debug_abbrev  0x000219b8      0x320 ../../../../lib/32b/libtcpip.a(sock.o)
 .debug_abbrev  0x00021cd8      0x253 ../../../../lib/32b/libtcpip.a(sop.o)
 .debug_abbrev  0x00021f2b      0x30e ../../../../lib/32b/libtcpip.a(timer.o)
 .debug_abbrev  0x00022239      0x246 ../../../../lib/32b/libtcpip.a(twq.o)
 .debug_abbrev  0x0002247f      0x324 ../../../../lib/32b/libtcpip.a(udpnetd.o)
 .debug_abbrev  0x000227a3      0x22e ../../../../lib/32b/libtcpip.a(udpopt.o)
 .debug_abbrev  0x000229d1      0x2ab ../../../../lib/32b/libtcpip.a(udpsock.o)
 .debug_abbrev  0x00022c7c      0x2d2 ../../../../lib/32b/libtcpip.a(tcpxmit.o)
 .debug_abbrev  0x00022f4e      0x336 ../../../../lib/32b/libtcpip.a(tcpnetd.o)
 .debug_abbrev  0x00023284      0x334 ../../../../lib/32b/libtcpip.a(tcpsend.o)
 .debug_abbrev  0x000235b8      0x337 ../../../../lib/32b/libtcpip.a(tcpsock.o)
 .debug_abbrev  0x000238ef      0x38c ../../../../lib/32b/libtcpip.a(tcpmisc.o)
 .debug_abbrev  0x00023c7b      0x266 ../../../../lib/32b/libtcpip.a(tcptrans.o)
 .debug_abbrev  0x00023ee1      0x25d ../../../../lib/32b/libtcpip.a(tcpimpco.o)
 .debug_abbrev  0x0002413e      0x319 ../../../../lib/32b/libtcpip.a(igmp.o)
 .debug_abbrev  0x00024457      0x2b2 ../../../../lib/32b/libtcpip.a(socketopt.o)
 .debug_abbrev  0x00024709      0x2b0 ../../../../lib/32b/libtcpip.a(sockapi.o)
 .debug_abbrev  0x000249b9      0x311 ../../../../lib/32b/libtcpip.a(autoip.o)
 .debug_abbrev  0x00024cca      0x2ae ../../../../lib/32b/libtcpip.a(rricirc.o)
 .debug_abbrev  0x00024f78      0x348 ../../../../lib/32b/libtcpip.a(rripfdb.o)
 .debug_abbrev  0x000252c0      0x251 ../../../../lib/32b/libtcpip.a(rripfwd.o)
 .debug_abbrev  0x00025511      0x1f5 ../../../../lib/32b/libtcpip.a(rrrcirc.o)
 .debug_abbrev  0x00025706      0x26f ../../../../lib/32b/libtcpip.a(rrtask.o)
 .debug_abbrev  0x00025975      0x2ba ../../../../lib/32b/libtcpip.a(res_init.o)
 .debug_abbrev  0x00025c2f      0x2df ../../../../lib/32b/libtcpip.a(gethnama.o)
 .debug_abbrev  0x00025f0e      0x2e9 ../../../../lib/32b/libtcpip.a(dnscache.o)
 .debug_abbrev  0x000261f7      0x309 ../../../../lib/32b/libtcpip.a(pppdev.o)
 .debug_abbrev  0x00026500      0x2d8 ../../../../lib/32b/libtcpip.a(pppfsm.o)
 .debug_abbrev  0x000267d8      0x360 ../../../../lib/32b/libtcpip.a(pppipcp.o)
 .debug_abbrev  0x00026b38      0x37b ../../../../lib/32b/libtcpip.a(ppplcp.o)
 .debug_abbrev  0x00026eb3      0x35e ../../../../lib/32b/libtcpip.a(ppppap.o)
 .debug_abbrev  0x00027211      0x2bc ../../../../lib/32b/libtcpip.a(pppsend.o)
 .debug_abbrev  0x000274cd      0x25c ../../../../lib/32b/libtcpip.a(pppsess.o)
 .debug_abbrev  0x00027729      0x2f9 ../../../../lib/32b/libtcpip.a(ppputil.o)
 .debug_abbrev  0x00027a22      0x319 ../../../../lib/32b/libtcpip.a(pppauth.o)
 .debug_abbrev  0x00027d3b      0x286 ../../../../lib/32b/libtcpip.a(pppuapi.o)
 .debug_abbrev  0x00027fc1      0x3ab ../../../../lib/32b/libtcpip.a(dhcpapi.o)
 .debug_abbrev  0x0002836c      0x31f ../../../../lib/32b/libtcpip.a(dhcparp.o)
 .debug_abbrev  0x0002868b      0x275 ../../../../lib/32b/libtcpip.a(options.o)
 .debug_abbrev  0x00028900      0x337 ../../../../lib/32b/libtcpip.a(client.o)
 .debug_abbrev  0x00028c37      0x318 ../../../../lib/32b/libtcpip.a(pppapi.o)
 .debug_abbrev  0x00028f4f      0x361 ../../../../lib/32b/libtcpip.a(modem.o)
 .debug_abbrev  0x000292b0      0x1c4 ../../../../lib/32b/libtcpip.a(uart_bpool.o)
 .debug_abbrev  0x00029474      0x319 ../../../../lib/32b/libtcpip.a(osdep.o)
 .debug_abbrev  0x0002978d      0x239 ../../../../lib/32b/libtcpip.a(bdoptlib.o)
 .debug_abbrev  0x000299c6      0x328 ../../../../lib/32b/libtcpip.a(bootpapi.o)
 .debug_abbrev  0x00029cee      0x270 ../../../../lib/32b/libtcpip.a(udpxmit.o)
 .debug_abbrev  0x00029f5e      0x37a ../../../../lib/32b/libtcpip.a(arp.o)
 .debug_abbrev  0x0002a2d8      0x25c ../../../../lib/32b/libtcpip.a(bind.o)
 .debug_abbrev  0x0002a534      0x217 ../../../../lib/32b/libtcpip.a(connect.o)
 .debug_abbrev  0x0002a74b      0x2c8 ../../../../lib/32b/libtcpip.a(enet.o)
 .debug_abbrev  0x0002aa13      0x258 ../../../../lib/32b/libtcpip.a(frk.o)
 .debug_abbrev  0x0002ac6b      0x2b1 ../../../../lib/32b/libtcpip.a(frklk.o)
 .debug_abbrev  0x0002af1c      0x27a ../../../../lib/32b/libtcpip.a(fselect.o)
 .debug_abbrev  0x0002b196      0x217 ../../../../lib/32b/libtcpip.a(getpeern.o)
 .debug_abbrev  0x0002b3ad      0x217 ../../../../lib/32b/libtcpip.a(getsockn.o)
 .debug_abbrev  0x0002b5c4      0x22d ../../../../lib/32b/libtcpip.a(inet_add.o)
 .debug_abbrev  0x0002b7f1      0x219 ../../../../lib/32b/libtcpip.a(ip.o)
 .debug_abbrev  0x0002ba0a      0x240 ../../../../lib/32b/libtcpip.a(lbdev.o)
 .debug_abbrev  0x0002bc4a      0x235 ../../../../lib/32b/libtcpip.a(link.o)
 .debug_abbrev  0x0002be7f      0x217 ../../../../lib/32b/libtcpip.a(listen.o)
 .debug_abbrev  0x0002c096      0x22e ../../../../lib/32b/libtcpip.a(node.o)
 .debug_abbrev  0x0002c2c4      0x237 ../../../../lib/32b/libtcpip.a(nselect.o)
 .debug_abbrev  0x0002c4fb      0x233 ../../../../lib/32b/libtcpip.a(pioctl.o)
 .debug_abbrev  0x0002c72e      0x217 ../../../../lib/32b/libtcpip.a(recv.o)
 .debug_abbrev  0x0002c945      0x224 ../../../../lib/32b/libtcpip.a(recvfrom.o)
 .debug_abbrev  0x0002cb69      0x235 ../../../../lib/32b/libtcpip.a(send.o)
 .debug_abbrev  0x0002cd9e      0x235 ../../../../lib/32b/libtcpip.a(sendto.o)
 .debug_abbrev  0x0002cfd3      0x217 ../../../../lib/32b/libtcpip.a(shutdown.o)
 .debug_abbrev  0x0002d1ea      0x288 ../../../../lib/32b/libtcpip.a(sob.o)
 .debug_abbrev  0x0002d472      0x24b ../../../../lib/32b/libtcpip.a(socket.o)
 .debug_abbrev  0x0002d6bd      0x235 ../../../../lib/32b/libtcpip.a(accept.o)
 .debug_abbrev  0x0002d8f2      0x25b ../../../../lib/32b/libtcpip.a(tcpperf.o)
 .debug_abbrev  0x0002db4d      0x26a ../../../../lib/32b/libtcpip.a(ndq.o)
 .debug_abbrev  0x0002ddb7      0x1bc ../../../../lib/32b/libtcpip.a(strcmpi.o)
 .debug_abbrev  0x0002df73      0x27c ../../../../lib/32b/libtcpip.a(inet_pto.o)
 .debug_abbrev  0x0002e1ef      0x2f2 ../../../../lib/32b/libtcpip.a(res_comp.o)
 .debug_abbrev  0x0002e4e1      0x2b3 ../../../../lib/32b/libtcpip.a(res_quer.o)
 .debug_abbrev  0x0002e794      0x2c2 ../../../../lib/32b/libtcpip.a(res_send.o)
 .debug_abbrev  0x0002ea56      0x326 ../../../../lib/32b/libtcpip.a(vjcomp.o)
 .debug_abbrev  0x0002ed7c      0x2b9 ../../../../lib/32b/libtcpip.a(pppbs.o)
 .debug_abbrev  0x0002f035      0x36f ../../../../lib/32b/libtcpip.a(pppchap.o)
 .debug_abbrev  0x0002f3a4      0x2ce ../../../../lib/32b/libtcpip.a(ppprecv.o)
 .debug_abbrev  0x0002f672      0x240 ../../../../lib/32b/libtcpip.a(ppp.o)
 .debug_abbrev  0x0002f8b2      0x2d4 ../../../../lib/32b/libtcpip.a(socketif.o)
 .debug_abbrev  0x0002fb86      0x24e ../../../../lib/32b/libtcpip.a(if.o)
 .debug_abbrev  0x0002fdd4      0x300 ../../../../lib/32b/libtcpip.a(uart.o)
 .debug_abbrev  0x000300d4      0x26e ../../../../lib/32b/libtcpip.a(nullmdm.o)
 .debug_abbrev  0x00030342      0x339 ../../../../lib/32b/libtcpip.a(bootp.o)
 .debug_abbrev  0x0003067b      0x28e ../../../../lib/32b/libtcpip.a(res_mkqu.o)
 .debug_abbrev  0x00030909      0x16e ../../../../lib/32b/gnu/libc.a(assert.o)
 .debug_abbrev  0x00030a77      0x17b ../../../../lib/32b/gnu/libc.a(bzero.o)
 .debug_abbrev  0x00030bf2      0x17d ../../../../lib/32b/gnu/libc.a(div.o)
 .debug_abbrev  0x00030d6f      0x171 ../../../../lib/32b/gnu/libc.a(fiprintf.o)
 .debug_abbrev  0x00030ee0       0xa9 ../../../../lib/32b/gnu/libc.a(libcfunc.o)
 .debug_abbrev  0x00030f89      0x196 ../../../../lib/32b/gnu/libc.a(puts.o)
 .debug_abbrev  0x0003111f      0x185 ../../../../lib/32b/gnu/libc.a(sysclose.o)
 .debug_abbrev  0x000312a4      0x171 ../../../../lib/32b/gnu/libc.a(sysread.o)
 .debug_abbrev  0x00031415      0x176 ../../../../lib/32b/gnu/libc.a(syswrite.o)
 .debug_abbrev  0x0003158b      0x2c4 ../../../../lib/32b/gnu/libc.a(vfiprintf.o)
 .debug_abbrev  0x0003184f      0x196 ../../../../lib/32b/gnu/libc.a(wbuf.o)
 .debug_abbrev  0x000319e5      0x24f ../../../../lib/32b/librphttpd.a(RpForm.o)
 .debug_abbrev  0x00031c34      0x273 ../../../../lib/32b/librphttpd.a(RpHtml.o)
 .debug_abbrev  0x00031ea7      0x229 ../../../../lib/32b/librphttpd.a(RpQuery.o)
 .debug_abbrev  0x000320d0      0x300 ../../../../lib/32b/librphttpd.a(hserv.o)
 .debug_abbrev  0x000323d0      0x25c ../../../../lib/32b/librphttpd.a(RpHttp.o)
 .debug_abbrev  0x0003262c      0x210 ../../../../lib/32b/librphttpd.a(RpFrmItm.o)
 .debug_abbrev  0x0003283c      0x2a8 ../../../../lib/32b/librphttpd.a(RmSmtp.o)
 .debug_abbrev  0x00032ae4      0x255 ../../../../lib/32b/librphttpd.a(AsCommon.o)
 .debug_abbrev  0x00032d39      0x2a2 ../../../../lib/32b/librphttpd.a(AsDate.o)
 .debug_abbrev  0x00032fdb      0x1ec ../../../../lib/32b/librphttpd.a(AsGlobal.o)
 .debug_abbrev  0x000331c7      0x2a1 ../../../../lib/32b/librphttpd.a(AsMain.o)
 .debug_abbrev  0x00033468      0x25a ../../../../lib/32b/librphttpd.a(AsMimes.o)
 .debug_abbrev  0x000336c2      0x2a2 ../../../../lib/32b/librphttpd.a(AsParse.o)
 .debug_abbrev  0x00033964      0x26a ../../../../lib/32b/librphttpd.a(AsBase64.o)
 .debug_abbrev  0x00033bce      0x257 ../../../../lib/32b/librphttpd.a(AsConvrt.o)
 .debug_abbrev  0x00033e25      0x2d0 ../../../../lib/32b/librphttpd.a(AsVarAcc.o)
 .debug_abbrev  0x000340f5      0x22d ../../../../lib/32b/librphttpd.a(AsCustom.o)
 .debug_abbrev  0x00034322      0x2bb ../../../../lib/32b/librphttpd.a(Sfil.o)
 .debug_abbrev  0x000345dd      0x2e9 ../../../../lib/32b/librphttpd.a(STCP.o)
 .debug_abbrev  0x000348c6      0x2e3 ../../../../lib/32b/librphttpd.a(RpAccess.o)
 .debug_abbrev  0x00034ba9      0x279 ../../../../lib/32b/librphttpd.a(RpData.o)
 .debug_abbrev  0x00034e22      0x210 ../../../../lib/32b/librphttpd.a(RpHttpDy.o)
 .debug_abbrev  0x00035032      0x226 ../../../../lib/32b/librphttpd.a(RpUser.o)
 .debug_abbrev  0x00035258      0x1de ../../../../lib/32b/librphttpd.a(mcfil.o)
 .debug_abbrev  0x00035436      0x28a ../../../../lib/32b/librphttpd.a(RpHttpRq.o)
 .debug_abbrev  0x000356c0      0x27b ../../../../lib/32b/librphttpd.a(RpHttpPs.o)
 .debug_abbrev  0x0003593b      0x277 ../../../../lib/32b/librphttpd.a(RpFile.o)
 .debug_abbrev  0x00035bb2      0x290 ../../../../lib/32b/librphttpd.a(RmMailer.o)
 .debug_abbrev  0x00035e42      0x1ec ../../../../lib/32b/librphttpd.a(RmData.o)
 .debug_abbrev  0x0003602e      0x26e ../../../../lib/32b/librphttpd.a(PrPop3.o)
 .debug_abbrev  0x0003629c      0x1ec ../../../../lib/32b/librphttpd.a(PrData.o)
 .debug_abbrev  0x00036488      0x280 ../../../../lib/32b/librphttpd.a(maw_main.o)
 .debug_abbrev  0x00036708      0x26d ../../../../lib/32b/librphttpd.a(AsMD5.o)
 .debug_abbrev  0x00036975      0x294 ../../../../lib/32b/librphttpd.a(Spwd.o)
 .debug_abbrev  0x00036c09      0x229 ../../../../lib/32b/librphttpd.a(RpCallBk.o)
 .debug_abbrev  0x00036e32      0x27b ../../../../lib/32b/librphttpd.a(RpMulti.o)
 .debug_abbrev  0x000370ad      0x256 ../../../../lib/32b/librphttpd.a(RpUrl.o)
 .debug_abbrev  0x00037303      0x2b2 ../../../../lib/32b/librphttpd.a(PrRomPop.o)
 .debug_abbrev  0x000375b5      0x244 ../../../../lib/32b/libmanMib.a(MibMan.o)
 .debug_abbrev  0x000377f9      0x256 ../../../../lib/32b/libmanMib.a(RFC1213_MIB.o)
 .debug_abbrev  0x00037a4f      0x278 ../../../../lib/32b/libmanMib.a(SNMPv2_MIB.o)
 .debug_abbrev  0x00037cc7      0x1f9 ../../../../lib/32b/libmanMib.a(RFC1213_MIBAction.o)
 .debug_abbrev  0x00037ec0      0x21e ../../../../lib/32b/libmanMib.a(SNMPv2_MIBAction.o)
 .debug_abbrev  0x000380de      0x2da ../../../../lib/32b/libmanMib.a(man_sys.o)
 .debug_abbrev  0x000383b8      0x314 ../../../../lib/32b/libmanMib.a(man_if.o)
 .debug_abbrev  0x000386cc      0x2c2 ../../../../lib/32b/libmanMib.a(man_at.o)
 .debug_abbrev  0x0003898e      0x2f8 ../../../../lib/32b/libmanMib.a(man_ip.o)
 .debug_abbrev  0x00038c86      0x2c4 ../../../../lib/32b/libmanMib.a(man_icmp.o)
 .debug_abbrev  0x00038f4a      0x2f3 ../../../../lib/32b/libmanMib.a(man_tcp.o)
 .debug_abbrev  0x0003923d      0x2d3 ../../../../lib/32b/libmanMib.a(man_upd.o)
 .debug_abbrev  0x00039510      0x2d1 ../../../../lib/32b/libmanMib.a(man_egp.o)
 .debug_abbrev  0x000397e1      0x2c4 ../../../../lib/32b/libmanMib.a(man_snmp.o)
 .debug_abbrev  0x00039aa5      0x2be ../../../../lib/32b/libsntp.a(UDPsntp.o)
 .debug_abbrev  0x00039d63      0x27a ../../../../lib/32b/libfilesys.a(fss.o)
 .debug_abbrev  0x00039fdd      0x253 ../../../../lib/32b/libfilesys.a(rss.o)
 .debug_abbrev  0x0003a230      0x101 ../../../../lib/32b/libfilesys.a(crc32h.o)
 .debug_abbrev  0x0003a331      0x15f ../../../../lib/32b/libfilesys.a(bheader.o)
 .debug_abbrev  0x0003a490      0x234 ../../../../lib/32b/libfilesys.a(fs_api.o)
 .debug_abbrev  0x0003a6c4      0x220 ../../../../lib/32b/libfilesys.a(io.o)
 .debug_abbrev  0x0003a8e4      0x1fe ../../../../lib/32b/libfilesys.a(parser.o)
 .debug_abbrev  0x0003aae2      0x22c ../../../../lib/32b/libfilesys.a(ftables.o)
 .debug_abbrev  0x0003ad0e      0x1a7 ../../../../lib/32b/libfilesys.a(thread.o)
 .debug_abbrev  0x0003aeb5       0x98 ../../../../lib/32b/libfilesys.a(sblock.o)
 .debug_abbrev  0x0003af4d      0x1c0 ../../../../lib/32b/libfilesys.a(bpool.o)
 .debug_abbrev  0x0003b10d      0x218 ../../../../lib/32b/libfilesys.a(pwr_loss.o)
 .debug_abbrev  0x0003b325      0x204 ../../../../lib/32b/libfilesys.a(inode.o)
 .debug_abbrev  0x0003b529      0x242 ../../../../lib/32b/libfilesys.a(services.o)
 .debug_abbrev  0x0003b76b      0x2a3 ../../../../lib/32b/libbsp.a(MII.o)
 .debug_abbrev  0x0003ba0e      0x1f8 ../../../../lib/32b/libbsp.a(select_support.o)
 .debug_abbrev  0x0003bc06      0x2df ../../../../lib/32b/libbsp.a(eth_init.o)
 .debug_abbrev  0x0003bee5      0x2be ../../../../lib/32b/libbsp.a(eth_dma.o)
 .debug_abbrev  0x0003c1a3      0x254 ../../../../lib/32b/libbsp.a(eth_isr.o)
 .debug_abbrev  0x0003c3f7      0x263 ../../../../lib/32b/libbsp.a(eth_mcast.o)
 .debug_abbrev  0x0003c65a      0x25a ../../../../lib/32b/libbsp.a(eth_os.o)
 .debug_abbrev  0x0003c8b4      0x2bf ../../../../lib/32b/libbsp.a(eth_recv.o)
 .debug_abbrev  0x0003cb73      0x303 ../../../../lib/32b/libbsp.a(eth_send.o)
 .debug_abbrev  0x0003ce76      0x2ed ../../../../lib/32b/libbsp.a(eth_stack.o)
 .debug_abbrev  0x0003d163      0x247 ../../../../lib/32b/libbsp.a(eth_watchdog.o)
 .debug_abbrev  0x0003d3aa      0x2ad ../../../../lib/32b/libbsp.a(eth_reset.o)
 .debug_abbrev  0x0003d657       0xee ../../../../lib/32b/libtx.a(tx_timeg.o)
 .debug_abbrev  0x0003d745       0xd8 ../../../../lib/32b/libtx.a(txe_efs.o)
 .debug_abbrev  0x0003d81d       0xe9 ../../../../lib/32b/libtx.a(txe_tpch.o)
 .debug_abbrev  0x0003d906       0xc7 ../../../../lib/32b/libtx.a(txe_trel.o)
 .debug_abbrev  0x0003d9cd       0xd8 ../../../../lib/32b/libtx.a(TXE_TIG.o)
 .debug_abbrev  0x0003daa5       0xe9 ../../../../lib/32b/libtx.a(TXE_MD.o)
 .debug_abbrev  0x0003db8e       0xec ../../../../lib/32b/libtx.a(tx_trel.o)
 .debug_abbrev  0x0003dc7a      0x10e ../../../../lib/32b/libtx.a(tx_tpch.o)
 .debug_abbrev  0x0003dd88      0x11d ../../../../lib/32b/libtx.a(tx_efs.o)
 .debug_abbrev  0x0003dea5       0xec ../../../../lib/32b/libtx.a(TX_TIG.o)
 .debug_abbrev  0x0003df91      0x10e ../../../../lib/32b/libtx.a(TX_MD.o)
 .debug_abbrev  0x0003e09f      0x37d ../../../../lib/32b/libemailc.a(allegro_mailc.o)
 .debug_abbrev  0x0003e41c      0x217 ../../../../lib/32b/libtcpip.a(udpopen.o)
 .debug_abbrev  0x0003e633      0x1c5 ../../../../lib/32b/libtcpip.a(strcpy.o)
 .debug_abbrev  0x0003e7f8      0x1b6 ../../../../lib/32b/libtcpip.a(strlen.o)
 .debug_abbrev  0x0003e9ae      0x1c5 ../../../../lib/32b/libtcpip.a(memory.o)
 .debug_abbrev  0x0003eb73      0x226 ../../../../lib/32b/libtcpip.a(ipbind.o)
 .debug_abbrev  0x0003ed99      0x15f ../../../../lib/32b/gnu/libc.a(atol.o)
 .debug_abbrev  0x0003eef8      0x197 ../../../../lib/32b/gnu/libc.a(rand.o)
 .debug_abbrev  0x0003f08f      0x191 ../../../../lib/32b/gnu/libc.a(time.o)
 .debug_abbrev  0x0003f220      0x1c9 ../../../../lib/32b/gnu/libc.a(timer.o)

.debug_line     0x00000000    0xbe6d5
 *(.debug_line)
 .debug_line    0x00000000      0x60c ./objs/appconf_api.o
 .debug_line    0x0000060c     0x18c4 ./objs/root.o
 .debug_line    0x00001ed0      0x42a ./objs/MibMan.o
 .debug_line    0x000022fa      0x22a ./objs/EARMIB.o
 .debug_line    0x00002524     0x2ea8 ./objs/EARMIBAction.o
 .debug_line    0x000053cc     0x1fb1 ./objs/ipgFlash.o
 .debug_line    0x0000737d      0x54d ./objs/telnet.o
 .debug_line    0x000078ca     0x2439 ./objs/menu.o
 .debug_line    0x00009d03     0x102f ./objs/ipgsnmp.o
 .debug_line    0x0000ad32      0x3dd ./objs/earTemperatureAlarmThreshold.o
 .debug_line    0x0000b10f      0x881 ./objs/earSnmpMngrTable.o
 .debug_line    0x0000b990      0x444 ./objs/earTrapPort.o
 .debug_line    0x0000bdd4      0x3bc ./objs/earPumpsOff.o
 .debug_line    0x0000c190      0x326 ./objs/earChassisReboot.o
 .debug_line    0x0000c4b6      0x2f5 ./objs/earModelNumberRead.o
 .debug_line    0x0000c7ab      0x45d ./objs/earRtcTime.o
 .debug_line    0x0000cc08       0xdd ./objs/find_highwater.o
 .debug_line    0x0000cce5      0x812 ./objs/readFrom2U2.o
 .debug_line    0x0000d4f7      0x403 ./objs/semaphores.o
 .debug_line    0x0000d8fa      0x56c ./objs/Snmp_api.o
 .debug_line    0x0000de66      0x403 ./objs/configNotification.o
 .debug_line    0x0000e269      0x287 ./objs/atmel.o
 .debug_line    0x0000e4f0       0x70 ./objs/EDFAWelcomePage.o
 .debug_line    0x0000e560      0x62d ./objs/EDFAWelcomePage_v.o
 .debug_line    0x0000eb8d       0x68 ./objs/RpPages.o
 .debug_line    0x0000ebf5      0x147 ./objs/security.o
 .debug_line    0x0000ed3c       0x69 ./objs/RpUsrDct.o
 .debug_line    0x0000eda5       0xaf ./objs/cgi.o
 .debug_line    0x0000ee54      0x1c0 ./objs/file.o
 .debug_line    0x0000f014      0x566 ./objs/naftpapp.o
 .debug_line    0x0000f57a      0x40f /usr/lib/gcc-lib/arm-elf/3.2/be/libgcc.a(_addsub_sf.o)
 .debug_line    0x0000f989      0x2d7 /usr/lib/gcc-lib/arm-elf/3.2/be/libgcc.a(_div_sf.o)
 .debug_line    0x0000fc60      0x12f /usr/lib/gcc-lib/arm-elf/3.2/be/libgcc.a(_si_to_sf.o)
 .debug_line    0x0000fd8f       0x9d /usr/lib/gcc-lib/arm-elf/3.2/be/libgcc.a(_sf_to_df.o)
 .debug_line    0x0000fe2c       0x72 /usr/lib/gcc-lib/arm-elf/3.2/be/libgcc.a(_thenan_sf.o)
 .debug_line    0x0000fe9e      0x317 /usr/lib/gcc-lib/arm-elf/3.2/be/libgcc.a(_div_df.o)
 .debug_line    0x000101b5       0xb5 /usr/lib/gcc-lib/arm-elf/3.2/be/libgcc.a(_make_df.o)
 .debug_line    0x0001026a      0x105 /usr/lib/gcc-lib/arm-elf/3.2/be/libgcc.a(_df_to_sf.o)
 .debug_line    0x0001036f       0x72 /usr/lib/gcc-lib/arm-elf/3.2/be/libgcc.a(_thenan_df.o)
 .debug_line    0x000103e1      0x246 /usr/lib/gcc-lib/arm-elf/3.2/be/libgcc.a(_pack_sf.o)
 .debug_line    0x00010627      0x19f /usr/lib/gcc-lib/arm-elf/3.2/be/libgcc.a(_unpack_sf.o)
 .debug_line    0x000107c6       0xad /usr/lib/gcc-lib/arm-elf/3.2/be/libgcc.a(_make_sf.o)
 .debug_line    0x00010873      0x2d0 /usr/lib/gcc-lib/arm-elf/3.2/be/libgcc.a(_pack_df.o)
 .debug_line    0x00010b43      0x1df /usr/lib/gcc-lib/arm-elf/3.2/be/libgcc.a(_unpack_df.o)
 .debug_line    0x00010d22      0x10f /usr/lib/gcc-lib/arm-elf/3.2/be/libgcc.a(_lshrdi3.o)
 .debug_line    0x00010e31      0x10f /usr/lib/gcc-lib/arm-elf/3.2/be/libgcc.a(_ashldi3.o)
 .debug_line    0x00010f40       0xec ../../../../lib/32b/gnu/libc.a(atof.o)
 .debug_line    0x0001102c       0xec ../../../../lib/32b/gnu/libc.a(atoi.o)
 .debug_line    0x00011118       0xfe ../../../../lib/32b/gnu/libc.a(calloc.o)
 .debug_line    0x00011216      0x167 ../../../../lib/32b/gnu/libc.a(callocr.o)
 .debug_line    0x0001137d      0x166 ../../../../lib/32b/gnu/libc.a(exit.o)
 .debug_line    0x000114e3      0x1e4 ../../../../lib/32b/gnu/libc.a(fflush.o)
 .debug_line    0x000116c7      0x41c ../../../../lib/32b/gnu/libc.a(findfp.o)
 .debug_line    0x00011ae3      0x178 ../../../../lib/32b/gnu/libc.a(fwalk.o)
 .debug_line    0x00011c5b      0x109 ../../../../lib/32b/gnu/libc.a(impure.o)
 .debug_line    0x00011d64       0xbc ../../../../lib/32b/gnu/libc.a(isdigit.o)
 .debug_line    0x00011e20       0xbc ../../../../lib/32b/gnu/libc.a(isspace.o)
 .debug_line    0x00011edc      0x10d ../../../../lib/32b/gnu/libc.a(lcltime.o)
 .debug_line    0x00011fe9      0x11a ../../../../lib/32b/gnu/libc.a(lcltime_r.o)
 .debug_line    0x00012103      0x13d ../../../../lib/32b/gnu/libc.a(malloc.o)
 .debug_line    0x00012240      0x75b ../../../../lib/32b/gnu/libc.a(mallocr.o)
 .debug_line    0x0001299b      0x158 ../../../../lib/32b/gnu/libc.a(memcmp.o)
 .debug_line    0x00012af3      0x166 ../../../../lib/32b/gnu/libc.a(memcpy.o)
 .debug_line    0x00012c59      0x190 ../../../../lib/32b/gnu/libc.a(memset.o)
 .debug_line    0x00012de9      0x4ba ../../../../lib/32b/gnu/libc.a(mktm_r.o)
 .debug_line    0x000132a3       0xd0 ../../../../lib/32b/gnu/libc.a(mlock.o)
 .debug_line    0x00013373      0x142 ../../../../lib/32b/gnu/libc.a(printf.o)
 .debug_line    0x000134b5      0x150 ../../../../lib/32b/gnu/libc.a(rget.o)
 .debug_line    0x00013605      0x153 ../../../../lib/32b/gnu/libc.a(sbrkr.o)
 .debug_line    0x00013758      0x244 ../../../../lib/32b/gnu/libc.a(snprintf.o)
 .debug_line    0x0001399c      0x1fe ../../../../lib/32b/gnu/libc.a(sprintf.o)
 .debug_line    0x00013b9a      0x255 ../../../../lib/32b/gnu/libc.a(sscanf.o)
 .debug_line    0x00013def      0x270 ../../../../lib/32b/gnu/libc.a(stdio.o)
 .debug_line    0x0001405f      0x128 ../../../../lib/32b/gnu/libc.a(strcat.o)
 .debug_line    0x00014187      0x158 ../../../../lib/32b/gnu/libc.a(strchr.o)
 .debug_line    0x000142df      0x13c ../../../../lib/32b/gnu/libc.a(strcmp.o)
 .debug_line    0x0001441b      0x150 ../../../../lib/32b/gnu/libc.a(strcpy.o)
 .debug_line    0x0001456b      0x128 ../../../../lib/32b/gnu/libc.a(strlen.o)
 .debug_line    0x00014693      0x195 ../../../../lib/32b/gnu/libc.a(strncmp.o)
 .debug_line    0x00014828      0x189 ../../../../lib/32b/gnu/libc.a(strncpy.o)
 .debug_line    0x000149b1      0x128 ../../../../lib/32b/gnu/libc.a(strstr.o)
 .debug_line    0x00014ad9      0xc65 ../../../../lib/32b/gnu/libc.a(strtod.o)
 .debug_line    0x0001573e      0x11a ../../../../lib/32b/gnu/libc.a(strtok.o)
 .debug_line    0x00015858      0x1fa ../../../../lib/32b/gnu/libc.a(strtok_r.o)
 .debug_line    0x00015a52      0x293 ../../../../lib/32b/gnu/libc.a(strtol.o)
 .debug_line    0x00015ce5       0xfc ../../../../lib/32b/gnu/libc.a(tzlock.o)
 .debug_line    0x00015de1      0x42c ../../../../lib/32b/gnu/libc.a(tzset_r.o)
 .debug_line    0x0001620d      0xf68 ../../../../lib/32b/gnu/libc.a(vfprintf.o)
 .debug_line    0x00017175      0xec3 ../../../../lib/32b/gnu/libc.a(vfscanf.o)
 .debug_line    0x00018038      0x154 ../../../../lib/32b/gnu/libc.a(writer.o)
 .debug_line    0x0001818c      0x1fa ../../../../lib/32b/gnu/libc.a(wsetup.o)
 .debug_line    0x00018386      0xbf4 ../../../../lib/32b/gnu/libc.a(syscalls.o)
 .debug_line    0x00018f7a      0x154 ../../../../lib/32b/gnu/libc.a(closer.o)
 .debug_line    0x000190ce       0x5f ../../../../lib/32b/gnu/libc.a(ctype_.o)
 .debug_line    0x0001912d     0x13b2 ../../../../lib/32b/gnu/libc.a(dtoa.o)
 .debug_line    0x0001a4df      0x10e ../../../../lib/32b/gnu/libc.a(errno.o)
 .debug_line    0x0001a5ed      0x1f5 ../../../../lib/32b/gnu/libc.a(fread.o)
 .debug_line    0x0001a7e2      0x42c ../../../../lib/32b/gnu/libc.a(freer.o)
 .debug_line    0x0001ac0e      0x489 ../../../../lib/32b/gnu/libc.a(fvwrite.o)
 .debug_line    0x0001b097      0x1c2 ../../../../lib/32b/gnu/libc.a(getenv_r.o)
 .debug_line    0x0001b259      0x1b1 ../../../../lib/32b/gnu/libc.a(locale.o)
 .debug_line    0x0001b40a      0x154 ../../../../lib/32b/gnu/libc.a(lseekr.o)
 .debug_line    0x0001b55e      0x26f ../../../../lib/32b/gnu/libc.a(makebuf.o)
 .debug_line    0x0001b7cd      0x15a ../../../../lib/32b/gnu/libc.a(mbtowc_r.o)
 .debug_line    0x0001b927      0x1b0 ../../../../lib/32b/gnu/libc.a(memchr.o)
 .debug_line    0x0001bad7      0x1e5 ../../../../lib/32b/gnu/libc.a(memmove.o)
 .debug_line    0x0001bcbc      0xfdf ../../../../lib/32b/gnu/libc.a(mprec.o)
 .debug_line    0x0001cc9b      0x153 ../../../../lib/32b/gnu/libc.a(readr.o)
 .debug_line    0x0001cdee      0x4a2 ../../../../lib/32b/gnu/libc.a(reallocr.o)
 .debug_line    0x0001d290      0x261 ../../../../lib/32b/gnu/libc.a(reent.o)
 .debug_line    0x0001d4f1      0x2ca ../../../../lib/32b/gnu/libc.a(refill.o)
 .debug_line    0x0001d7bb      0x13c ../../../../lib/32b/gnu/libc.a(s_infconst.o)
 .debug_line    0x0001d8f7      0x179 ../../../../lib/32b/gnu/libc.a(s_isinf.o)
 .debug_line    0x0001da70      0x179 ../../../../lib/32b/gnu/libc.a(s_isnan.o)
 .debug_line    0x0001dbe9      0x11e ../../../../lib/32b/gnu/libc.a(setenv.o)
 .debug_line    0x0001dd07      0x267 ../../../../lib/32b/gnu/libc.a(setenv_r.o)
 .debug_line    0x0001df6e      0x2aa ../../../../lib/32b/gnu/libc.a(strtoul.o)
 .debug_line    0x0001e218      0x145 ../../../../lib/32b/gnu/libc.a(sysopen.o)
 .debug_line    0x0001e35d      0x116 ../../../../lib/32b/gnu/libc.a(tzset.o)
 .debug_line    0x0001e473      0x390 ../../../../lib/32b/gnu/libc.a(ungetc.o)
 .debug_line    0x0001e803       0xdd ../../../../lib/32b/gnu/libc.a(bcopy.o)
 .debug_line    0x0001e8e0       0x61 ../../../../lib/32b/gnu/libc.a(environ.o)
 .debug_line    0x0001e941       0xef ../../../../lib/32b/gnu/libc.a(envlock.o)
 .debug_line    0x0001ea30      0x166 ../../../../lib/32b/gnu/libc.a(fstatr.o)
 .debug_line    0x0001eb96      0x417 /usr/lib/gcc-lib/arm-elf/3.2/be/libgcc.a(_udivdi3.o)
 .debug_line    0x0001efad      0x41f /usr/lib/gcc-lib/arm-elf/3.2/be/libgcc.a(_umoddi3.o)
 .debug_line    0x0001f3cc      0x477 /usr/lib/gcc-lib/arm-elf/3.2/be/libgcc.a(_addsub_df.o)
 .debug_line    0x0001f843      0x4e5 /usr/lib/gcc-lib/arm-elf/3.2/be/libgcc.a(_mul_df.o)
 .debug_line    0x0001fd28      0x128 /usr/lib/gcc-lib/arm-elf/3.2/be/libgcc.a(_eq_df.o)
 .debug_line    0x0001fe50      0x128 /usr/lib/gcc-lib/arm-elf/3.2/be/libgcc.a(_ne_df.o)
 .debug_line    0x0001ff78      0x128 /usr/lib/gcc-lib/arm-elf/3.2/be/libgcc.a(_gt_df.o)
 .debug_line    0x000200a0      0x128 /usr/lib/gcc-lib/arm-elf/3.2/be/libgcc.a(_ge_df.o)
 .debug_line    0x000201c8      0x128 /usr/lib/gcc-lib/arm-elf/3.2/be/libgcc.a(_lt_df.o)
 .debug_line    0x000202f0      0x128 /usr/lib/gcc-lib/arm-elf/3.2/be/libgcc.a(_le_df.o)
 .debug_line    0x00020418      0x137 /usr/lib/gcc-lib/arm-elf/3.2/be/libgcc.a(_si_to_df.o)
 .debug_line    0x0002054f      0x19a /usr/lib/gcc-lib/arm-elf/3.2/be/libgcc.a(_df_to_si.o)
 .debug_line    0x000206e9       0xf0 /usr/lib/gcc-lib/arm-elf/3.2/be/libgcc.a(_negate_df.o)
 .debug_line    0x000207d9       0xac /usr/lib/gcc-lib/arm-elf/3.2/be/libgcc.a(_clz.o)
 .debug_line    0x00020885      0x1ba /usr/lib/gcc-lib/arm-elf/3.2/be/libgcc.a(_fpcmp_parts_df.o)
 .debug_line    0x00020a3f      0x1ba ../../../../lib/32b/libbsp.a(bsp_api.o)
 .debug_line    0x00020bf9      0x2ef ../../../../lib/32b/libbsp.a(nainet.o)
 .debug_line    0x00020ee8      0x2da ../../../../lib/32b/libbsp.a(main.o)
 .debug_line    0x000211c2      0x2be ../../../../lib/32b/libbsp.a(errhndlr.o)
 .debug_line    0x00021480      0x2d9 ../../../../lib/32b/libbsp.a(narmbrd.o)
 .debug_line    0x00021759      0x2cf ../../../../lib/32b/libbsp.a(narmled.o)
 .debug_line    0x00021a28      0x1ac ../../../../lib/32b/libbsp.a(devices.o)
 .debug_line    0x00021bd4      0x2c0 ../../../../lib/32b/libbsp.a(flashnvrm.o)
 .debug_line    0x00021e94      0x5ea ../../../../lib/32b/libbsp.a(sysAccess.o)
 .debug_line    0x0002247e      0x5d7 ../../../../lib/32b/libbsp.a(lpbkdev.o)
 .debug_line    0x00022a55      0x34a ../../../../lib/32b/libbsp.a(nuldev.o)
 .debug_line    0x00022d9f      0x4d1 ../../../../lib/32b/libbsp.a(nacache.o)
 .debug_line    0x00023270      0x756 ../../../../lib/32b/libbsp.a(NCC_INIT.o)
 .debug_line    0x000239c6     0x21a1 ../../../../lib/32b/libbsp.a(NCC_POST.o)
 .debug_line    0x00025b67      0x1d5 ../../../../lib/32b/libbsp.a(IRQREG.o)
 .debug_line    0x00025d3c      0x270 ../../../../lib/32b/libbsp.a(gpio.o)
 .debug_line    0x00025fac      0x40c ../../../../lib/32b/libbsp.a(cs.o)
 .debug_line    0x000263b8      0x719 ../../../../lib/32b/libbsp.a(boardParams.o)
 .debug_line    0x00026ad1      0x1f3 ../../../../lib/32b/libbsp.a(nawait.o)
 .debug_line    0x00026cc4      0x151 ../../../../lib/32b/libbsp.a(nareset.o)
 .debug_line    0x00026e15     0x1bdc ../../../../lib/32b/libbsp.a(startfilesystem.o)
 .debug_line    0x000289f1      0x23b ../../../../lib/32b/libbsp.a(fbanks.o)
 .debug_line    0x00028c2c      0xd9e ../../../../lib/32b/libbsp.a(rtc.o)
 .debug_line    0x000299ca      0x25d ../../../../lib/32b/libbsp.a(termios.o)
 .debug_line    0x00029c27     0x2582 ../../../../lib/32b/libbsp.a(netos_serl.o)
 .debug_line    0x0002c1a9      0x611 ../../../../lib/32b/libbsp.a(NA_ISR.o)
 .debug_line    0x0002c7ba      0x112 ../../../../lib/32b/libbsp.a(crc32h.o)
 .debug_line    0x0002c8cc      0x444 ../../../../lib/32b/libbsp.a(udpdb.o)
 .debug_line    0x0002cd10      0x127 ../../../../lib/32b/libbsp.a(bsp.o)
 .debug_line    0x0002ce37      0x5da ../../../../lib/32b/libbsp.a(bsproot.o)
 .debug_line    0x0002d411      0x4d1 ../../../../lib/32b/libbsp.a(starttcp.o)
 .debug_line    0x0002d8e2      0x325 ../../../../lib/32b/libbsp.a(bsptimer.o)
 .debug_line    0x0002dc07      0x14d ../../../../lib/32b/libbsp.a(sysClock.o)
 .debug_line    0x0002dd54     0x174a ../../../../lib/32b/libbsp.a(hdlcdvr.o)
 .debug_line    0x0002f49e      0xa44 ../../../../lib/32b/libbsp.a(aceParams.o)
 .debug_line    0x0002fee2      0x9f1 ../../../../lib/32b/libbsp.a(aceCallbacks.o)
 .debug_line    0x000308d3      0x2e5 ../../../../lib/32b/libbsp.a(naip_global.o)
 .debug_line    0x00030bb8      0x431 ../../../../lib/32b/libbsp.a(naifconfig.o)
 .debug_line    0x00030fe9      0x804 ../../../../lib/32b/libbsp.a(dialog.o)
 .debug_line    0x000317ed      0x190 ../../../../lib/32b/libbsp.a(flashutil.o)
 .debug_line    0x0003197d      0x249 ../../../../lib/32b/libbsp.a(event_handler.o)
 .debug_line    0x00031bc6      0x4e2 ../../../../lib/32b/libbsp.a(hdlcmem.o)
 .debug_line    0x000320a8     0x254c ../../../../lib/32b/libflash.a(naflash.o)
 .debug_line    0x000345f4      0x141 ../../../../lib/32b/libflash.a(naflsem.o)
 .debug_line    0x00034735      0x49f ../../../../lib/32b/libposix.a(posix_semaphore.o)
 .debug_line    0x00034bd4      0x84f ../../../../lib/32b/libposix.a(posix_thread.o)
 .debug_line    0x00035423       0xf1 ../../../../lib/32b/libtx.a(tx_ike.o)
 .debug_line    0x00035514      0x137 ../../../../lib/32b/libtx.a(tx_timi.o)
 .debug_line    0x0003564b      0x16f ../../../../lib/32b/libtx.a(tx_ti.o)
 .debug_line    0x000357ba      0x205 ../../../../lib/32b/libtx.a(tx_tc.o)
 .debug_line    0x000359bf      0x19c ../../../../lib/32b/libtx.a(tx_tr.o)
 .debug_line    0x00035b5b      0x221 ../../../../lib/32b/libtx.a(tx_tte.o)
 .debug_line    0x00035d7c      0x11c ../../../../lib/32b/libtx.a(tx_ta.o)
 .debug_line    0x00035e98       0xcd ../../../../lib/32b/libtx.a(tx_tto.o)
 .debug_line    0x00035f65       0xf2 ../../../../lib/32b/libtx.a(tx_tsle.o)
 .debug_line    0x00036057       0x7e ../../../../lib/32b/libtx.a(tx_tide.o)
 .debug_line    0x000360d5      0x121 ../../../../lib/32b/libtx.a(tx_gnu.o)
 .debug_line    0x000361f6       0xb2 ../../../../lib/32b/libtx.a(txe_efc.o)
 .debug_line    0x000362a8       0xd2 ../../../../lib/32b/libtx.a(txe_efg.o)
 .debug_line    0x0003637a       0xe1 ../../../../lib/32b/libtx.a(txe_qc.o)
 .debug_line    0x0003645b       0xc1 ../../../../lib/32b/libtx.a(txe_qr.o)
 .debug_line    0x0003651c       0xc1 ../../../../lib/32b/libtx.a(txe_qs.o)
 .debug_line    0x000365dd       0xb1 ../../../../lib/32b/libtx.a(txe_sc.o)
 .debug_line    0x0003668e       0xb1 ../../../../lib/32b/libtx.a(txe_sd.o)
 .debug_line    0x0003673f       0xb1 ../../../../lib/32b/libtx.a(txe_sg.o)
 .debug_line    0x000367f0       0x89 ../../../../lib/32b/libtx.a(txe_sp.o)
 .debug_line    0x00036879      0x101 ../../../../lib/32b/libtx.a(txe_tc.o)
 .debug_line    0x0003697a       0xa7 ../../../../lib/32b/libtx.a(txe_tdel.o)
 .debug_line    0x00036a21       0xb7 ../../../../lib/32b/libtx.a(txe_trpc.o)
 .debug_line    0x00036ad8       0x8a ../../../../lib/32b/libtx.a(txe_tra.o)
 .debug_line    0x00036b62       0xa6 ../../../../lib/32b/libtx.a(txe_tsa.o)
 .debug_line    0x00036c08       0xa5 ../../../../lib/32b/libtx.a(txe_tt.o)
 .debug_line    0x00036cad       0x8a ../../../../lib/32b/libtx.a(txe_taa.o)
 .debug_line    0x00036d37       0xb7 ../../../../lib/32b/libtx.a(txe_tmch.o)
 .debug_line    0x00036dee       0xd3 ../../../../lib/32b/libtx.a(txe_tmcr.o)
 .debug_line    0x00036ec1       0x8a ../../../../lib/32b/libtx.a(txe_tda.o)
 .debug_line    0x00036f4b       0xb3 ../../../../lib/32b/libtx.a(txe_timd.o)
 .debug_line    0x00036ffe      0x10c ../../../../lib/32b/libtx.a(TX_MC.o)
 .debug_line    0x0003710a      0x1b4 ../../../../lib/32b/libtx.a(TX_MG.o)
 .debug_line    0x000372be      0x22c ../../../../lib/32b/libtx.a(TX_MP.o)
 .debug_line    0x000374ea      0x11a ../../../../lib/32b/libtx.a(TX_MPRI.o)
 .debug_line    0x00037604      0x1cd ../../../../lib/32b/libtx.a(TX_MPC.o)
 .debug_line    0x000377d1      0x126 ../../../../lib/32b/libtx.a(TX_MCLE.o)
 .debug_line    0x000378f7       0xc1 ../../../../lib/32b/libtx.a(TXE_MC.o)
 .debug_line    0x000379b8       0xb1 ../../../../lib/32b/libtx.a(TXE_MG.o)
 .debug_line    0x00037a69       0x89 ../../../../lib/32b/libtx.a(TXE_MP.o)
 .debug_line    0x00037af2       0xf1 ../../../../lib/32b/libtx.a(tx_ihl.o)
 .debug_line    0x00037be3       0xad ../../../../lib/32b/libtx.a(tx_tse.o)
 .debug_line    0x00037c90      0x27e ../../../../lib/32b/libtx.a(tx_tsus.o)
 .debug_line    0x00037f0e       0xe5 ../../../../lib/32b/libtx.a(tx_tsa.o)
 .debug_line    0x00037ff3       0xed ../../../../lib/32b/libtx.a(tx_tra.o)
 .debug_line    0x000380e0       0xe5 ../../../../lib/32b/libtx.a(tx_tts.o)
 .debug_line    0x000381c5       0xe6 ../../../../lib/32b/libtx.a(tx_tdel.o)
 .debug_line    0x000382ab      0x1f7 ../../../../lib/32b/libtx.a(tx_tprch.o)
 .debug_line    0x000384a2      0x104 ../../../../lib/32b/libtx.a(tx_tt.o)
 .debug_line    0x000385a6       0xe0 ../../../../lib/32b/libtx.a(tx_td.o)
 .debug_line    0x00038686      0x127 ../../../../lib/32b/libtx.a(tx_timcr.o)
 .debug_line    0x000387ad       0x89 ../../../../lib/32b/libtx.a(tx_taa.o)
 .debug_line    0x00038836      0x12d ../../../../lib/32b/libtx.a(tx_tda.o)
 .debug_line    0x00038963       0xa3 ../../../../lib/32b/libtx.a(tx_timch.o)
 .debug_line    0x00038a06       0xde ../../../../lib/32b/libtx.a(tx_timd.o)
 .debug_line    0x00038ae4      0x104 ../../../../lib/32b/libtx.a(tx_sc.o)
 .debug_line    0x00038be8      0x168 ../../../../lib/32b/libtx.a(tx_sd.o)
 .debug_line    0x00038d50      0x164 ../../../../lib/32b/libtx.a(tx_sg.o)
 .debug_line    0x00038eb4      0x12c ../../../../lib/32b/libtx.a(tx_sp.o)
 .debug_line    0x00038fe0      0x126 ../../../../lib/32b/libtx.a(tx_scle.o)
 .debug_line    0x00039106      0x1ac ../../../../lib/32b/libtx.a(tx_qc.o)
 .debug_line    0x000392b2      0x34c ../../../../lib/32b/libtx.a(tx_qs.o)
 .debug_line    0x000395fe      0x384 ../../../../lib/32b/libtx.a(tx_qr.o)
 .debug_line    0x00039982      0x136 ../../../../lib/32b/libtx.a(tx_qcle.o)
 .debug_line    0x00039ab8      0x10d ../../../../lib/32b/libtx.a(tx_efc.o)
 .debug_line    0x00039bc5      0x1bd ../../../../lib/32b/libtx.a(tx_efg.o)
 .debug_line    0x00039d82      0x127 ../../../../lib/32b/libtx.a(tx_efcle.o)
 .debug_line    0x00039ea9      0x3f9 ../../../../lib/32b/libmanapi.a(man_env.o)
 .debug_line    0x0003a2a2      0xdea ../../../../lib/32b/libmanapi.a(man_init.o)
 .debug_line    0x0003b08c      0x12a ../../../../lib/32b/libmanapi.a(hash.o)
 .debug_line    0x0003b1b6     0x107c ../../../../lib/32b/libmanapi.a(man_row.o)
 .debug_line    0x0003c232      0x971 ../../../../lib/32b/libmanapi.a(man_main.o)
 .debug_line    0x0003cba3      0x3b6 ../../../../lib/32b/libftpsvr.a(ftposp.o)
 .debug_line    0x0003cf59     0x2029 ../../../../lib/32b/libftpsvr.a(ftpsvr.o)
 .debug_line    0x0003ef82      0xca9 ../../../../lib/32b/libtelnsvr.a(ts_mod.o)
 .debug_line    0x0003fc2b     0x1534 ../../../../lib/32b/libtelnsvr.a(telnetd2.o)
 .debug_line    0x0004115f      0x13b ../../../../lib/32b/libtelnsvr.a(fsminit.o)
 .debug_line    0x0004129a      0x117 ../../../../lib/32b/libtelnsvr.a(ttfsm.o)
 .debug_line    0x000413b1      0x33e ../../../../lib/32b/libtelnsvr.a(ttgetc.o)
 .debug_line    0x000416ef      0x116 ../../../../lib/32b/libtelnsvr.a(will_not.o)
 .debug_line    0x00041805      0x273 ../../../../lib/32b/libtelnsvr.a(do_echo.o)
 .debug_line    0x00041a78      0x273 ../../../../lib/32b/libtelnsvr.a(do_noga.o)
 .debug_line    0x00041ceb      0x1b4 ../../../../lib/32b/libtelnsvr.a(do_notsu.o)
 .debug_line    0x00041e9f      0x274 ../../../../lib/32b/libtelnsvr.a(do_txbin.o)
 .debug_line    0x00042113       0xf2 ../../../../lib/32b/libtelnsvr.a(tcga.o)
 .debug_line    0x00042205      0x114 ../../../../lib/32b/libtelnsvr.a(recopt.o)
 .debug_line    0x00042319      0x378 ../../../../lib/32b/libdnsclnt.a(dnsc_api.o)
 .debug_line    0x00042691      0xe76 ../../../../lib/32b/libfastip.a(fast_ip.o)
 .debug_line    0x00043507     0x11c5 ../../../../lib/32b/libtcpip.a(ace.o)
 .debug_line    0x000446cc      0x40e ../../../../lib/32b/libtcpip.a(ace_os.o)
 .debug_line    0x00044ada      0x839 ../../../../lib/32b/libtcpip.a(ace_dhcp.o)
 .debug_line    0x00045313      0x3a7 ../../../../lib/32b/libtcpip.a(ace_bootp.o)
 .debug_line    0x000456ba      0x440 ../../../../lib/32b/libtcpip.a(ace_autoip.o)
 .debug_line    0x00045afa      0x209 ../../../../lib/32b/libtcpip.a(ace_static.o)
 .debug_line    0x00045d03      0x406 ../../../../lib/32b/libtcpip.a(ace_rarp.o)
 .debug_line    0x00046109      0x3e1 ../../../../lib/32b/libtcpip.a(ace_pingarp.o)
 .debug_line    0x000464ea      0xe52 ../../../../lib/32b/libtcpip.a(fnsrr.o)
 .debug_line    0x0004733c      0x406 ../../../../lib/32b/libtcpip.a(heap.o)
 .debug_line    0x00047742     0x1232 ../../../../lib/32b/libtcpip.a(icmp.o)
 .debug_line    0x00048974      0x160 ../../../../lib/32b/libtcpip.a(ipclassm.o)
 .debug_line    0x00048ad4      0x568 ../../../../lib/32b/libtcpip.a(ipcomm.o)
 .debug_line    0x0004903c      0xd1a ../../../../lib/32b/libtcpip.a(ipfrag.o)
 .debug_line    0x00049d56      0x88c ../../../../lib/32b/libtcpip.a(ipmisc.o)
 .debug_line    0x0004a5e2      0xb18 ../../../../lib/32b/libtcpip.a(ipnetd.o)
 .debug_line    0x0004b0fa      0xf97 ../../../../lib/32b/libtcpip.a(ipopt.o)
 .debug_line    0x0004c091     0x1002 ../../../../lib/32b/libtcpip.a(ipxmit.o)
 .debug_line    0x0004d093      0x6b8 ../../../../lib/32b/libtcpip.a(lkheap.o)
 .debug_line    0x0004d74b      0xc66 ../../../../lib/32b/libtcpip.a(llconfig.o)
 .debug_line    0x0004e3b1      0x916 ../../../../lib/32b/libtcpip.a(m.o)
 .debug_line    0x0004ecc7      0x1af ../../../../lib/32b/libtcpip.a(md.o)
 .debug_line    0x0004ee76      0x600 ../../../../lib/32b/libtcpip.a(md5.o)
 .debug_line    0x0004f476      0x6e2 ../../../../lib/32b/libtcpip.a(msm.o)
 .debug_line    0x0004fb58      0x2a7 ../../../../lib/32b/libtcpip.a(ncaf.o)
 .debug_line    0x0004fdff      0x326 ../../../../lib/32b/libtcpip.a(naadddev.o)
 .debug_line    0x00050125      0xe02 ../../../../lib/32b/libtcpip.a(ncdev.o)
 .debug_line    0x00050f27      0x54b ../../../../lib/32b/libtcpip.a(ncdid.o)
 .debug_line    0x00051472      0x44f ../../../../lib/32b/libtcpip.a(ncmisc.o)
 .debug_line    0x000518c1      0x590 ../../../../lib/32b/libtcpip.a(ncpr.o)
 .debug_line    0x00051e51      0xe46 ../../../../lib/32b/libtcpip.a(q.o)
 .debug_line    0x00052c97      0x2b4 ../../../../lib/32b/libtcpip.a(secure.o)
 .debug_line    0x00052f4b      0xa3d ../../../../lib/32b/libtcpip.a(select.o)
 .debug_line    0x00053988     0x11f9 ../../../../lib/32b/libtcpip.a(sock.o)
 .debug_line    0x00054b81      0x3e3 ../../../../lib/32b/libtcpip.a(sop.o)
 .debug_line    0x00054f64      0x896 ../../../../lib/32b/libtcpip.a(timer.o)
 .debug_line    0x000557fa      0x445 ../../../../lib/32b/libtcpip.a(twq.o)
 .debug_line    0x00055c3f      0x749 ../../../../lib/32b/libtcpip.a(udpnetd.o)
 .debug_line    0x00056388      0x37e ../../../../lib/32b/libtcpip.a(udpopt.o)
 .debug_line    0x00056706      0x690 ../../../../lib/32b/libtcpip.a(udpsock.o)
 .debug_line    0x00056d96      0x80e ../../../../lib/32b/libtcpip.a(tcpxmit.o)
 .debug_line    0x000575a4     0x362c ../../../../lib/32b/libtcpip.a(tcpnetd.o)
 .debug_line    0x0005abd0     0x1379 ../../../../lib/32b/libtcpip.a(tcpsend.o)
 .debug_line    0x0005bf49     0x1dfa ../../../../lib/32b/libtcpip.a(tcpsock.o)
 .debug_line    0x0005dd43     0x1acc ../../../../lib/32b/libtcpip.a(tcpmisc.o)
 .debug_line    0x0005f80f      0x586 ../../../../lib/32b/libtcpip.a(tcptrans.o)
 .debug_line    0x0005fd95      0x3e7 ../../../../lib/32b/libtcpip.a(tcpimpco.o)
 .debug_line    0x0006017c      0xd7a ../../../../lib/32b/libtcpip.a(igmp.o)
 .debug_line    0x00060ef6      0x9f1 ../../../../lib/32b/libtcpip.a(socketopt.o)
 .debug_line    0x000618e7      0xb05 ../../../../lib/32b/libtcpip.a(sockapi.o)
 .debug_line    0x000623ec      0xd68 ../../../../lib/32b/libtcpip.a(autoip.o)
 .debug_line    0x00063154      0x8d6 ../../../../lib/32b/libtcpip.a(rricirc.o)
 .debug_line    0x00063a2a     0x2c1a ../../../../lib/32b/libtcpip.a(rripfdb.o)
 .debug_line    0x00066644      0x4fd ../../../../lib/32b/libtcpip.a(rripfwd.o)
 .debug_line    0x00066b41      0x32f ../../../../lib/32b/libtcpip.a(rrrcirc.o)
 .debug_line    0x00066e70      0x3d4 ../../../../lib/32b/libtcpip.a(rrtask.o)
 .debug_line    0x00067244      0x5e9 ../../../../lib/32b/libtcpip.a(res_init.o)
 .debug_line    0x0006782d      0xd9c ../../../../lib/32b/libtcpip.a(gethnama.o)
 .debug_line    0x000685c9      0x79f ../../../../lib/32b/libtcpip.a(dnscache.o)
 .debug_line    0x00068d68      0x877 ../../../../lib/32b/libtcpip.a(pppdev.o)
 .debug_line    0x000695df      0x91a ../../../../lib/32b/libtcpip.a(pppfsm.o)
 .debug_line    0x00069ef9     0x1819 ../../../../lib/32b/libtcpip.a(pppipcp.o)
 .debug_line    0x0006b712     0x1996 ../../../../lib/32b/libtcpip.a(ppplcp.o)
 .debug_line    0x0006d0a8      0xbeb ../../../../lib/32b/libtcpip.a(ppppap.o)
 .debug_line    0x0006dc93      0x4c7 ../../../../lib/32b/libtcpip.a(pppsend.o)
 .debug_line    0x0006e15a      0x2af ../../../../lib/32b/libtcpip.a(pppsess.o)
 .debug_line    0x0006e409      0x5d9 ../../../../lib/32b/libtcpip.a(ppputil.o)
 .debug_line    0x0006e9e2      0x8c0 ../../../../lib/32b/libtcpip.a(pppauth.o)
 .debug_line    0x0006f2a2      0x571 ../../../../lib/32b/libtcpip.a(pppuapi.o)
 .debug_line    0x0006f813     0x104b ../../../../lib/32b/libtcpip.a(dhcpapi.o)
 .debug_line    0x0007085e      0x581 ../../../../lib/32b/libtcpip.a(dhcparp.o)
 .debug_line    0x00070ddf      0x4d9 ../../../../lib/32b/libtcpip.a(options.o)
 .debug_line    0x000712b8     0x1ec1 ../../../../lib/32b/libtcpip.a(client.o)
 .debug_line    0x00073179     0x1129 ../../../../lib/32b/libtcpip.a(pppapi.o)
 .debug_line    0x000742a2     0x116e ../../../../lib/32b/libtcpip.a(modem.o)
 .debug_line    0x00075410      0x35d ../../../../lib/32b/libtcpip.a(uart_bpool.o)
 .debug_line    0x0007576d      0x699 ../../../../lib/32b/libtcpip.a(osdep.o)
 .debug_line    0x00075e06      0x325 ../../../../lib/32b/libtcpip.a(bdoptlib.o)
 .debug_line    0x0007612b      0x6ff ../../../../lib/32b/libtcpip.a(bootpapi.o)
 .debug_line    0x0007682a      0x506 ../../../../lib/32b/libtcpip.a(udpxmit.o)
 .debug_line    0x00076d30     0x1809 ../../../../lib/32b/libtcpip.a(arp.o)
 .debug_line    0x00078539      0x36e ../../../../lib/32b/libtcpip.a(bind.o)
 .debug_line    0x000788a7      0x2ab ../../../../lib/32b/libtcpip.a(connect.o)
 .debug_line    0x00078b52      0x731 ../../../../lib/32b/libtcpip.a(enet.o)
 .debug_line    0x00079283      0x4bb ../../../../lib/32b/libtcpip.a(frk.o)
 .debug_line    0x0007973e      0x54f ../../../../lib/32b/libtcpip.a(frklk.o)
 .debug_line    0x00079c8d      0x5f7 ../../../../lib/32b/libtcpip.a(fselect.o)
 .debug_line    0x0007a284      0x2ac ../../../../lib/32b/libtcpip.a(getpeern.o)
 .debug_line    0x0007a530      0x2ac ../../../../lib/32b/libtcpip.a(getsockn.o)
 .debug_line    0x0007a7dc      0x3a4 ../../../../lib/32b/libtcpip.a(inet_add.o)
 .debug_line    0x0007ab80      0x26e ../../../../lib/32b/libtcpip.a(ip.o)
 .debug_line    0x0007adee      0x2e1 ../../../../lib/32b/libtcpip.a(lbdev.o)
 .debug_line    0x0007b0cf      0x3b8 ../../../../lib/32b/libtcpip.a(link.o)
 .debug_line    0x0007b487      0x2aa ../../../../lib/32b/libtcpip.a(listen.o)
 .debug_line    0x0007b731      0x290 ../../../../lib/32b/libtcpip.a(node.o)
 .debug_line    0x0007b9c1      0x4d3 ../../../../lib/32b/libtcpip.a(nselect.o)
 .debug_line    0x0007be94      0x2f2 ../../../../lib/32b/libtcpip.a(pioctl.o)
 .debug_line    0x0007c186      0x248 ../../../../lib/32b/libtcpip.a(recv.o)
 .debug_line    0x0007c3ce      0x3ec ../../../../lib/32b/libtcpip.a(recvfrom.o)
 .debug_line    0x0007c7ba      0x302 ../../../../lib/32b/libtcpip.a(send.o)
 .debug_line    0x0007cabc      0x364 ../../../../lib/32b/libtcpip.a(sendto.o)
 .debug_line    0x0007ce20      0x2ac ../../../../lib/32b/libtcpip.a(shutdown.o)
 .debug_line    0x0007d0cc      0x6b1 ../../../../lib/32b/libtcpip.a(sob.o)
 .debug_line    0x0007d77d      0x444 ../../../../lib/32b/libtcpip.a(socket.o)
 .debug_line    0x0007dbc1      0x33c ../../../../lib/32b/libtcpip.a(accept.o)
 .debug_line    0x0007defd      0x31f ../../../../lib/32b/libtcpip.a(tcpperf.o)
 .debug_line    0x0007e21c      0x574 ../../../../lib/32b/libtcpip.a(ndq.o)
 .debug_line    0x0007e790      0x16b ../../../../lib/32b/libtcpip.a(strcmpi.o)
 .debug_line    0x0007e8fb      0x2eb ../../../../lib/32b/libtcpip.a(inet_pto.o)
 .debug_line    0x0007ebe6      0x7c2 ../../../../lib/32b/libtcpip.a(res_comp.o)
 .debug_line    0x0007f3a8      0x605 ../../../../lib/32b/libtcpip.a(res_quer.o)
 .debug_line    0x0007f9ad      0x98a ../../../../lib/32b/libtcpip.a(res_send.o)
 .debug_line    0x00080337      0xeb5 ../../../../lib/32b/libtcpip.a(vjcomp.o)
 .debug_line    0x000811ec      0x776 ../../../../lib/32b/libtcpip.a(pppbs.o)
 .debug_line    0x00081962      0xe0b ../../../../lib/32b/libtcpip.a(pppchap.o)
 .debug_line    0x0008276d      0x952 ../../../../lib/32b/libtcpip.a(ppprecv.o)
 .debug_line    0x000830bf      0x465 ../../../../lib/32b/libtcpip.a(ppp.o)
 .debug_line    0x00083524      0x79b ../../../../lib/32b/libtcpip.a(socketif.o)
 .debug_line    0x00083cbf      0x342 ../../../../lib/32b/libtcpip.a(if.o)
 .debug_line    0x00084001      0xa74 ../../../../lib/32b/libtcpip.a(uart.o)
 .debug_line    0x00084a75      0x334 ../../../../lib/32b/libtcpip.a(nullmdm.o)
 .debug_line    0x00084da9      0x935 ../../../../lib/32b/libtcpip.a(bootp.o)
 .debug_line    0x000856de      0x4a6 ../../../../lib/32b/libtcpip.a(res_mkqu.o)
 .debug_line    0x00085b84      0x14f ../../../../lib/32b/gnu/libc.a(assert.o)
 .debug_line    0x00085cd3       0xf5 ../../../../lib/32b/gnu/libc.a(bzero.o)
 .debug_line    0x00085dc8      0x17d ../../../../lib/32b/gnu/libc.a(div.o)
 .debug_line    0x00085f45      0x11c ../../../../lib/32b/gnu/libc.a(fiprintf.o)
 .debug_line    0x00086061       0xaa ../../../../lib/32b/gnu/libc.a(libcfunc.o)
 .debug_line    0x0008610b      0x1d5 ../../../../lib/32b/gnu/libc.a(puts.o)
 .debug_line    0x000862e0      0x11e ../../../../lib/32b/gnu/libc.a(sysclose.o)
 .debug_line    0x000863fe      0x128 ../../../../lib/32b/gnu/libc.a(sysread.o)
 .debug_line    0x00086526      0x129 ../../../../lib/32b/gnu/libc.a(syswrite.o)
 .debug_line    0x0008664f      0xa11 ../../../../lib/32b/gnu/libc.a(vfiprintf.o)
 .debug_line    0x00087060      0x1f9 ../../../../lib/32b/gnu/libc.a(wbuf.o)
 .debug_line    0x00087259      0xc29 ../../../../lib/32b/librphttpd.a(RpForm.o)
 .debug_line    0x00087e82     0x1e01 ../../../../lib/32b/librphttpd.a(RpHtml.o)
 .debug_line    0x00089c83      0x3ef ../../../../lib/32b/librphttpd.a(RpQuery.o)
 .debug_line    0x0008a072      0x993 ../../../../lib/32b/librphttpd.a(hserv.o)
 .debug_line    0x0008aa05      0xe72 ../../../../lib/32b/librphttpd.a(RpHttp.o)
 .debug_line    0x0008b877      0x3b9 ../../../../lib/32b/librphttpd.a(RpFrmItm.o)
 .debug_line    0x0008bc30     0x192f ../../../../lib/32b/librphttpd.a(RmSmtp.o)
 .debug_line    0x0008d55f      0x827 ../../../../lib/32b/librphttpd.a(AsCommon.o)
 .debug_line    0x0008dd86      0x4c2 ../../../../lib/32b/librphttpd.a(AsDate.o)
 .debug_line    0x0008e248      0x26e ../../../../lib/32b/librphttpd.a(AsGlobal.o)
 .debug_line    0x0008e4b6     0x1137 ../../../../lib/32b/librphttpd.a(AsMain.o)
 .debug_line    0x0008f5ed      0x38d ../../../../lib/32b/librphttpd.a(AsMimes.o)
 .debug_line    0x0008f97a      0x855 ../../../../lib/32b/librphttpd.a(AsParse.o)
 .debug_line    0x000901cf      0x5ae ../../../../lib/32b/librphttpd.a(AsBase64.o)
 .debug_line    0x0009077d      0x93c ../../../../lib/32b/librphttpd.a(AsConvrt.o)
 .debug_line    0x000910b9      0xb9e ../../../../lib/32b/librphttpd.a(AsVarAcc.o)
 .debug_line    0x00091c57      0x306 ../../../../lib/32b/librphttpd.a(AsCustom.o)
 .debug_line    0x00091f5d     0x1171 ../../../../lib/32b/librphttpd.a(Sfil.o)
 .debug_line    0x000930ce      0xf99 ../../../../lib/32b/librphttpd.a(STCP.o)
 .debug_line    0x00094067     0x1701 ../../../../lib/32b/librphttpd.a(RpAccess.o)
 .debug_line    0x00095768      0x3b9 ../../../../lib/32b/librphttpd.a(RpData.o)
 .debug_line    0x00095b21      0x338 ../../../../lib/32b/librphttpd.a(RpHttpDy.o)
 .debug_line    0x00095e59      0x2c6 ../../../../lib/32b/librphttpd.a(RpUser.o)
 .debug_line    0x0009611f      0xba8 ../../../../lib/32b/librphttpd.a(mcfil.o)
 .debug_line    0x00096cc7      0xaa4 ../../../../lib/32b/librphttpd.a(RpHttpRq.o)
 .debug_line    0x0009776b      0xed4 ../../../../lib/32b/librphttpd.a(RpHttpPs.o)
 .debug_line    0x0009863f      0x65f ../../../../lib/32b/librphttpd.a(RpFile.o)
 .debug_line    0x00098c9e      0xa43 ../../../../lib/32b/librphttpd.a(RmMailer.o)
 .debug_line    0x000996e1      0x26f ../../../../lib/32b/librphttpd.a(RmData.o)
 .debug_line    0x00099950     0x2697 ../../../../lib/32b/librphttpd.a(PrPop3.o)
 .debug_line    0x0009bfe7      0x26c ../../../../lib/32b/librphttpd.a(PrData.o)
 .debug_line    0x0009c253      0x808 ../../../../lib/32b/librphttpd.a(maw_main.o)
 .debug_line    0x0009ca5b      0x66b ../../../../lib/32b/librphttpd.a(AsMD5.o)
 .debug_line    0x0009d0c6      0x40d ../../../../lib/32b/librphttpd.a(Spwd.o)
 .debug_line    0x0009d4d3      0x4d8 ../../../../lib/32b/librphttpd.a(RpCallBk.o)
 .debug_line    0x0009d9ab      0xae7 ../../../../lib/32b/librphttpd.a(RpMulti.o)
 .debug_line    0x0009e492      0x555 ../../../../lib/32b/librphttpd.a(RpUrl.o)
 .debug_line    0x0009e9e7      0xbee ../../../../lib/32b/librphttpd.a(PrRomPop.o)
 .debug_line    0x0009f5d5      0x623 ../../../../lib/32b/libmanMib.a(MibMan.o)
 .debug_line    0x0009fbf8      0x3e8 ../../../../lib/32b/libmanMib.a(RFC1213_MIB.o)
 .debug_line    0x0009ffe0      0x3e7 ../../../../lib/32b/libmanMib.a(SNMPv2_MIB.o)
 .debug_line    0x000a03c7      0x65f ../../../../lib/32b/libmanMib.a(RFC1213_MIBAction.o)
 .debug_line    0x000a0a26      0x405 ../../../../lib/32b/libmanMib.a(SNMPv2_MIBAction.o)
 .debug_line    0x000a0e2b      0xa54 ../../../../lib/32b/libmanMib.a(man_sys.o)
 .debug_line    0x000a187f      0xead ../../../../lib/32b/libmanMib.a(man_if.o)
 .debug_line    0x000a272c      0x6bb ../../../../lib/32b/libmanMib.a(man_at.o)
 .debug_line    0x000a2de7     0x172f ../../../../lib/32b/libmanMib.a(man_ip.o)
 .debug_line    0x000a4516      0x9a1 ../../../../lib/32b/libmanMib.a(man_icmp.o)
 .debug_line    0x000a4eb7      0xbf0 ../../../../lib/32b/libmanMib.a(man_tcp.o)
 .debug_line    0x000a5aa7      0x740 ../../../../lib/32b/libmanMib.a(man_upd.o)
 .debug_line    0x000a61e7      0xb34 ../../../../lib/32b/libmanMib.a(man_egp.o)
 .debug_line    0x000a6d1b      0xaab ../../../../lib/32b/libmanMib.a(man_snmp.o)
 .debug_line    0x000a77c6      0xcf6 ../../../../lib/32b/libsntp.a(UDPsntp.o)
 .debug_line    0x000a84bc     0x1e9b ../../../../lib/32b/libfilesys.a(fss.o)
 .debug_line    0x000aa357      0x5bb ../../../../lib/32b/libfilesys.a(rss.o)
 .debug_line    0x000aa912      0x101 ../../../../lib/32b/libfilesys.a(crc32h.o)
 .debug_line    0x000aaa13      0x1c2 ../../../../lib/32b/libfilesys.a(bheader.o)
 .debug_line    0x000aabd5     0x272d ../../../../lib/32b/libfilesys.a(fs_api.o)
 .debug_line    0x000ad302     0x59c5 ../../../../lib/32b/libfilesys.a(io.o)
 .debug_line    0x000b2cc7      0x49a ../../../../lib/32b/libfilesys.a(parser.o)
 .debug_line    0x000b3161      0xced ../../../../lib/32b/libfilesys.a(ftables.o)
 .debug_line    0x000b3e4e      0x27d ../../../../lib/32b/libfilesys.a(thread.o)
 .debug_line    0x000b40cb      0x224 ../../../../lib/32b/libfilesys.a(sblock.o)
 .debug_line    0x000b42ef      0x2ad ../../../../lib/32b/libfilesys.a(bpool.o)
 .debug_line    0x000b459c     0x20a2 ../../../../lib/32b/libfilesys.a(pwr_loss.o)
 .debug_line    0x000b663e      0x4bc ../../../../lib/32b/libfilesys.a(inode.o)
 .debug_line    0x000b6afa      0x57e ../../../../lib/32b/libfilesys.a(services.o)
 .debug_line    0x000b7078      0xa21 ../../../../lib/32b/libbsp.a(MII.o)
 .debug_line    0x000b7a99      0x2ae ../../../../lib/32b/libbsp.a(select_support.o)
 .debug_line    0x000b7d47      0x51f ../../../../lib/32b/libbsp.a(eth_init.o)
 .debug_line    0x000b8266      0x414 ../../../../lib/32b/libbsp.a(eth_dma.o)
 .debug_line    0x000b867a      0x42e ../../../../lib/32b/libbsp.a(eth_isr.o)
 .debug_line    0x000b8aa8      0x4f5 ../../../../lib/32b/libbsp.a(eth_mcast.o)
 .debug_line    0x000b8f9d      0x47d ../../../../lib/32b/libbsp.a(eth_os.o)
 .debug_line    0x000b941a      0x4a3 ../../../../lib/32b/libbsp.a(eth_recv.o)
 .debug_line    0x000b98bd      0x557 ../../../../lib/32b/libbsp.a(eth_send.o)
 .debug_line    0x000b9e14      0xa3c ../../../../lib/32b/libbsp.a(eth_stack.o)
 .debug_line    0x000ba850      0x44f ../../../../lib/32b/libbsp.a(eth_watchdog.o)
 .debug_line    0x000bac9f      0x65b ../../../../lib/32b/libbsp.a(eth_reset.o)
 .debug_line    0x000bb2fa       0x97 ../../../../lib/32b/libtx.a(tx_timeg.o)
 .debug_line    0x000bb391       0x9a ../../../../lib/32b/libtx.a(txe_efs.o)
 .debug_line    0x000bb42b       0xb7 ../../../../lib/32b/libtx.a(txe_tpch.o)
 .debug_line    0x000bb4e2       0x87 ../../../../lib/32b/libtx.a(txe_trel.o)
 .debug_line    0x000bb569       0x9a ../../../../lib/32b/libtx.a(TXE_TIG.o)
 .debug_line    0x000bb603       0xb1 ../../../../lib/32b/libtx.a(TXE_MD.o)
 .debug_line    0x000bb6b4       0xde ../../../../lib/32b/libtx.a(tx_trel.o)
 .debug_line    0x000bb792      0x106 ../../../../lib/32b/libtx.a(tx_tpch.o)
 .debug_line    0x000bb898      0x3c5 ../../../../lib/32b/libtx.a(tx_efs.o)
 .debug_line    0x000bbc5d       0xc9 ../../../../lib/32b/libtx.a(TX_TIG.o)
 .debug_line    0x000bbd26      0x168 ../../../../lib/32b/libtx.a(TX_MD.o)
 .debug_line    0x000bbe8e     0x1974 ../../../../lib/32b/libemailc.a(allegro_mailc.o)
 .debug_line    0x000bd802      0x26b ../../../../lib/32b/libtcpip.a(udpopen.o)
 .debug_line    0x000bda6d      0x11a ../../../../lib/32b/libtcpip.a(strcpy.o)
 .debug_line    0x000bdb87      0x12a ../../../../lib/32b/libtcpip.a(strlen.o)
 .debug_line    0x000bdcb1      0x23a ../../../../lib/32b/libtcpip.a(memory.o)
 .debug_line    0x000bdeeb      0x2ca ../../../../lib/32b/libtcpip.a(ipbind.o)
 .debug_line    0x000be1b5       0xec ../../../../lib/32b/gnu/libc.a(atol.o)
 .debug_line    0x000be2a1      0x137 ../../../../lib/32b/gnu/libc.a(rand.o)
 .debug_line    0x000be3d8      0x171 ../../../../lib/32b/gnu/libc.a(time.o)
 .debug_line    0x000be549      0x18c ../../../../lib/32b/gnu/libc.a(timer.o)

.debug_frame    0x00000000    0x1faa0
 *(.debug_frame)
 .debug_frame   0x00000000      0x570 ./objs/appconf_api.o
 .debug_frame   0x00000570      0x250 ./objs/root.o
 .debug_frame   0x000007c0      0x110 ./objs/MibMan.o
 .debug_frame   0x000008d0       0x10 ./objs/EARMIB.o
 .debug_frame   0x000008e0      0xde4 ./objs/EARMIBAction.o
 .debug_frame   0x000016c4      0x498 ./objs/ipgFlash.o
 .debug_frame   0x00001b5c      0x110 ./objs/telnet.o
 .debug_frame   0x00001c6c      0x394 ./objs/menu.o
 .debug_frame   0x00002000      0x3b4 ./objs/ipgsnmp.o
 .debug_frame   0x000023b4       0x50 ./objs/earTemperatureAlarmThreshold.o
 .debug_frame   0x00002404       0x50 ./objs/earSnmpMngrTable.o
 .debug_frame   0x00002454       0x50 ./objs/earTrapPort.o
 .debug_frame   0x000024a4       0x50 ./objs/earPumpsOff.o
 .debug_frame   0x000024f4       0x50 ./objs/earChassisReboot.o
 .debug_frame   0x00002544       0x30 ./objs/earModelNumberRead.o
 .debug_frame   0x00002574       0x50 ./objs/earRtcTime.o
 .debug_frame   0x000025c4       0x30 ./objs/find_highwater.o
 .debug_frame   0x000025f4      0x130 ./objs/readFrom2U2.o
 .debug_frame   0x00002724       0xb0 ./objs/semaphores.o
 .debug_frame   0x000027d4      0x190 ./objs/Snmp_api.o
 .debug_frame   0x00002964       0x90 ./objs/configNotification.o
 .debug_frame   0x000029f4       0x70 ./objs/atmel.o
 .debug_frame   0x00002a64       0x10 ./objs/EDFAWelcomePage.o
 .debug_frame   0x00002a74      0x174 ./objs/EDFAWelcomePage_v.o
 .debug_frame   0x00002be8       0x10 ./objs/RpPages.o
 .debug_frame   0x00002bf8       0x30 ./objs/security.o
 .debug_frame   0x00002c28       0x10 ./objs/RpUsrDct.o
 .debug_frame   0x00002c38       0x70 ./objs/cgi.o
 .debug_frame   0x00002ca8      0x190 ./objs/file.o
 .debug_frame   0x00002e38       0xb0 ./objs/naftpapp.o
 .debug_frame   0x00002ee8       0xbc /usr/lib/gcc-lib/arm-elf/3.2/be/libgcc.a(_addsub_sf.o)
 .debug_frame   0x00002fa4       0x98 /usr/lib/gcc-lib/arm-elf/3.2/be/libgcc.a(_div_sf.o)
 .debug_frame   0x0000303c       0x30 /usr/lib/gcc-lib/arm-elf/3.2/be/libgcc.a(_si_to_sf.o)
 .debug_frame   0x0000306c       0x34 /usr/lib/gcc-lib/arm-elf/3.2/be/libgcc.a(_sf_to_df.o)
 .debug_frame   0x000030a0       0x10 /usr/lib/gcc-lib/arm-elf/3.2/be/libgcc.a(_thenan_sf.o)
 .debug_frame   0x000030b0       0xa8 /usr/lib/gcc-lib/arm-elf/3.2/be/libgcc.a(_div_df.o)
 .debug_frame   0x00003158       0x30 /usr/lib/gcc-lib/arm-elf/3.2/be/libgcc.a(_make_df.o)
 .debug_frame   0x00003188       0x3c /usr/lib/gcc-lib/arm-elf/3.2/be/libgcc.a(_df_to_sf.o)
 .debug_frame   0x000031c4       0x10 /usr/lib/gcc-lib/arm-elf/3.2/be/libgcc.a(_thenan_df.o)
 .debug_frame   0x000031d4       0x68 /usr/lib/gcc-lib/arm-elf/3.2/be/libgcc.a(_pack_sf.o)
 .debug_frame   0x0000323c       0x20 /usr/lib/gcc-lib/arm-elf/3.2/be/libgcc.a(_unpack_sf.o)
 .debug_frame   0x0000325c       0x30 /usr/lib/gcc-lib/arm-elf/3.2/be/libgcc.a(_make_sf.o)
 .debug_frame   0x0000328c       0x6c /usr/lib/gcc-lib/arm-elf/3.2/be/libgcc.a(_pack_df.o)
 .debug_frame   0x000032f8       0x30 /usr/lib/gcc-lib/arm-elf/3.2/be/libgcc.a(_unpack_df.o)
 .debug_frame   0x00003328       0x2c /usr/lib/gcc-lib/arm-elf/3.2/be/libgcc.a(_lshrdi3.o)
 .debug_frame   0x00003354       0x2c /usr/lib/gcc-lib/arm-elf/3.2/be/libgcc.a(_ashldi3.o)
 .debug_frame   0x00003380       0x28 ../../../../lib/32b/gnu/libc.a(atof.o)
 .debug_frame   0x000033a8       0x28 ../../../../lib/32b/gnu/libc.a(atoi.o)
 .debug_frame   0x000033d0       0x28 ../../../../lib/32b/gnu/libc.a(calloc.o)
 .debug_frame   0x000033f8       0x30 ../../../../lib/32b/gnu/libc.a(callocr.o)
 .debug_frame   0x00003428       0x38 ../../../../lib/32b/gnu/libc.a(exit.o)
 .debug_frame   0x00003460       0x34 ../../../../lib/32b/gnu/libc.a(fflush.o)
 .debug_frame   0x00003494       0xbc ../../../../lib/32b/gnu/libc.a(findfp.o)
 .debug_frame   0x00003550       0x38 ../../../../lib/32b/gnu/libc.a(fwalk.o)
 .debug_frame   0x00003588       0x10 ../../../../lib/32b/gnu/libc.a(impure.o)
 .debug_frame   0x00003598       0x20 ../../../../lib/32b/gnu/libc.a(isdigit.o)
 .debug_frame   0x000035b8       0x20 ../../../../lib/32b/gnu/libc.a(isspace.o)
 .debug_frame   0x000035d8       0x28 ../../../../lib/32b/gnu/libc.a(lcltime.o)
 .debug_frame   0x00003600       0x28 ../../../../lib/32b/gnu/libc.a(lcltime_r.o)
 .debug_frame   0x00003628       0x40 ../../../../lib/32b/gnu/libc.a(malloc.o)
 .debug_frame   0x00003668       0x68 ../../../../lib/32b/gnu/libc.a(mallocr.o)
 .debug_frame   0x000036d0       0x20 ../../../../lib/32b/gnu/libc.a(memcmp.o)
 .debug_frame   0x000036f0       0x28 ../../../../lib/32b/gnu/libc.a(memcpy.o)
 .debug_frame   0x00003718       0x20 ../../../../lib/32b/gnu/libc.a(memset.o)
 .debug_frame   0x00003738       0x50 ../../../../lib/32b/gnu/libc.a(mktm_r.o)
 .debug_frame   0x00003788       0x50 ../../../../lib/32b/gnu/libc.a(mlock.o)
 .debug_frame   0x000037d8       0x5c ../../../../lib/32b/gnu/libc.a(printf.o)
 .debug_frame   0x00003834       0x30 ../../../../lib/32b/gnu/libc.a(rget.o)
 .debug_frame   0x00003864       0x34 ../../../../lib/32b/gnu/libc.a(sbrkr.o)
 .debug_frame   0x00003898       0x58 ../../../../lib/32b/gnu/libc.a(snprintf.o)
 .debug_frame   0x000038f0       0x58 ../../../../lib/32b/gnu/libc.a(sprintf.o)
 .debug_frame   0x00003948       0x70 ../../../../lib/32b/gnu/libc.a(sscanf.o)
 .debug_frame   0x000039b8       0x8c ../../../../lib/32b/gnu/libc.a(stdio.o)
 .debug_frame   0x00003a44       0x30 ../../../../lib/32b/gnu/libc.a(strcat.o)
 .debug_frame   0x00003a74       0x2c ../../../../lib/32b/gnu/libc.a(strchr.o)
 .debug_frame   0x00003aa0       0x28 ../../../../lib/32b/gnu/libc.a(strcmp.o)
 .debug_frame   0x00003ac8       0x28 ../../../../lib/32b/gnu/libc.a(strcpy.o)
 .debug_frame   0x00003af0       0x28 ../../../../lib/32b/gnu/libc.a(strlen.o)
 .debug_frame   0x00003b18       0x2c ../../../../lib/32b/gnu/libc.a(strncmp.o)
 .debug_frame   0x00003b44       0x2c ../../../../lib/32b/gnu/libc.a(strncpy.o)
 .debug_frame   0x00003b70       0x20 ../../../../lib/32b/gnu/libc.a(strstr.o)
 .debug_frame   0x00003b90       0x74 ../../../../lib/32b/gnu/libc.a(strtod.o)
 .debug_frame   0x00003c04       0x28 ../../../../lib/32b/gnu/libc.a(strtok.o)
 .debug_frame   0x00003c2c       0x40 ../../../../lib/32b/gnu/libc.a(strtok_r.o)
 .debug_frame   0x00003c6c       0x58 ../../../../lib/32b/gnu/libc.a(strtol.o)
 .debug_frame   0x00003cc4       0x50 ../../../../lib/32b/gnu/libc.a(tzlock.o)
 .debug_frame   0x00003d14       0x30 ../../../../lib/32b/gnu/libc.a(tzset_r.o)
 .debug_frame   0x00003d44       0xf4 ../../../../lib/32b/gnu/libc.a(vfprintf.o)
 .debug_frame   0x00003e38       0xb0 ../../../../lib/32b/gnu/libc.a(vfscanf.o)
 .debug_frame   0x00003ee8       0x34 ../../../../lib/32b/gnu/libc.a(writer.o)
 .debug_frame   0x00003f1c       0x34 ../../../../lib/32b/gnu/libc.a(wsetup.o)
 .debug_frame   0x00003f50      0x478 ../../../../lib/32b/gnu/libc.a(syscalls.o)
 .debug_frame   0x000043c8       0x34 ../../../../lib/32b/gnu/libc.a(closer.o)
 .debug_frame   0x000043fc       0x10 ../../../../lib/32b/gnu/libc.a(ctype_.o)
 .debug_frame   0x0000440c       0x68 ../../../../lib/32b/gnu/libc.a(dtoa.o)
 .debug_frame   0x00004474       0x20 ../../../../lib/32b/gnu/libc.a(errno.o)
 .debug_frame   0x00004494       0x3c ../../../../lib/32b/gnu/libc.a(fread.o)
 .debug_frame   0x000044d0       0x64 ../../../../lib/32b/gnu/libc.a(freer.o)
 .debug_frame   0x00004534       0x3c ../../../../lib/32b/gnu/libc.a(fvwrite.o)
 .debug_frame   0x00004570       0x5c ../../../../lib/32b/gnu/libc.a(getenv_r.o)
 .debug_frame   0x000045cc       0x88 ../../../../lib/32b/gnu/libc.a(locale.o)
 .debug_frame   0x00004654       0x34 ../../../../lib/32b/gnu/libc.a(lseekr.o)
 .debug_frame   0x00004688       0x34 ../../../../lib/32b/gnu/libc.a(makebuf.o)
 .debug_frame   0x000046bc       0x24 ../../../../lib/32b/gnu/libc.a(mbtowc_r.o)
 .debug_frame   0x000046e0       0x2c ../../../../lib/32b/gnu/libc.a(memchr.o)
 .debug_frame   0x0000470c       0x28 ../../../../lib/32b/gnu/libc.a(memmove.o)
 .debug_frame   0x00004734      0x258 ../../../../lib/32b/gnu/libc.a(mprec.o)
 .debug_frame   0x0000498c       0x34 ../../../../lib/32b/gnu/libc.a(readr.o)
 .debug_frame   0x000049c0       0x3c ../../../../lib/32b/gnu/libc.a(reallocr.o)
 .debug_frame   0x000049fc       0x80 ../../../../lib/32b/gnu/libc.a(reent.o)
 .debug_frame   0x00004a7c       0x4c ../../../../lib/32b/gnu/libc.a(refill.o)
 .debug_frame   0x00004ac8       0x10 ../../../../lib/32b/gnu/libc.a(s_infconst.o)
 .debug_frame   0x00004ad8       0x20 ../../../../lib/32b/gnu/libc.a(s_isinf.o)
 .debug_frame   0x00004af8       0x20 ../../../../lib/32b/gnu/libc.a(s_isnan.o)
 .debug_frame   0x00004b18       0x44 ../../../../lib/32b/gnu/libc.a(setenv.o)
 .debug_frame   0x00004b5c       0x50 ../../../../lib/32b/gnu/libc.a(setenv_r.o)
 .debug_frame   0x00004bac       0x58 ../../../../lib/32b/gnu/libc.a(strtoul.o)
 .debug_frame   0x00004c04       0x34 ../../../../lib/32b/gnu/libc.a(sysopen.o)
 .debug_frame   0x00004c38       0x28 ../../../../lib/32b/gnu/libc.a(tzset.o)
 .debug_frame   0x00004c60       0x5c ../../../../lib/32b/gnu/libc.a(ungetc.o)
 .debug_frame   0x00004cbc       0x28 ../../../../lib/32b/gnu/libc.a(bcopy.o)
 .debug_frame   0x00004ce4       0x10 ../../../../lib/32b/gnu/libc.a(environ.o)
 .debug_frame   0x00004cf4       0x30 ../../../../lib/32b/gnu/libc.a(envlock.o)
 .debug_frame   0x00004d24       0x34 ../../../../lib/32b/gnu/libc.a(fstatr.o)
 .debug_frame   0x00004d58       0x5c /usr/lib/gcc-lib/arm-elf/3.2/be/libgcc.a(_udivdi3.o)
 .debug_frame   0x00004db4       0x5c /usr/lib/gcc-lib/arm-elf/3.2/be/libgcc.a(_umoddi3.o)
 .debug_frame   0x00004e10       0xd0 /usr/lib/gcc-lib/arm-elf/3.2/be/libgcc.a(_addsub_df.o)
 .debug_frame   0x00004ee0       0xa4 /usr/lib/gcc-lib/arm-elf/3.2/be/libgcc.a(_mul_df.o)
 .debug_frame   0x00004f84       0x4c /usr/lib/gcc-lib/arm-elf/3.2/be/libgcc.a(_eq_df.o)
 .debug_frame   0x00004fd0       0x4c /usr/lib/gcc-lib/arm-elf/3.2/be/libgcc.a(_ne_df.o)
 .debug_frame   0x0000501c       0x4c /usr/lib/gcc-lib/arm-elf/3.2/be/libgcc.a(_gt_df.o)
 .debug_frame   0x00005068       0x4c /usr/lib/gcc-lib/arm-elf/3.2/be/libgcc.a(_ge_df.o)
 .debug_frame   0x000050b4       0x4c /usr/lib/gcc-lib/arm-elf/3.2/be/libgcc.a(_lt_df.o)
 .debug_frame   0x00005100       0x4c /usr/lib/gcc-lib/arm-elf/3.2/be/libgcc.a(_le_df.o)
 .debug_frame   0x0000514c       0x30 /usr/lib/gcc-lib/arm-elf/3.2/be/libgcc.a(_si_to_df.o)
 .debug_frame   0x0000517c       0x64 /usr/lib/gcc-lib/arm-elf/3.2/be/libgcc.a(_df_to_si.o)
 .debug_frame   0x000051e0       0x44 /usr/lib/gcc-lib/arm-elf/3.2/be/libgcc.a(_negate_df.o)
 .debug_frame   0x00005224       0x10 /usr/lib/gcc-lib/arm-elf/3.2/be/libgcc.a(_clz.o)
 .debug_frame   0x00005234       0x64 /usr/lib/gcc-lib/arm-elf/3.2/be/libgcc.a(_fpcmp_parts_df.o)
 .debug_frame   0x00005298       0x90 ../../../../lib/32b/libbsp.a(bsp_api.o)
 .debug_frame   0x00005328       0x70 ../../../../lib/32b/libbsp.a(nainet.o)
 .debug_frame   0x00005398       0x50 ../../../../lib/32b/libbsp.a(main.o)
 .debug_frame   0x000053e8       0x90 ../../../../lib/32b/libbsp.a(errhndlr.o)
 .debug_frame   0x00005478       0x50 ../../../../lib/32b/libbsp.a(narmbrd.o)
 .debug_frame   0x000054c8      0x150 ../../../../lib/32b/libbsp.a(narmled.o)
 .debug_frame   0x00005618       0x50 ../../../../lib/32b/libbsp.a(devices.o)
 .debug_frame   0x00005668       0xd0 ../../../../lib/32b/libbsp.a(flashnvrm.o)
 .debug_frame   0x00005738      0x110 ../../../../lib/32b/libbsp.a(sysAccess.o)
 .debug_frame   0x00005848      0x1b0 ../../../../lib/32b/libbsp.a(lpbkdev.o)
 .debug_frame   0x000059f8       0xf0 ../../../../lib/32b/libbsp.a(nuldev.o)
 .debug_frame   0x00005ae8       0xf0 ../../../../lib/32b/libbsp.a(nacache.o)
 .debug_frame   0x00005bd8      0x118 ../../../../lib/32b/libbsp.a(NCC_INIT.o)
 .debug_frame   0x00005cf0      0x4f4 ../../../../lib/32b/libbsp.a(NCC_POST.o)
 .debug_frame   0x000061e4       0x50 ../../../../lib/32b/libbsp.a(IRQREG.o)
 .debug_frame   0x00006234      0x170 ../../../../lib/32b/libbsp.a(gpio.o)
 .debug_frame   0x000063a4      0x154 ../../../../lib/32b/libbsp.a(cs.o)
 .debug_frame   0x000064f8      0x190 ../../../../lib/32b/libbsp.a(boardParams.o)
 .debug_frame   0x00006688       0xb0 ../../../../lib/32b/libbsp.a(nawait.o)
 .debug_frame   0x00006738       0x50 ../../../../lib/32b/libbsp.a(nareset.o)
 .debug_frame   0x00006788      0x1dc ../../../../lib/32b/libbsp.a(startfilesystem.o)
 .debug_frame   0x00006964       0x90 ../../../../lib/32b/libbsp.a(fbanks.o)
 .debug_frame   0x000069f4      0x270 ../../../../lib/32b/libbsp.a(rtc.o)
 .debug_frame   0x00006c64      0x230 ../../../../lib/32b/libbsp.a(termios.o)
 .debug_frame   0x00006e94      0x410 ../../../../lib/32b/libbsp.a(netos_serl.o)
 .debug_frame   0x000072a4      0x130 ../../../../lib/32b/libbsp.a(NA_ISR.o)
 .debug_frame   0x000073d4       0x70 ../../../../lib/32b/libbsp.a(crc32h.o)
 .debug_frame   0x00007444      0x110 ../../../../lib/32b/libbsp.a(udpdb.o)
 .debug_frame   0x00007554       0x70 ../../../../lib/32b/libbsp.a(bsp.o)
 .debug_frame   0x000075c4       0xf0 ../../../../lib/32b/libbsp.a(bsproot.o)
 .debug_frame   0x000076b4       0xf0 ../../../../lib/32b/libbsp.a(starttcp.o)
 .debug_frame   0x000077a4       0xd0 ../../../../lib/32b/libbsp.a(bsptimer.o)
 .debug_frame   0x00007874       0x50 ../../../../lib/32b/libbsp.a(sysClock.o)
 .debug_frame   0x000078c4      0x458 ../../../../lib/32b/libbsp.a(hdlcdvr.o)
 .debug_frame   0x00007d1c      0x310 ../../../../lib/32b/libbsp.a(aceParams.o)
 .debug_frame   0x0000802c      0x1f0 ../../../../lib/32b/libbsp.a(aceCallbacks.o)
 .debug_frame   0x0000821c      0x130 ../../../../lib/32b/libbsp.a(naip_global.o)
 .debug_frame   0x0000834c       0xb0 ../../../../lib/32b/libbsp.a(naifconfig.o)
 .debug_frame   0x000083fc      0x1b0 ../../../../lib/32b/libbsp.a(dialog.o)
 .debug_frame   0x000085ac       0xd0 ../../../../lib/32b/libbsp.a(flashutil.o)
 .debug_frame   0x0000867c       0x90 ../../../../lib/32b/libbsp.a(event_handler.o)
 .debug_frame   0x0000870c      0x150 ../../../../lib/32b/libbsp.a(hdlcmem.o)
 .debug_frame   0x0000885c      0x3e0 ../../../../lib/32b/libflash.a(naflash.o)
 .debug_frame   0x00008c3c       0x70 ../../../../lib/32b/libflash.a(naflsem.o)
 .debug_frame   0x00008cac      0x130 ../../../../lib/32b/libposix.a(posix_semaphore.o)
 .debug_frame   0x00008ddc      0x250 ../../../../lib/32b/libposix.a(posix_thread.o)
 .debug_frame   0x0000902c       0x50 ../../../../lib/32b/libtx.a(tx_ike.o)
 .debug_frame   0x0000907c       0x30 ../../../../lib/32b/libtx.a(tx_timi.o)
 .debug_frame   0x000090ac       0x30 ../../../../lib/32b/libtx.a(tx_ti.o)
 .debug_frame   0x000090dc       0x30 ../../../../lib/32b/libtx.a(tx_tc.o)
 .debug_frame   0x0000910c       0x30 ../../../../lib/32b/libtx.a(tx_tr.o)
 .debug_frame   0x0000913c       0x30 ../../../../lib/32b/libtx.a(tx_tte.o)
 .debug_frame   0x0000916c       0x30 ../../../../lib/32b/libtx.a(tx_ta.o)
 .debug_frame   0x0000919c       0x30 ../../../../lib/32b/libtx.a(tx_tto.o)
 .debug_frame   0x000091cc       0x30 ../../../../lib/32b/libtx.a(tx_tsle.o)
 .debug_frame   0x000091fc       0x30 ../../../../lib/32b/libtx.a(tx_tide.o)
 .debug_frame   0x0000922c      0x150 ../../../../lib/32b/libtx.a(tx_gnu.o)
 .debug_frame   0x0000937c       0x30 ../../../../lib/32b/libtx.a(txe_efc.o)
 .debug_frame   0x000093ac       0x30 ../../../../lib/32b/libtx.a(txe_efg.o)
 .debug_frame   0x000093dc       0x30 ../../../../lib/32b/libtx.a(txe_qc.o)
 .debug_frame   0x0000940c       0x30 ../../../../lib/32b/libtx.a(txe_qr.o)
 .debug_frame   0x0000943c       0x30 ../../../../lib/32b/libtx.a(txe_qs.o)
 .debug_frame   0x0000946c       0x30 ../../../../lib/32b/libtx.a(txe_sc.o)
 .debug_frame   0x0000949c       0x30 ../../../../lib/32b/libtx.a(txe_sd.o)
 .debug_frame   0x000094cc       0x30 ../../../../lib/32b/libtx.a(txe_sg.o)
 .debug_frame   0x000094fc       0x30 ../../../../lib/32b/libtx.a(txe_sp.o)
 .debug_frame   0x0000952c       0x30 ../../../../lib/32b/libtx.a(txe_tc.o)
 .debug_frame   0x0000955c       0x30 ../../../../lib/32b/libtx.a(txe_tdel.o)
 .debug_frame   0x0000958c       0x30 ../../../../lib/32b/libtx.a(txe_trpc.o)
 .debug_frame   0x000095bc       0x30 ../../../../lib/32b/libtx.a(txe_tra.o)
 .debug_frame   0x000095ec       0x30 ../../../../lib/32b/libtx.a(txe_tsa.o)
 .debug_frame   0x0000961c       0x30 ../../../../lib/32b/libtx.a(txe_tt.o)
 .debug_frame   0x0000964c       0x30 ../../../../lib/32b/libtx.a(txe_taa.o)
 .debug_frame   0x0000967c       0x30 ../../../../lib/32b/libtx.a(txe_tmch.o)
 .debug_frame   0x000096ac       0x30 ../../../../lib/32b/libtx.a(txe_tmcr.o)
 .debug_frame   0x000096dc       0x30 ../../../../lib/32b/libtx.a(txe_tda.o)
 .debug_frame   0x0000970c       0x30 ../../../../lib/32b/libtx.a(txe_timd.o)
 .debug_frame   0x0000973c       0x30 ../../../../lib/32b/libtx.a(TX_MC.o)
 .debug_frame   0x0000976c       0x30 ../../../../lib/32b/libtx.a(TX_MG.o)
 .debug_frame   0x0000979c       0x30 ../../../../lib/32b/libtx.a(TX_MP.o)
 .debug_frame   0x000097cc       0x30 ../../../../lib/32b/libtx.a(TX_MPRI.o)
 .debug_frame   0x000097fc       0x30 ../../../../lib/32b/libtx.a(TX_MPC.o)
 .debug_frame   0x0000982c       0x30 ../../../../lib/32b/libtx.a(TX_MCLE.o)
 .debug_frame   0x0000985c       0x30 ../../../../lib/32b/libtx.a(TXE_MC.o)
 .debug_frame   0x0000988c       0x30 ../../../../lib/32b/libtx.a(TXE_MG.o)
 .debug_frame   0x000098bc       0x30 ../../../../lib/32b/libtx.a(TXE_MP.o)
 .debug_frame   0x000098ec       0x30 ../../../../lib/32b/libtx.a(tx_ihl.o)
 .debug_frame   0x0000991c       0x30 ../../../../lib/32b/libtx.a(tx_tse.o)
 .debug_frame   0x0000994c       0x30 ../../../../lib/32b/libtx.a(tx_tsus.o)
 .debug_frame   0x0000997c       0x30 ../../../../lib/32b/libtx.a(tx_tsa.o)
 .debug_frame   0x000099ac       0x30 ../../../../lib/32b/libtx.a(tx_tra.o)
 .debug_frame   0x000099dc       0x30 ../../../../lib/32b/libtx.a(tx_tts.o)
 .debug_frame   0x00009a0c       0x30 ../../../../lib/32b/libtx.a(tx_tdel.o)
 .debug_frame   0x00009a3c       0x30 ../../../../lib/32b/libtx.a(tx_tprch.o)
 .debug_frame   0x00009a6c       0x30 ../../../../lib/32b/libtx.a(tx_tt.o)
 .debug_frame   0x00009a9c       0x30 ../../../../lib/32b/libtx.a(tx_td.o)
 .debug_frame   0x00009acc       0x30 ../../../../lib/32b/libtx.a(tx_timcr.o)
 .debug_frame   0x00009afc       0x30 ../../../../lib/32b/libtx.a(tx_taa.o)
 .debug_frame   0x00009b2c       0x30 ../../../../lib/32b/libtx.a(tx_tda.o)
 .debug_frame   0x00009b5c       0x30 ../../../../lib/32b/libtx.a(tx_timch.o)
 .debug_frame   0x00009b8c       0x30 ../../../../lib/32b/libtx.a(tx_timd.o)
 .debug_frame   0x00009bbc       0x30 ../../../../lib/32b/libtx.a(tx_sc.o)
 .debug_frame   0x00009bec       0x30 ../../../../lib/32b/libtx.a(tx_sd.o)
 .debug_frame   0x00009c1c       0x30 ../../../../lib/32b/libtx.a(tx_sg.o)
 .debug_frame   0x00009c4c       0x30 ../../../../lib/32b/libtx.a(tx_sp.o)
 .debug_frame   0x00009c7c       0x30 ../../../../lib/32b/libtx.a(tx_scle.o)
 .debug_frame   0x00009cac       0x30 ../../../../lib/32b/libtx.a(tx_qc.o)
 .debug_frame   0x00009cdc       0x30 ../../../../lib/32b/libtx.a(tx_qs.o)
 .debug_frame   0x00009d0c       0x30 ../../../../lib/32b/libtx.a(tx_qr.o)
 .debug_frame   0x00009d3c       0x30 ../../../../lib/32b/libtx.a(tx_qcle.o)
 .debug_frame   0x00009d6c       0x30 ../../../../lib/32b/libtx.a(tx_efc.o)
 .debug_frame   0x00009d9c       0x30 ../../../../lib/32b/libtx.a(tx_efg.o)
 .debug_frame   0x00009dcc       0x30 ../../../../lib/32b/libtx.a(tx_efcle.o)
 .debug_frame   0x00009dfc      0x2d0 ../../../../lib/32b/libmanapi.a(man_env.o)
 .debug_frame   0x0000a0cc      0x2b0 ../../../../lib/32b/libmanapi.a(man_init.o)
 .debug_frame   0x0000a37c       0x30 ../../../../lib/32b/libmanapi.a(hash.o)
 .debug_frame   0x0000a3ac      0x210 ../../../../lib/32b/libmanapi.a(man_row.o)
 .debug_frame   0x0000a5bc      0x170 ../../../../lib/32b/libmanapi.a(man_main.o)
 .debug_frame   0x0000a72c       0x90 ../../../../lib/32b/libftpsvr.a(ftposp.o)
 .debug_frame   0x0000a7bc      0x814 ../../../../lib/32b/libftpsvr.a(ftpsvr.o)
 .debug_frame   0x0000afd0      0x1d0 ../../../../lib/32b/libtelnsvr.a(ts_mod.o)
 .debug_frame   0x0000b1a0      0x270 ../../../../lib/32b/libtelnsvr.a(telnetd2.o)
 .debug_frame   0x0000b410       0x30 ../../../../lib/32b/libtelnsvr.a(fsminit.o)
 .debug_frame   0x0000b440       0x10 ../../../../lib/32b/libtelnsvr.a(ttfsm.o)
 .debug_frame   0x0000b450       0x30 ../../../../lib/32b/libtelnsvr.a(ttgetc.o)
 .debug_frame   0x0000b480       0x30 ../../../../lib/32b/libtelnsvr.a(will_not.o)
 .debug_frame   0x0000b4b0       0x50 ../../../../lib/32b/libtelnsvr.a(do_echo.o)
 .debug_frame   0x0000b500       0x50 ../../../../lib/32b/libtelnsvr.a(do_noga.o)
 .debug_frame   0x0000b550       0x30 ../../../../lib/32b/libtelnsvr.a(do_notsu.o)
 .debug_frame   0x0000b580       0x50 ../../../../lib/32b/libtelnsvr.a(do_txbin.o)
 .debug_frame   0x0000b5d0       0x30 ../../../../lib/32b/libtelnsvr.a(tcga.o)
 .debug_frame   0x0000b600       0x50 ../../../../lib/32b/libtelnsvr.a(recopt.o)
 .debug_frame   0x0000b650       0x90 ../../../../lib/32b/libdnsclnt.a(dnsc_api.o)
 .debug_frame   0x0000b6e0      0x1ec ../../../../lib/32b/libfastip.a(fast_ip.o)
 .debug_frame   0x0000b8cc      0x38c ../../../../lib/32b/libtcpip.a(ace.o)
 .debug_frame   0x0000bc58       0xec ../../../../lib/32b/libtcpip.a(ace_os.o)
 .debug_frame   0x0000bd44      0x160 ../../../../lib/32b/libtcpip.a(ace_dhcp.o)
 .debug_frame   0x0000bea4       0x98 ../../../../lib/32b/libtcpip.a(ace_bootp.o)
 .debug_frame   0x0000bf3c       0xa0 ../../../../lib/32b/libtcpip.a(ace_autoip.o)
 .debug_frame   0x0000bfdc       0x58 ../../../../lib/32b/libtcpip.a(ace_static.o)
 .debug_frame   0x0000c034       0x80 ../../../../lib/32b/libtcpip.a(ace_rarp.o)
 .debug_frame   0x0000c0b4       0x80 ../../../../lib/32b/libtcpip.a(ace_pingarp.o)
 .debug_frame   0x0000c134      0x2f4 ../../../../lib/32b/libtcpip.a(fnsrr.o)
 .debug_frame   0x0000c428       0xd8 ../../../../lib/32b/libtcpip.a(heap.o)
 .debug_frame   0x0000c500      0x238 ../../../../lib/32b/libtcpip.a(icmp.o)
 .debug_frame   0x0000c738       0x20 ../../../../lib/32b/libtcpip.a(ipclassm.o)
 .debug_frame   0x0000c758       0xc0 ../../../../lib/32b/libtcpip.a(ipcomm.o)
 .debug_frame   0x0000c818      0x140 ../../../../lib/32b/libtcpip.a(ipfrag.o)
 .debug_frame   0x0000c958      0x1b4 ../../../../lib/32b/libtcpip.a(ipmisc.o)
 .debug_frame   0x0000cb0c       0xc8 ../../../../lib/32b/libtcpip.a(ipnetd.o)
 .debug_frame   0x0000cbd4      0x13c ../../../../lib/32b/libtcpip.a(ipopt.o)
 .debug_frame   0x0000cd10      0x170 ../../../../lib/32b/libtcpip.a(ipxmit.o)
 .debug_frame   0x0000ce80       0xf8 ../../../../lib/32b/libtcpip.a(lkheap.o)
 .debug_frame   0x0000cf78       0xe0 ../../../../lib/32b/libtcpip.a(llconfig.o)
 .debug_frame   0x0000d058      0x1bc ../../../../lib/32b/libtcpip.a(m.o)
 .debug_frame   0x0000d214       0x40 ../../../../lib/32b/libtcpip.a(md.o)
 .debug_frame   0x0000d254       0x94 ../../../../lib/32b/libtcpip.a(md5.o)
 .debug_frame   0x0000d2e8      0x168 ../../../../lib/32b/libtcpip.a(msm.o)
 .debug_frame   0x0000d450       0x48 ../../../../lib/32b/libtcpip.a(ncaf.o)
 .debug_frame   0x0000d498       0x3c ../../../../lib/32b/libtcpip.a(naadddev.o)
 .debug_frame   0x0000d4d4      0x230 ../../../../lib/32b/libtcpip.a(ncdev.o)
 .debug_frame   0x0000d704       0x48 ../../../../lib/32b/libtcpip.a(ncdid.o)
 .debug_frame   0x0000d74c       0x48 ../../../../lib/32b/libtcpip.a(ncmisc.o)
 .debug_frame   0x0000d794      0x1bc ../../../../lib/32b/libtcpip.a(ncpr.o)
 .debug_frame   0x0000d950      0x3c4 ../../../../lib/32b/libtcpip.a(q.o)
 .debug_frame   0x0000dd14       0x64 ../../../../lib/32b/libtcpip.a(secure.o)
 .debug_frame   0x0000dd78      0x180 ../../../../lib/32b/libtcpip.a(select.o)
 .debug_frame   0x0000def8      0x368 ../../../../lib/32b/libtcpip.a(sock.o)
 .debug_frame   0x0000e260       0x64 ../../../../lib/32b/libtcpip.a(sop.o)
 .debug_frame   0x0000e2c4      0x11c ../../../../lib/32b/libtcpip.a(timer.o)
 .debug_frame   0x0000e3e0       0xb4 ../../../../lib/32b/libtcpip.a(twq.o)
 .debug_frame   0x0000e494      0x12c ../../../../lib/32b/libtcpip.a(udpnetd.o)
 .debug_frame   0x0000e5c0       0x94 ../../../../lib/32b/libtcpip.a(udpopt.o)
 .debug_frame   0x0000e654       0xe4 ../../../../lib/32b/libtcpip.a(udpsock.o)
 .debug_frame   0x0000e738       0x98 ../../../../lib/32b/libtcpip.a(tcpxmit.o)
 .debug_frame   0x0000e7d0      0x414 ../../../../lib/32b/libtcpip.a(tcpnetd.o)
 .debug_frame   0x0000ebe4      0x12c ../../../../lib/32b/libtcpip.a(tcpsend.o)
 .debug_frame   0x0000ed10      0x47c ../../../../lib/32b/libtcpip.a(tcpsock.o)
 .debug_frame   0x0000f18c      0x52c ../../../../lib/32b/libtcpip.a(tcpmisc.o)
 .debug_frame   0x0000f6b8       0xb0 ../../../../lib/32b/libtcpip.a(tcptrans.o)
 .debug_frame   0x0000f768       0x5c ../../../../lib/32b/libtcpip.a(tcpimpco.o)
 .debug_frame   0x0000f7c4      0x2e4 ../../../../lib/32b/libtcpip.a(igmp.o)
 .debug_frame   0x0000faa8      0x270 ../../../../lib/32b/libtcpip.a(socketopt.o)
 .debug_frame   0x0000fd18      0x2d0 ../../../../lib/32b/libtcpip.a(sockapi.o)
 .debug_frame   0x0000ffe8      0x1e0 ../../../../lib/32b/libtcpip.a(autoip.o)
 .debug_frame   0x000101c8      0x1e8 ../../../../lib/32b/libtcpip.a(rricirc.o)
 .debug_frame   0x000103b0      0x574 ../../../../lib/32b/libtcpip.a(rripfdb.o)
 .debug_frame   0x00010924       0x54 ../../../../lib/32b/libtcpip.a(rripfwd.o)
 .debug_frame   0x00010978       0x48 ../../../../lib/32b/libtcpip.a(rrrcirc.o)
 .debug_frame   0x000109c0       0x30 ../../../../lib/32b/libtcpip.a(rrtask.o)
 .debug_frame   0x000109f0      0x110 ../../../../lib/32b/libtcpip.a(res_init.o)
 .debug_frame   0x00010b00      0x158 ../../../../lib/32b/libtcpip.a(gethnama.o)
 .debug_frame   0x00010c58      0x160 ../../../../lib/32b/libtcpip.a(dnscache.o)
 .debug_frame   0x00010db8      0x160 ../../../../lib/32b/libtcpip.a(pppdev.o)
 .debug_frame   0x00010f18      0x240 ../../../../lib/32b/libtcpip.a(pppfsm.o)
 .debug_frame   0x00011158      0x348 ../../../../lib/32b/libtcpip.a(pppipcp.o)
 .debug_frame   0x000114a0      0x3bc ../../../../lib/32b/libtcpip.a(ppplcp.o)
 .debug_frame   0x0001185c      0x274 ../../../../lib/32b/libtcpip.a(ppppap.o)
 .debug_frame   0x00011ad0       0xdc ../../../../lib/32b/libtcpip.a(pppsend.o)
 .debug_frame   0x00011bac       0x30 ../../../../lib/32b/libtcpip.a(pppsess.o)
 .debug_frame   0x00011bdc       0xc8 ../../../../lib/32b/libtcpip.a(ppputil.o)
 .debug_frame   0x00011ca4      0x1a4 ../../../../lib/32b/libtcpip.a(pppauth.o)
 .debug_frame   0x00011e48       0x8c ../../../../lib/32b/libtcpip.a(pppuapi.o)
 .debug_frame   0x00011ed4      0x300 ../../../../lib/32b/libtcpip.a(dhcpapi.o)
 .debug_frame   0x000121d4       0xc4 ../../../../lib/32b/libtcpip.a(dhcparp.o)
 .debug_frame   0x00012298       0x68 ../../../../lib/32b/libtcpip.a(options.o)
 .debug_frame   0x00012300      0x6f0 ../../../../lib/32b/libtcpip.a(client.o)
 .debug_frame   0x000129f0      0x44c ../../../../lib/32b/libtcpip.a(pppapi.o)
 .debug_frame   0x00012e3c      0x32c ../../../../lib/32b/libtcpip.a(modem.o)
 .debug_frame   0x00013168       0xf4 ../../../../lib/32b/libtcpip.a(uart_bpool.o)
 .debug_frame   0x0001325c      0x18c ../../../../lib/32b/libtcpip.a(osdep.o)
 .debug_frame   0x000133e8       0x54 ../../../../lib/32b/libtcpip.a(bdoptlib.o)
 .debug_frame   0x0001343c      0x13c ../../../../lib/32b/libtcpip.a(bootpapi.o)
 .debug_frame   0x00013578       0x74 ../../../../lib/32b/libtcpip.a(udpxmit.o)
 .debug_frame   0x000135ec      0x3e4 ../../../../lib/32b/libtcpip.a(arp.o)
 .debug_frame   0x000139d0       0x38 ../../../../lib/32b/libtcpip.a(bind.o)
 .debug_frame   0x00013a08       0x38 ../../../../lib/32b/libtcpip.a(connect.o)
 .debug_frame   0x00013a40       0x8c ../../../../lib/32b/libtcpip.a(enet.o)
 .debug_frame   0x00013acc       0xc4 ../../../../lib/32b/libtcpip.a(frk.o)
 .debug_frame   0x00013b90      0x138 ../../../../lib/32b/libtcpip.a(frklk.o)
 .debug_frame   0x00013cc8       0x5c ../../../../lib/32b/libtcpip.a(fselect.o)
 .debug_frame   0x00013d24       0x38 ../../../../lib/32b/libtcpip.a(getpeern.o)
 .debug_frame   0x00013d5c       0x38 ../../../../lib/32b/libtcpip.a(getsockn.o)
 .debug_frame   0x00013d94       0x54 ../../../../lib/32b/libtcpip.a(inet_add.o)
 .debug_frame   0x00013de8       0x20 ../../../../lib/32b/libtcpip.a(ip.o)
 .debug_frame   0x00013e08       0x70 ../../../../lib/32b/libtcpip.a(lbdev.o)
 .debug_frame   0x00013e78       0x90 ../../../../lib/32b/libtcpip.a(link.o)
 .debug_frame   0x00013f08       0x34 ../../../../lib/32b/libtcpip.a(listen.o)
 .debug_frame   0x00013f3c       0x40 ../../../../lib/32b/libtcpip.a(node.o)
 .debug_frame   0x00013f7c       0x78 ../../../../lib/32b/libtcpip.a(nselect.o)
 .debug_frame   0x00013ff4       0x58 ../../../../lib/32b/libtcpip.a(pioctl.o)
 .debug_frame   0x0001404c       0x30 ../../../../lib/32b/libtcpip.a(recv.o)
 .debug_frame   0x0001407c       0x3c ../../../../lib/32b/libtcpip.a(recvfrom.o)
 .debug_frame   0x000140b8       0x38 ../../../../lib/32b/libtcpip.a(send.o)
 .debug_frame   0x000140f0       0x3c ../../../../lib/32b/libtcpip.a(sendto.o)
 .debug_frame   0x0001412c       0x34 ../../../../lib/32b/libtcpip.a(shutdown.o)
 .debug_frame   0x00014160       0x68 ../../../../lib/32b/libtcpip.a(sob.o)
 .debug_frame   0x000141c8       0x5c ../../../../lib/32b/libtcpip.a(socket.o)
 .debug_frame   0x00014224       0x3c ../../../../lib/32b/libtcpip.a(accept.o)
 .debug_frame   0x00014260       0x58 ../../../../lib/32b/libtcpip.a(tcpperf.o)
 .debug_frame   0x000142b8       0x88 ../../../../lib/32b/libtcpip.a(ndq.o)
 .debug_frame   0x00014340       0x2c ../../../../lib/32b/libtcpip.a(strcmpi.o)
 .debug_frame   0x0001436c       0x54 ../../../../lib/32b/libtcpip.a(inet_pto.o)
 .debug_frame   0x000143c0      0x108 ../../../../lib/32b/libtcpip.a(res_comp.o)
 .debug_frame   0x000144c8       0xa0 ../../../../lib/32b/libtcpip.a(res_quer.o)
 .debug_frame   0x00014568       0x94 ../../../../lib/32b/libtcpip.a(res_send.o)
 .debug_frame   0x000145fc      0x104 ../../../../lib/32b/libtcpip.a(vjcomp.o)
 .debug_frame   0x00014700       0xa0 ../../../../lib/32b/libtcpip.a(pppbs.o)
 .debug_frame   0x000147a0      0x2f8 ../../../../lib/32b/libtcpip.a(pppchap.o)
 .debug_frame   0x00014a98       0x90 ../../../../lib/32b/libtcpip.a(ppprecv.o)
 .debug_frame   0x00014b28       0x80 ../../../../lib/32b/libtcpip.a(ppp.o)
 .debug_frame   0x00014ba8      0x1b8 ../../../../lib/32b/libtcpip.a(socketif.o)
 .debug_frame   0x00014d60       0x5c ../../../../lib/32b/libtcpip.a(if.o)
 .debug_frame   0x00014dbc      0x138 ../../../../lib/32b/libtcpip.a(uart.o)
 .debug_frame   0x00014ef4       0x70 ../../../../lib/32b/libtcpip.a(nullmdm.o)
 .debug_frame   0x00014f64      0x11c ../../../../lib/32b/libtcpip.a(bootp.o)
 .debug_frame   0x00015080       0x3c ../../../../lib/32b/libtcpip.a(res_mkqu.o)
 .debug_frame   0x000150bc       0x30 ../../../../lib/32b/gnu/libc.a(assert.o)
 .debug_frame   0x000150ec       0x20 ../../../../lib/32b/gnu/libc.a(bzero.o)
 .debug_frame   0x0001510c       0x38 ../../../../lib/32b/gnu/libc.a(div.o)
 .debug_frame   0x00015144       0x34 ../../../../lib/32b/gnu/libc.a(fiprintf.o)
 .debug_frame   0x00015178       0x38 ../../../../lib/32b/gnu/libc.a(libcfunc.o)
 .debug_frame   0x000151b0       0x4c ../../../../lib/32b/gnu/libc.a(puts.o)
 .debug_frame   0x000151fc       0x28 ../../../../lib/32b/gnu/libc.a(sysclose.o)
 .debug_frame   0x00015224       0x28 ../../../../lib/32b/gnu/libc.a(sysread.o)
 .debug_frame   0x0001524c       0x28 ../../../../lib/32b/gnu/libc.a(syswrite.o)
 .debug_frame   0x00015274       0xac ../../../../lib/32b/gnu/libc.a(vfiprintf.o)
 .debug_frame   0x00015320       0x34 ../../../../lib/32b/gnu/libc.a(wbuf.o)
 .debug_frame   0x00015354      0x410 ../../../../lib/32b/librphttpd.a(RpForm.o)
 .debug_frame   0x00015764      0x5f0 ../../../../lib/32b/librphttpd.a(RpHtml.o)
 .debug_frame   0x00015d54       0xd0 ../../../../lib/32b/librphttpd.a(RpQuery.o)
 .debug_frame   0x00015e24      0x170 ../../../../lib/32b/librphttpd.a(hserv.o)
 .debug_frame   0x00015f94      0x1f0 ../../../../lib/32b/librphttpd.a(RpHttp.o)
 .debug_frame   0x00016184       0x50 ../../../../lib/32b/librphttpd.a(RpFrmItm.o)
 .debug_frame   0x000161d4      0x2b8 ../../../../lib/32b/librphttpd.a(RmSmtp.o)
 .debug_frame   0x0001648c      0x254 ../../../../lib/32b/librphttpd.a(AsCommon.o)
 .debug_frame   0x000166e0       0x90 ../../../../lib/32b/librphttpd.a(AsDate.o)
 .debug_frame   0x00016770       0x10 ../../../../lib/32b/librphttpd.a(AsGlobal.o)
 .debug_frame   0x00016780      0x334 ../../../../lib/32b/librphttpd.a(AsMain.o)
 .debug_frame   0x00016ab4       0x74 ../../../../lib/32b/librphttpd.a(AsMimes.o)
 .debug_frame   0x00016b28      0x1f0 ../../../../lib/32b/librphttpd.a(AsParse.o)
 .debug_frame   0x00016d18       0xd0 ../../../../lib/32b/librphttpd.a(AsBase64.o)
 .debug_frame   0x00016de8      0x210 ../../../../lib/32b/librphttpd.a(AsConvrt.o)
 .debug_frame   0x00016ff8      0x1bc ../../../../lib/32b/librphttpd.a(AsVarAcc.o)
 .debug_frame   0x000171b4       0x90 ../../../../lib/32b/librphttpd.a(AsCustom.o)
 .debug_frame   0x00017244      0x490 ../../../../lib/32b/librphttpd.a(Sfil.o)
 .debug_frame   0x000176d4      0x290 ../../../../lib/32b/librphttpd.a(STCP.o)
 .debug_frame   0x00017964      0x5b0 ../../../../lib/32b/librphttpd.a(RpAccess.o)
 .debug_frame   0x00017f14      0x130 ../../../../lib/32b/librphttpd.a(RpData.o)
 .debug_frame   0x00018044       0x70 ../../../../lib/32b/librphttpd.a(RpHttpDy.o)
 .debug_frame   0x000180b4       0x30 ../../../../lib/32b/librphttpd.a(RpUser.o)
 .debug_frame   0x000180e4      0x250 ../../../../lib/32b/librphttpd.a(mcfil.o)
 .debug_frame   0x00018334      0x194 ../../../../lib/32b/librphttpd.a(RpHttpRq.o)
 .debug_frame   0x000184c8      0x498 ../../../../lib/32b/librphttpd.a(RpHttpPs.o)
 .debug_frame   0x00018960       0x90 ../../../../lib/32b/librphttpd.a(RpFile.o)
 .debug_frame   0x000189f0      0x314 ../../../../lib/32b/librphttpd.a(RmMailer.o)
 .debug_frame   0x00018d04       0x10 ../../../../lib/32b/librphttpd.a(RmData.o)
 .debug_frame   0x00018d14      0x800 ../../../../lib/32b/librphttpd.a(PrPop3.o)
 .debug_frame   0x00019514       0x10 ../../../../lib/32b/librphttpd.a(PrData.o)
 .debug_frame   0x00019524      0x190 ../../../../lib/32b/librphttpd.a(maw_main.o)
 .debug_frame   0x000196b4       0xf0 ../../../../lib/32b/librphttpd.a(AsMD5.o)
 .debug_frame   0x000197a4       0xb0 ../../../../lib/32b/librphttpd.a(Spwd.o)
 .debug_frame   0x00019854      0x1d0 ../../../../lib/32b/librphttpd.a(RpCallBk.o)
 .debug_frame   0x00019a24       0xd0 ../../../../lib/32b/librphttpd.a(RpMulti.o)
 .debug_frame   0x00019af4       0xb4 ../../../../lib/32b/librphttpd.a(RpUrl.o)
 .debug_frame   0x00019ba8      0x314 ../../../../lib/32b/librphttpd.a(PrRomPop.o)
 .debug_frame   0x00019ebc       0xd0 ../../../../lib/32b/libmanMib.a(MibMan.o)
 .debug_frame   0x00019f8c       0x10 ../../../../lib/32b/libmanMib.a(RFC1213_MIB.o)
 .debug_frame   0x00019f9c       0x10 ../../../../lib/32b/libmanMib.a(SNMPv2_MIB.o)
 .debug_frame   0x00019fac      0x210 ../../../../lib/32b/libmanMib.a(RFC1213_MIBAction.o)
 .debug_frame   0x0001a1bc       0x50 ../../../../lib/32b/libmanMib.a(SNMPv2_MIBAction.o)
 .debug_frame   0x0001a20c      0x250 ../../../../lib/32b/libmanMib.a(man_sys.o)
 .debug_frame   0x0001a45c      0x3d0 ../../../../lib/32b/libmanMib.a(man_if.o)
 .debug_frame   0x0001a82c       0xf0 ../../../../lib/32b/libmanMib.a(man_at.o)
 .debug_frame   0x0001a91c      0x770 ../../../../lib/32b/libmanMib.a(man_ip.o)
 .debug_frame   0x0001b08c      0x350 ../../../../lib/32b/libmanMib.a(man_icmp.o)
 .debug_frame   0x0001b3dc      0x350 ../../../../lib/32b/libmanMib.a(man_tcp.o)
 .debug_frame   0x0001b72c      0x150 ../../../../lib/32b/libmanMib.a(man_upd.o)
 .debug_frame   0x0001b87c      0x2f0 ../../../../lib/32b/libmanMib.a(man_egp.o)
 .debug_frame   0x0001bb6c      0x3d0 ../../../../lib/32b/libmanMib.a(man_snmp.o)
 .debug_frame   0x0001bf3c      0x250 ../../../../lib/32b/libsntp.a(UDPsntp.o)
 .debug_frame   0x0001c18c      0x2f8 ../../../../lib/32b/libfilesys.a(fss.o)
 .debug_frame   0x0001c484      0x130 ../../../../lib/32b/libfilesys.a(rss.o)
 .debug_frame   0x0001c5b4       0x70 ../../../../lib/32b/libfilesys.a(crc32h.o)
 .debug_frame   0x0001c624      0x150 ../../../../lib/32b/libfilesys.a(bheader.o)
 .debug_frame   0x0001c774      0x490 ../../../../lib/32b/libfilesys.a(fs_api.o)
 .debug_frame   0x0001cc04      0x454 ../../../../lib/32b/libfilesys.a(io.o)
 .debug_frame   0x0001d058      0x150 ../../../../lib/32b/libfilesys.a(parser.o)
 .debug_frame   0x0001d1a8      0x690 ../../../../lib/32b/libfilesys.a(ftables.o)
 .debug_frame   0x0001d838      0x110 ../../../../lib/32b/libfilesys.a(thread.o)
 .debug_frame   0x0001d948      0x250 ../../../../lib/32b/libfilesys.a(sblock.o)
 .debug_frame   0x0001db98      0x110 ../../../../lib/32b/libfilesys.a(bpool.o)
 .debug_frame   0x0001dca8      0x250 ../../../../lib/32b/libfilesys.a(pwr_loss.o)
 .debug_frame   0x0001def8      0x2d0 ../../../../lib/32b/libfilesys.a(inode.o)
 .debug_frame   0x0001e1c8      0x1b0 ../../../../lib/32b/libfilesys.a(services.o)
 .debug_frame   0x0001e378      0x2d0 ../../../../lib/32b/libbsp.a(MII.o)
 .debug_frame   0x0001e648       0x50 ../../../../lib/32b/libbsp.a(select_support.o)
 .debug_frame   0x0001e698       0xf0 ../../../../lib/32b/libbsp.a(eth_init.o)
 .debug_frame   0x0001e788       0xb0 ../../../../lib/32b/libbsp.a(eth_dma.o)
 .debug_frame   0x0001e838       0xb0 ../../../../lib/32b/libbsp.a(eth_isr.o)
 .debug_frame   0x0001e8e8       0xf0 ../../../../lib/32b/libbsp.a(eth_mcast.o)
 .debug_frame   0x0001e9d8       0xb0 ../../../../lib/32b/libbsp.a(eth_os.o)
 .debug_frame   0x0001ea88       0x50 ../../../../lib/32b/libbsp.a(eth_recv.o)
 .debug_frame   0x0001ead8      0x110 ../../../../lib/32b/libbsp.a(eth_send.o)
 .debug_frame   0x0001ebe8      0x350 ../../../../lib/32b/libbsp.a(eth_stack.o)
 .debug_frame   0x0001ef38       0x70 ../../../../lib/32b/libbsp.a(eth_watchdog.o)
 .debug_frame   0x0001efa8      0x1b4 ../../../../lib/32b/libbsp.a(eth_reset.o)
 .debug_frame   0x0001f15c       0x30 ../../../../lib/32b/libtx.a(tx_timeg.o)
 .debug_frame   0x0001f18c       0x30 ../../../../lib/32b/libtx.a(txe_efs.o)
 .debug_frame   0x0001f1bc       0x30 ../../../../lib/32b/libtx.a(txe_tpch.o)
 .debug_frame   0x0001f1ec       0x30 ../../../../lib/32b/libtx.a(txe_trel.o)
 .debug_frame   0x0001f21c       0x30 ../../../../lib/32b/libtx.a(TXE_TIG.o)
 .debug_frame   0x0001f24c       0x30 ../../../../lib/32b/libtx.a(TXE_MD.o)
 .debug_frame   0x0001f27c       0x30 ../../../../lib/32b/libtx.a(tx_trel.o)
 .debug_frame   0x0001f2ac       0x30 ../../../../lib/32b/libtx.a(tx_tpch.o)
 .debug_frame   0x0001f2dc       0x30 ../../../../lib/32b/libtx.a(tx_efs.o)
 .debug_frame   0x0001f30c       0x30 ../../../../lib/32b/libtx.a(TX_TIG.o)
 .debug_frame   0x0001f33c       0x30 ../../../../lib/32b/libtx.a(TX_MD.o)
 .debug_frame   0x0001f36c      0x538 ../../../../lib/32b/libemailc.a(allegro_mailc.o)
 .debug_frame   0x0001f8a4       0x34 ../../../../lib/32b/libtcpip.a(udpopen.o)
 .debug_frame   0x0001f8d8       0x20 ../../../../lib/32b/libtcpip.a(strcpy.o)
 .debug_frame   0x0001f8f8       0x20 ../../../../lib/32b/libtcpip.a(strlen.o)
 .debug_frame   0x0001f918       0x68 ../../../../lib/32b/libtcpip.a(memory.o)
 .debug_frame   0x0001f980       0x38 ../../../../lib/32b/libtcpip.a(ipbind.o)
 .debug_frame   0x0001f9b8       0x28 ../../../../lib/32b/gnu/libc.a(atol.o)
 .debug_frame   0x0001f9e0       0x44 ../../../../lib/32b/gnu/libc.a(rand.o)
 .debug_frame   0x0001fa24       0x30 ../../../../lib/32b/gnu/libc.a(time.o)
 .debug_frame   0x0001fa54       0x4c ../../../../lib/32b/gnu/libc.a(timer.o)

.debug_str      0x00000000    0x34e3b
 *(.debug_str)
 .debug_str     0x00000000     0x202e ./objs/appconf_api.o
                               0x2327 (size before relaxing)
 .debug_str     0x0000202e     0x4444 ./objs/root.o
                               0x6782 (size before relaxing)
 .debug_str     0x00006472       0xdf ./objs/MibMan.o
                               0x1ba6 (size before relaxing)
 .debug_str     0x00006551     0x1499 ./objs/EARMIB.o
                               0x41f4 (size before relaxing)
 .debug_str     0x000079ea     0x1335 ./objs/EARMIBAction.o
                               0x45ec (size before relaxing)
 .debug_str     0x00008d1f      0x9cd ./objs/ipgFlash.o
                               0x252c (size before relaxing)
 .debug_str     0x000096ec      0x319 ./objs/telnet.o
                               0x3240 (size before relaxing)
 .debug_str     0x00009a05      0x91b ./objs/menu.o
                               0x3fb1 (size before relaxing)
 .debug_str     0x0000a320      0x562 ./objs/ipgsnmp.o
                               0x3cc3 (size before relaxing)
 .debug_str     0x0000a882       0xc0 ./objs/earTemperatureAlarmThreshold.o
                               0x35ec (size before relaxing)
 .debug_str     0x0000a942      0x10f ./objs/earSnmpMngrTable.o
                               0x361f (size before relaxing)
 .debug_str     0x0000aa51       0x3a ./objs/earTrapPort.o
                               0x3549 (size before relaxing)
 .debug_str     0x0000aa8b       0x60 ./objs/earPumpsOff.o
                               0x3583 (size before relaxing)
 .debug_str     0x0000aaeb       0x54 ./objs/earChassisReboot.o
                               0x227f (size before relaxing)
 .debug_str     0x0000ab3f       0x2b ./objs/earModelNumberRead.o
                               0x271a (size before relaxing)
 .debug_str     0x0000ab6a       0x4c ./objs/earRtcTime.o
                               0x355b (size before relaxing)
 .debug_str     0x0000abb6       0x32 ./objs/find_highwater.o
                                 0xe4 (size before relaxing)
 .debug_str     0x0000abe8      0x186 ./objs/readFrom2U2.o
                               0x3110 (size before relaxing)
 .debug_str     0x0000ad6e      0x20d ./objs/semaphores.o
                               0x2f18 (size before relaxing)
 .debug_str     0x0000af7b      0x20a ./objs/Snmp_api.o
                               0x2ab8 (size before relaxing)
 .debug_str     0x0000b185       0x95 ./objs/configNotification.o
                               0x35c0 (size before relaxing)
 .debug_str     0x0000b21a       0x9c ./objs/atmel.o
                               0x12c6 (size before relaxing)
 .debug_str     0x0000b2b6     0x20af ./objs/EDFAWelcomePage.o
                               0x48bf (size before relaxing)
 .debug_str     0x0000d365      0x167 ./objs/EDFAWelcomePage_v.o
                               0x5dc7 (size before relaxing)
 .debug_str     0x0000d4cc       0x2f ./objs/RpPages.o
                               0x21ca (size before relaxing)
 .debug_str     0x0000d4fb       0x2f ./objs/security.o
                               0x28df (size before relaxing)
 .debug_str     0x0000d52a       0x22 ./objs/RpUsrDct.o
                               0x20fe (size before relaxing)
 .debug_str     0x0000d54c      0x293 ./objs/cgi.o
                               0x237e (size before relaxing)
 .debug_str     0x0000d7df      0x185 ./objs/file.o
                               0x2261 (size before relaxing)
 .debug_str     0x0000d964       0x7c ./objs/naftpapp.o
                               0x1874 (size before relaxing)
 .debug_str     0x0000d9e0      0x39f /usr/lib/gcc-lib/arm-elf/3.2/be/libgcc.a(_addsub_sf.o)
                                0x49b (size before relaxing)
 .debug_str     0x0000dd7f       0x35 /usr/lib/gcc-lib/arm-elf/3.2/be/libgcc.a(_div_sf.o)
                                0x472 (size before relaxing)
 .debug_str     0x0000ddb4        0xc /usr/lib/gcc-lib/arm-elf/3.2/be/libgcc.a(_si_to_sf.o)
                                0x430 (size before relaxing)
 .debug_str     0x0000ddc0        0xe /usr/lib/gcc-lib/arm-elf/3.2/be/libgcc.a(_sf_to_df.o)
                                0x432 (size before relaxing)
 .debug_str     0x0000ddce       0x1e /usr/lib/gcc-lib/arm-elf/3.2/be/libgcc.a(_div_df.o)
                                0x478 (size before relaxing)
 .debug_str     0x0000ddec        0xa /usr/lib/gcc-lib/arm-elf/3.2/be/libgcc.a(_make_df.o)
                                0x433 (size before relaxing)
 .debug_str     0x0000ddf6       0x14 /usr/lib/gcc-lib/arm-elf/3.2/be/libgcc.a(_df_to_sf.o)
                                0x43e (size before relaxing)
 .debug_str     0x0000de0a       0x10 /usr/lib/gcc-lib/arm-elf/3.2/be/libgcc.a(_pack_sf.o)
                                0x447 (size before relaxing)
 .debug_str     0x0000de1a        0xb /usr/lib/gcc-lib/arm-elf/3.2/be/libgcc.a(_unpack_sf.o)
                                0x429 (size before relaxing)
 .debug_str     0x0000de25        0xa /usr/lib/gcc-lib/arm-elf/3.2/be/libgcc.a(_make_sf.o)
                                0x42d (size before relaxing)
 .debug_str     0x0000de2f        0x9 /usr/lib/gcc-lib/arm-elf/3.2/be/libgcc.a(_pack_df.o)
                                0x44d (size before relaxing)
 .debug_str     0x0000de38        0xb /usr/lib/gcc-lib/arm-elf/3.2/be/libgcc.a(_unpack_df.o)
                                0x42f (size before relaxing)
 .debug_str     0x0000de43      0x33a /usr/lib/gcc-lib/arm-elf/3.2/be/libgcc.a(_lshrdi3.o)
                                0x70b (size before relaxing)
 .debug_str     0x0000e17d        0xa /usr/lib/gcc-lib/arm-elf/3.2/be/libgcc.a(_ashldi3.o)
                                0x70b (size before relaxing)
 .debug_str     0x0000e187       0x6c ../../../../lib/32b/gnu/libc.a(atof.o)
                                0x4bb (size before relaxing)
 .debug_str     0x0000e1f3       0x3c ../../../../lib/32b/gnu/libc.a(atoi.o)
                                0x4b4 (size before relaxing)
 .debug_str     0x0000e22f       0x39 ../../../../lib/32b/gnu/libc.a(calloc.o)
                                0x4c9 (size before relaxing)
 .debug_str     0x0000e268       0xe6 ../../../../lib/32b/gnu/libc.a(callocr.o)
                                0x6b9 (size before relaxing)
 .debug_str     0x0000e34e       0x37 ../../../../lib/32b/gnu/libc.a(exit.o)
                                0x61c (size before relaxing)
 .debug_str     0x0000e385       0x6e ../../../../lib/32b/gnu/libc.a(fflush.o)
                                0x62a (size before relaxing)
 .debug_str     0x0000e3f3      0x136 ../../../../lib/32b/gnu/libc.a(findfp.o)
                                0x7bc (size before relaxing)
 .debug_str     0x0000e529       0x3e ../../../../lib/32b/gnu/libc.a(fwalk.o)
                                0x640 (size before relaxing)
 .debug_str     0x0000e567       0x73 ../../../../lib/32b/gnu/libc.a(impure.o)
                                0x4e6 (size before relaxing)
 .debug_str     0x0000e5da       0x70 ../../../../lib/32b/gnu/libc.a(isdigit.o)
                                 0xad (size before relaxing)
 .debug_str     0x0000e64a       0x39 ../../../../lib/32b/gnu/libc.a(isspace.o)
                                 0xad (size before relaxing)
 .debug_str     0x0000e683       0x76 ../../../../lib/32b/gnu/libc.a(lcltime.o)
                                0x655 (size before relaxing)
 .debug_str     0x0000e6f9       0x64 ../../../../lib/32b/gnu/libc.a(lcltime_r.o)
                                0x663 (size before relaxing)
 .debug_str     0x0000e75d       0x45 ../../../../lib/32b/gnu/libc.a(malloc.o)
                                0x564 (size before relaxing)
 .debug_str     0x0000e7a2      0x155 ../../../../lib/32b/gnu/libc.a(mallocr.o)
                                0x80a (size before relaxing)
 .debug_str     0x0000e8f7       0x69 ../../../../lib/32b/gnu/libc.a(memcmp.o)
                                0x49e (size before relaxing)
 .debug_str     0x0000e960       0x60 ../../../../lib/32b/gnu/libc.a(memcpy.o)
                                0x100 (size before relaxing)
 .debug_str     0x0000e9c0       0x46 ../../../../lib/32b/gnu/libc.a(memset.o)
                                0x4b2 (size before relaxing)
 .debug_str     0x0000ea06       0xd8 ../../../../lib/32b/gnu/libc.a(mktm_r.o)
                                0x701 (size before relaxing)
 .debug_str     0x0000eade       0x3c ../../../../lib/32b/gnu/libc.a(mlock.o)
                                0x507 (size before relaxing)
 .debug_str     0x0000eb1a       0x42 ../../../../lib/32b/gnu/libc.a(printf.o)
                                0x634 (size before relaxing)
 .debug_str     0x0000eb5c       0x3e ../../../../lib/32b/gnu/libc.a(rget.o)
                                0x61d (size before relaxing)
 .debug_str     0x0000eb9a       0x4a ../../../../lib/32b/gnu/libc.a(sbrkr.o)
                                0x60c (size before relaxing)
 .debug_str     0x0000ebe4       0x4f ../../../../lib/32b/gnu/libc.a(snprintf.o)
                                0x63f (size before relaxing)
 .debug_str     0x0000ec33       0x44 ../../../../lib/32b/gnu/libc.a(sprintf.o)
                                0x637 (size before relaxing)
 .debug_str     0x0000ec77       0x51 ../../../../lib/32b/gnu/libc.a(sscanf.o)
                                0x643 (size before relaxing)
 .debug_str     0x0000ecc8       0x59 ../../../../lib/32b/gnu/libc.a(stdio.o)
                                0x76d (size before relaxing)
 .debug_str     0x0000ed21       0x4b ../../../../lib/32b/gnu/libc.a(strcat.o)
                                0x4a9 (size before relaxing)
 .debug_str     0x0000ed6c       0x40 ../../../../lib/32b/gnu/libc.a(strchr.o)
                                0x4b0 (size before relaxing)
 .debug_str     0x0000edac       0x39 ../../../../lib/32b/gnu/libc.a(strcmp.o)
                                0x49e (size before relaxing)
 .debug_str     0x0000ede5       0x39 ../../../../lib/32b/gnu/libc.a(strcpy.o)
                                0x4c0 (size before relaxing)
 .debug_str     0x0000ee1e       0x39 ../../../../lib/32b/gnu/libc.a(strlen.o)
                                0x4b1 (size before relaxing)
 .debug_str     0x0000ee57       0x42 ../../../../lib/32b/gnu/libc.a(strncmp.o)
                                0x4a0 (size before relaxing)
 .debug_str     0x0000ee99       0x42 ../../../../lib/32b/gnu/libc.a(strncpy.o)
                                0x4c8 (size before relaxing)
 .debug_str     0x0000eedb       0x51 ../../../../lib/32b/gnu/libc.a(strstr.o)
                                0x4af (size before relaxing)
 .debug_str     0x0000ef2c      0x209 ../../../../lib/32b/gnu/libc.a(strtod.o)
                                0x824 (size before relaxing)
 .debug_str     0x0000f135       0x40 ../../../../lib/32b/gnu/libc.a(strtok.o)
                                0x4e9 (size before relaxing)
 .debug_str     0x0000f175       0x65 ../../../../lib/32b/gnu/libc.a(strtok_r.o)
                                0x4d7 (size before relaxing)
 .debug_str     0x0000f1da       0x5f ../../../../lib/32b/gnu/libc.a(strtol.o)
                                0x53b (size before relaxing)
 .debug_str     0x0000f239       0x39 ../../../../lib/32b/gnu/libc.a(tzlock.o)
                                0x669 (size before relaxing)
 .debug_str     0x0000f272       0x54 ../../../../lib/32b/gnu/libc.a(tzset_r.o)
                                0x724 (size before relaxing)
 .debug_str     0x0000f2c6      0x272 ../../../../lib/32b/gnu/libc.a(vfprintf.o)
                                0xa6e (size before relaxing)
 .debug_str     0x0000f538       0xf7 ../../../../lib/32b/gnu/libc.a(vfscanf.o)
                                0x756 (size before relaxing)
 .debug_str     0x0000f62f       0x41 ../../../../lib/32b/gnu/libc.a(writer.o)
                                0x603 (size before relaxing)
 .debug_str     0x0000f670       0x42 ../../../../lib/32b/gnu/libc.a(wsetup.o)
                                0x63f (size before relaxing)
 .debug_str     0x0000f6b2      0x2b2 ../../../../lib/32b/gnu/libc.a(syscalls.o)
                                0xc25 (size before relaxing)
 .debug_str     0x0000f964       0x41 ../../../../lib/32b/gnu/libc.a(closer.o)
                                0x603 (size before relaxing)
 .debug_str     0x0000f9a5       0x44 ../../../../lib/32b/gnu/libc.a(ctype_.o)
                                 0xc2 (size before relaxing)
 .debug_str     0x0000f9e9       0xcf ../../../../lib/32b/gnu/libc.a(dtoa.o)
                                0x854 (size before relaxing)
 .debug_str     0x0000fab8       0x6e ../../../../lib/32b/gnu/libc.a(errno.o)
                                0x4e9 (size before relaxing)
 .debug_str     0x0000fb26       0x37 ../../../../lib/32b/gnu/libc.a(fread.o)
                                0x633 (size before relaxing)
 .debug_str     0x0000fb5d       0x36 ../../../../lib/32b/gnu/libc.a(freer.o)
                                0x75c (size before relaxing)
 .debug_str     0x0000fb93       0x5a ../../../../lib/32b/gnu/libc.a(fvwrite.o)
                                0x687 (size before relaxing)
 .debug_str     0x0000fbed       0x5a ../../../../lib/32b/gnu/libc.a(getenv_r.o)
                                0x4fa (size before relaxing)
 .debug_str     0x0000fc47       0xe5 ../../../../lib/32b/gnu/libc.a(locale.o)
                                0x688 (size before relaxing)
 .debug_str     0x0000fd2c       0x41 ../../../../lib/32b/gnu/libc.a(lseekr.o)
                                0x60a (size before relaxing)
 .debug_str     0x0000fd6d       0x4f ../../../../lib/32b/gnu/libc.a(makebuf.o)
                                0x720 (size before relaxing)
 .debug_str     0x0000fdbc       0x45 ../../../../lib/32b/gnu/libc.a(mbtowc_r.o)
                                0x5d9 (size before relaxing)
 .debug_str     0x0000fe01       0x47 ../../../../lib/32b/gnu/libc.a(memchr.o)
                                0x4bf (size before relaxing)
 .debug_str     0x0000fe48       0x4b ../../../../lib/32b/gnu/libc.a(memmove.o)
                                0x4e3 (size before relaxing)
 .debug_str     0x0000fe93       0xc0 ../../../../lib/32b/gnu/libc.a(mprec.o)
                                0x841 (size before relaxing)
 .debug_str     0x0000ff53       0x3f ../../../../lib/32b/gnu/libc.a(readr.o)
                                0x601 (size before relaxing)
 .debug_str     0x0000ff92       0x5c ../../../../lib/32b/gnu/libc.a(reallocr.o)
                                0x732 (size before relaxing)
 .debug_str     0x0000ffee       0x71 ../../../../lib/32b/gnu/libc.a(reent.o)
                                0x538 (size before relaxing)
 .debug_str     0x0001005f       0x49 ../../../../lib/32b/gnu/libc.a(refill.o)
                                0x646 (size before relaxing)
 .debug_str     0x000100a8       0x69 ../../../../lib/32b/gnu/libc.a(s_infconst.o)
                                0x6bf (size before relaxing)
 .debug_str     0x00010111       0x38 ../../../../lib/32b/gnu/libc.a(s_isinf.o)
                                0x6b7 (size before relaxing)
 .debug_str     0x00010149       0x38 ../../../../lib/32b/gnu/libc.a(s_isnan.o)
                                0x6b7 (size before relaxing)
 .debug_str     0x00010181       0x4a ../../../../lib/32b/gnu/libc.a(setenv.o)
                                0x4ea (size before relaxing)
 .debug_str     0x000101cb       0x29 ../../../../lib/32b/gnu/libc.a(setenv_r.o)
                                0x699 (size before relaxing)
 .debug_str     0x000101f4       0x4d ../../../../lib/32b/gnu/libc.a(strtoul.o)
                                0x53e (size before relaxing)
 .debug_str     0x00010241       0x6e ../../../../lib/32b/gnu/libc.a(sysopen.o)
                                0x742 (size before relaxing)
 .debug_str     0x000102af       0x3c ../../../../lib/32b/gnu/libc.a(tzset.o)
                                0x675 (size before relaxing)
 .debug_str     0x000102eb       0x49 ../../../../lib/32b/gnu/libc.a(ungetc.o)
                                0x646 (size before relaxing)
 .debug_str     0x00010334       0x3e ../../../../lib/32b/gnu/libc.a(bcopy.o)
                                0x4a3 (size before relaxing)
 .debug_str     0x00010372       0x46 ../../../../lib/32b/gnu/libc.a(environ.o)
                                 0xc5 (size before relaxing)
 .debug_str     0x000103b8       0x52 ../../../../lib/32b/gnu/libc.a(envlock.o)
                                0x4a9 (size before relaxing)
 .debug_str     0x0001040a       0x47 ../../../../lib/32b/gnu/libc.a(fstatr.o)
                                0x6e4 (size before relaxing)
 .debug_str     0x00010451       0x53 /usr/lib/gcc-lib/arm-elf/3.2/be/libgcc.a(_udivdi3.o)
                                0x74c (size before relaxing)
 .debug_str     0x000104a4        0xa /usr/lib/gcc-lib/arm-elf/3.2/be/libgcc.a(_umoddi3.o)
                                0x74c (size before relaxing)
 .debug_str     0x000104ae       0x12 /usr/lib/gcc-lib/arm-elf/3.2/be/libgcc.a(_addsub_df.o)
                                0x4a1 (size before relaxing)
 .debug_str     0x000104c0       0x40 /usr/lib/gcc-lib/arm-elf/3.2/be/libgcc.a(_mul_df.o)
                                0x488 (size before relaxing)
 .debug_str     0x00010500        0x8 /usr/lib/gcc-lib/arm-elf/3.2/be/libgcc.a(_eq_df.o)
                                0x43e (size before relaxing)
 .debug_str     0x00010508        0x8 /usr/lib/gcc-lib/arm-elf/3.2/be/libgcc.a(_ne_df.o)
                                0x43e (size before relaxing)
 .debug_str     0x00010510        0x8 /usr/lib/gcc-lib/arm-elf/3.2/be/libgcc.a(_gt_df.o)
                                0x43e (size before relaxing)
 .debug_str     0x00010518        0x8 /usr/lib/gcc-lib/arm-elf/3.2/be/libgcc.a(_ge_df.o)
                                0x43e (size before relaxing)
 .debug_str     0x00010520        0x8 /usr/lib/gcc-lib/arm-elf/3.2/be/libgcc.a(_lt_df.o)
                                0x43e (size before relaxing)
 .debug_str     0x00010528        0x8 /usr/lib/gcc-lib/arm-elf/3.2/be/libgcc.a(_le_df.o)
                                0x43e (size before relaxing)
 .debug_str     0x00010530        0xc /usr/lib/gcc-lib/arm-elf/3.2/be/libgcc.a(_si_to_df.o)
                                0x436 (size before relaxing)
 .debug_str     0x0001053c        0xa /usr/lib/gcc-lib/arm-elf/3.2/be/libgcc.a(_df_to_si.o)
                                0x447 (size before relaxing)
 .debug_str     0x00010546       0x13 /usr/lib/gcc-lib/arm-elf/3.2/be/libgcc.a(_negate_df.o)
                                0x43d (size before relaxing)
 .debug_str     0x00010559       0x10 /usr/lib/gcc-lib/arm-elf/3.2/be/libgcc.a(_fpcmp_parts_df.o)
                                0x447 (size before relaxing)
 .debug_str     0x00010569      0x242 ../../../../lib/32b/libbsp.a(bsp_api.o)
                               0x1455 (size before relaxing)
 .debug_str     0x000107ab      0x6bc ../../../../lib/32b/libbsp.a(nainet.o)
                               0x1d18 (size before relaxing)
 .debug_str     0x00010e67       0xcf ../../../../lib/32b/libbsp.a(main.o)
                               0x203f (size before relaxing)
 .debug_str     0x00010f36       0xff ../../../../lib/32b/libbsp.a(errhndlr.o)
                               0x21f1 (size before relaxing)
 .debug_str     0x00011035       0xf9 ../../../../lib/32b/libbsp.a(narmbrd.o)
                               0x2142 (size before relaxing)
 .debug_str     0x0001112e       0xcf ../../../../lib/32b/libbsp.a(narmled.o)
                               0x12ca (size before relaxing)
 .debug_str     0x000111fd       0x4f ../../../../lib/32b/libbsp.a(devices.o)
                               0x13af (size before relaxing)
 .debug_str     0x0001124c       0xe7 ../../../../lib/32b/libbsp.a(flashnvrm.o)
                               0x149b (size before relaxing)
 .debug_str     0x00011333      0x163 ../../../../lib/32b/libbsp.a(sysAccess.o)
                                0x7a2 (size before relaxing)
 .debug_str     0x00011496      0x15f ../../../../lib/32b/libbsp.a(lpbkdev.o)
                               0x1517 (size before relaxing)
 .debug_str     0x000115f5       0x76 ../../../../lib/32b/libbsp.a(nuldev.o)
                               0x1299 (size before relaxing)
 .debug_str     0x0001166b      0x105 ../../../../lib/32b/libbsp.a(nacache.o)
                               0x138f (size before relaxing)
 .debug_str     0x00011770      0x251 ../../../../lib/32b/libbsp.a(NCC_INIT.o)
                               0x15bc (size before relaxing)
 .debug_str     0x000119c1      0x55c ../../../../lib/32b/libbsp.a(NCC_POST.o)
                                0xc18 (size before relaxing)
 .debug_str     0x00011f1d       0x7f ../../../../lib/32b/libbsp.a(IRQREG.o)
                                0x2a0 (size before relaxing)
 .debug_str     0x00011f9c      0x122 ../../../../lib/32b/libbsp.a(gpio.o)
                               0x148c (size before relaxing)
 .debug_str     0x000120be       0xf3 ../../../../lib/32b/libbsp.a(cs.o)
                               0x218c (size before relaxing)
 .debug_str     0x000121b1      0x1eb ../../../../lib/32b/libbsp.a(boardParams.o)
                               0x24d5 (size before relaxing)
 .debug_str     0x0001239c       0xd9 ../../../../lib/32b/libbsp.a(nawait.o)
                               0x1274 (size before relaxing)
 .debug_str     0x00012475       0x5b ../../../../lib/32b/libbsp.a(nareset.o)
                                0x216 (size before relaxing)
 .debug_str     0x000124d0      0x3d6 ../../../../lib/32b/libbsp.a(startfilesystem.o)
                               0x1e07 (size before relaxing)
 .debug_str     0x000128a6       0x67 ../../../../lib/32b/libbsp.a(fbanks.o)
                               0x10fa (size before relaxing)
 .debug_str     0x0001290d      0x33f ../../../../lib/32b/libbsp.a(rtc.o)
                               0x1746 (size before relaxing)
 .debug_str     0x00012c4c      0x1a6 ../../../../lib/32b/libbsp.a(termios.o)
                                0x492 (size before relaxing)
 .debug_str     0x00012df2      0x887 ../../../../lib/32b/libbsp.a(netos_serl.o)
                               0x20fe (size before relaxing)
 .debug_str     0x00013679      0x17b ../../../../lib/32b/libbsp.a(NA_ISR.o)
                               0x1332 (size before relaxing)
 .debug_str     0x000137f4       0x6b ../../../../lib/32b/libbsp.a(crc32h.o)
                                0x2cc (size before relaxing)
 .debug_str     0x0001385f       0xde ../../../../lib/32b/libbsp.a(udpdb.o)
                               0x1830 (size before relaxing)
 .debug_str     0x0001393d       0x83 ../../../../lib/32b/libbsp.a(bsp.o)
                                0xeed (size before relaxing)
 .debug_str     0x000139c0      0x1f0 ../../../../lib/32b/libbsp.a(bsproot.o)
                               0x276d (size before relaxing)
 .debug_str     0x00013bb0      0x5de ../../../../lib/32b/libbsp.a(starttcp.o)
                               0x319b (size before relaxing)
 .debug_str     0x0001418e      0x101 ../../../../lib/32b/libbsp.a(bsptimer.o)
                               0x12b0 (size before relaxing)
 .debug_str     0x0001428f       0x6f ../../../../lib/32b/libbsp.a(sysClock.o)
                                0xe51 (size before relaxing)
 .debug_str     0x000142fe      0x462 ../../../../lib/32b/libbsp.a(hdlcdvr.o)
                               0x1a33 (size before relaxing)
 .debug_str     0x00014760      0x38c ../../../../lib/32b/libbsp.a(aceParams.o)
                               0x23ec (size before relaxing)
 .debug_str     0x00014aec      0x326 ../../../../lib/32b/libbsp.a(aceCallbacks.o)
                               0x2e61 (size before relaxing)
 .debug_str     0x00014e12      0x103 ../../../../lib/32b/libbsp.a(naip_global.o)
                               0x1e67 (size before relaxing)
 .debug_str     0x00014f15       0xb8 ../../../../lib/32b/libbsp.a(naifconfig.o)
                               0x2add (size before relaxing)
 .debug_str     0x00014fcd      0x176 ../../../../lib/32b/libbsp.a(dialog.o)
                               0x24f4 (size before relaxing)
 .debug_str     0x00015143       0x80 ../../../../lib/32b/libbsp.a(flashutil.o)
                                0x603 (size before relaxing)
 .debug_str     0x000151c3       0x70 ../../../../lib/32b/libbsp.a(event_handler.o)
                               0x141a (size before relaxing)
 .debug_str     0x00015233       0xe3 ../../../../lib/32b/libbsp.a(hdlcmem.o)
                               0x1558 (size before relaxing)
 .debug_str     0x00015316      0xe89 ../../../../lib/32b/libflash.a(naflash.o)
                               0x157c (size before relaxing)
 .debug_str     0x0001619f       0x65 ../../../../lib/32b/libflash.a(naflsem.o)
                                0xe1e (size before relaxing)
 .debug_str     0x00016204      0x100 ../../../../lib/32b/libposix.a(posix_semaphore.o)
                               0x110b (size before relaxing)
 .debug_str     0x00016304      0x218 ../../../../lib/32b/libposix.a(posix_thread.o)
                               0x16d2 (size before relaxing)
 .debug_str     0x0001651c       0xc4 ../../../../lib/32b/libtx.a(tx_ike.o)
                                0xc2c (size before relaxing)
 .debug_str     0x000165e0      0x12d ../../../../lib/32b/libtx.a(tx_timi.o)
                               0x10d7 (size before relaxing)
 .debug_str     0x0001670d      0x16f ../../../../lib/32b/libtx.a(tx_ti.o)
                               0x1105 (size before relaxing)
 .debug_str     0x0001687c       0x40 ../../../../lib/32b/libtx.a(tx_tc.o)
                               0x106e (size before relaxing)
 .debug_str     0x000168bc       0x2e ../../../../lib/32b/libtx.a(tx_tr.o)
                                0xcdc (size before relaxing)
 .debug_str     0x000168ea       0x61 ../../../../lib/32b/libtx.a(tx_tte.o)
                                0xccc (size before relaxing)
 .debug_str     0x0001694b       0x35 ../../../../lib/32b/libtx.a(tx_ta.o)
                                0xc48 (size before relaxing)
 .debug_str     0x00016980       0x2a ../../../../lib/32b/libtx.a(tx_tto.o)
                                0xc2a (size before relaxing)
 .debug_str     0x000169aa       0x27 ../../../../lib/32b/libtx.a(tx_tsle.o)
                                0xc4c (size before relaxing)
 .debug_str     0x000169d1       0x1e ../../../../lib/32b/libtx.a(tx_tide.o)
                                0xbeb (size before relaxing)
 .debug_str     0x000169ef       0x94 ../../../../lib/32b/libtx.a(tx_gnu.o)
                                0xcaa (size before relaxing)
 .debug_str     0x00016a83       0x35 ../../../../lib/32b/libtx.a(txe_efc.o)
                                0xc32 (size before relaxing)
 .debug_str     0x00016ab8       0x4c ../../../../lib/32b/libtx.a(txe_efg.o)
                                0xc5e (size before relaxing)
 .debug_str     0x00016b04       0x25 ../../../../lib/32b/libtx.a(txe_qc.o)
                                0xc4f (size before relaxing)
 .debug_str     0x00016b29       0x2c ../../../../lib/32b/libtx.a(txe_qr.o)
                                0xc3f (size before relaxing)
 .debug_str     0x00016b55       0x24 ../../../../lib/32b/libtx.a(txe_qs.o)
                                0xc37 (size before relaxing)
 .debug_str     0x00016b79       0x3b ../../../../lib/32b/libtx.a(txe_sc.o)
                                0xc41 (size before relaxing)
 .debug_str     0x00016bb4       0x1f ../../../../lib/32b/libtx.a(txe_sd.o)
                                0xc2a (size before relaxing)
 .debug_str     0x00016bd3       0x1c ../../../../lib/32b/libtx.a(txe_sg.o)
                                0xc33 (size before relaxing)
 .debug_str     0x00016bef       0x1c ../../../../lib/32b/libtx.a(txe_sp.o)
                                0xbe7 (size before relaxing)
 .debug_str     0x00016c0b       0x1c ../../../../lib/32b/libtx.a(txe_tc.o)
                                0xc8c (size before relaxing)
 .debug_str     0x00016c27       0x1e ../../../../lib/32b/libtx.a(txe_tdel.o)
                                0xc15 (size before relaxing)
 .debug_str     0x00016c45       0x41 ../../../../lib/32b/libtx.a(txe_trpc.o)
                                0xc38 (size before relaxing)
 .debug_str     0x00016c86       0x21 ../../../../lib/32b/libtx.a(txe_tra.o)
                                0xbe9 (size before relaxing)
 .debug_str     0x00016ca7       0x22 ../../../../lib/32b/libtx.a(txe_tsa.o)
                                0xc19 (size before relaxing)
 .debug_str     0x00016cc9       0x1f ../../../../lib/32b/libtx.a(txe_tt.o)
                                0xc16 (size before relaxing)
 .debug_str     0x00016ce8       0x22 ../../../../lib/32b/libtx.a(txe_taa.o)
                                0xbe9 (size before relaxing)
 .debug_str     0x00016d0a       0x3c ../../../../lib/32b/libtx.a(txe_tmch.o)
                                0xc1b (size before relaxing)
 .debug_str     0x00016d46       0x50 ../../../../lib/32b/libtx.a(txe_tmcr.o)
                                0xc7f (size before relaxing)
 .debug_str     0x00016d96       0x24 ../../../../lib/32b/libtx.a(txe_tda.o)
                                0xbeb (size before relaxing)
 .debug_str     0x00016dba       0x1d ../../../../lib/32b/libtx.a(txe_timd.o)
                                0xc24 (size before relaxing)
 .debug_str     0x00016dd7       0x51 ../../../../lib/32b/libtx.a(TX_MC.o)
                                0xc35 (size before relaxing)
 .debug_str     0x00016e28       0x16 ../../../../lib/32b/libtx.a(TX_MG.o)
                                0xc3a (size before relaxing)
 .debug_str     0x00016e3e       0x2e ../../../../lib/32b/libtx.a(TX_MP.o)
                                0xc7b (size before relaxing)
 .debug_str     0x00016e6c       0x33 ../../../../lib/32b/libtx.a(TX_MPRI.o)
                                0xc12 (size before relaxing)
 .debug_str     0x00016e9f       0x40 ../../../../lib/32b/libtx.a(TX_MPC.o)
                                0xce6 (size before relaxing)
 .debug_str     0x00016edf       0x1c ../../../../lib/32b/libtx.a(TX_MCLE.o)
                                0xc16 (size before relaxing)
 .debug_str     0x00016efb       0x1b ../../../../lib/32b/libtx.a(TXE_MC.o)
                                0xc33 (size before relaxing)
 .debug_str     0x00016f16       0x18 ../../../../lib/32b/libtx.a(TXE_MG.o)
                                0xc2b (size before relaxing)
 .debug_str     0x00016f2e       0x18 ../../../../lib/32b/libtx.a(TXE_MP.o)
                                0xbdf (size before relaxing)
 .debug_str     0x00016f46      0x12f ../../../../lib/32b/libtx.a(tx_ihl.o)
                                0xd13 (size before relaxing)
 .debug_str     0x00017075       0x20 ../../../../lib/32b/libtx.a(tx_tse.o)
                                0xc1c (size before relaxing)
 .debug_str     0x00017095       0x1d ../../../../lib/32b/libtx.a(tx_tsus.o)
                                0xcf4 (size before relaxing)
 .debug_str     0x000170b2       0x20 ../../../../lib/32b/libtx.a(tx_tsa.o)
                                0xc17 (size before relaxing)
 .debug_str     0x000170d2       0x1f ../../../../lib/32b/libtx.a(tx_tra.o)
                                0xc16 (size before relaxing)
 .debug_str     0x000170f1       0x1f ../../../../lib/32b/libtx.a(tx_tts.o)
                                0xc79 (size before relaxing)
 .debug_str     0x00017110       0x1c ../../../../lib/32b/libtx.a(tx_tdel.o)
                                0xc28 (size before relaxing)
 .debug_str     0x0001712c       0x26 ../../../../lib/32b/libtx.a(tx_tprch.o)
                                0xd17 (size before relaxing)
 .debug_str     0x00017152       0x1d ../../../../lib/32b/libtx.a(tx_tt.o)
                                0xc1d (size before relaxing)
 .debug_str     0x0001716f       0x1d ../../../../lib/32b/libtx.a(tx_td.o)
                                0xbf1 (size before relaxing)
 .debug_str     0x0001718c       0x1c ../../../../lib/32b/libtx.a(tx_timcr.o)
                                0xc82 (size before relaxing)
 .debug_str     0x000171a8       0x20 ../../../../lib/32b/libtx.a(tx_taa.o)
                                0xbe0 (size before relaxing)
 .debug_str     0x000171c8       0x3a ../../../../lib/32b/libtx.a(tx_tda.o)
                                0xc4c (size before relaxing)
 .debug_str     0x00017202       0x1c ../../../../lib/32b/libtx.a(tx_timch.o)
                                0xc0f (size before relaxing)
 .debug_str     0x0001721e       0x1b ../../../../lib/32b/libtx.a(tx_timd.o)
                                0xc1d (size before relaxing)
 .debug_str     0x00017239       0x1d ../../../../lib/32b/libtx.a(tx_sc.o)
                                0xc4b (size before relaxing)
 .debug_str     0x00017256       0x1d ../../../../lib/32b/libtx.a(tx_sd.o)
                                0xc7f (size before relaxing)
 .debug_str     0x00017273       0x1a ../../../../lib/32b/libtx.a(tx_sg.o)
                                0xc42 (size before relaxing)
 .debug_str     0x0001728d       0x1a ../../../../lib/32b/libtx.a(tx_sp.o)
                                0xc18 (size before relaxing)
 .debug_str     0x000172a7       0x20 ../../../../lib/32b/libtx.a(tx_scle.o)
                                0xc1e (size before relaxing)
 .debug_str     0x000172c7       0x24 ../../../../lib/32b/libtx.a(tx_qc.o)
                                0xc65 (size before relaxing)
 .debug_str     0x000172eb       0x23 ../../../../lib/32b/libtx.a(tx_qs.o)
                                0xc59 (size before relaxing)
 .debug_str     0x0001730e       0x1a ../../../../lib/32b/libtx.a(tx_qr.o)
                                0xc61 (size before relaxing)
 .debug_str     0x00017328       0x1c ../../../../lib/32b/libtx.a(tx_qcle.o)
                                0xc16 (size before relaxing)
 .debug_str     0x00017344       0x20 ../../../../lib/32b/libtx.a(tx_efc.o)
                                0xc40 (size before relaxing)
 .debug_str     0x00017364       0x1d ../../../../lib/32b/libtx.a(tx_efg.o)
                                0xc6d (size before relaxing)
 .debug_str     0x00017381       0x23 ../../../../lib/32b/libtx.a(tx_efcle.o)
                                0xc1d (size before relaxing)
 .debug_str     0x000173a4      0x19d ../../../../lib/32b/libmanapi.a(man_env.o)
                               0x14aa (size before relaxing)
 .debug_str     0x00017541      0x2bf ../../../../lib/32b/libmanapi.a(man_init.o)
                               0x155e (size before relaxing)
 .debug_str     0x00017800       0x2b ../../../../lib/32b/libmanapi.a(hash.o)
                                0x175 (size before relaxing)
 .debug_str     0x0001782b      0x236 ../../../../lib/32b/libmanapi.a(man_row.o)
                               0x14e9 (size before relaxing)
 .debug_str     0x00017a61      0x16b ../../../../lib/32b/libmanapi.a(man_main.o)
                               0x143c (size before relaxing)
 .debug_str     0x00017bcc      0x3dc ../../../../lib/32b/libftpsvr.a(ftposp.o)
                               0x1de1 (size before relaxing)
 .debug_str     0x00017fa8      0x62a ../../../../lib/32b/libftpsvr.a(ftpsvr.o)
                               0x2473 (size before relaxing)
 .debug_str     0x000185d2      0x5b4 ../../../../lib/32b/libtelnsvr.a(ts_mod.o)
                               0x211c (size before relaxing)
 .debug_str     0x00018b86      0x73d ../../../../lib/32b/libtelnsvr.a(telnetd2.o)
                               0x26a0 (size before relaxing)
 .debug_str     0x000192c3       0x3c ../../../../lib/32b/libtelnsvr.a(fsminit.o)
                                0x105 (size before relaxing)
 .debug_str     0x000192ff       0x25 ../../../../lib/32b/libtelnsvr.a(ttfsm.o)
                                0x5f4 (size before relaxing)
 .debug_str     0x00019324       0x4a ../../../../lib/32b/libtelnsvr.a(ttgetc.o)
                               0x1b1f (size before relaxing)
 .debug_str     0x0001936e       0x34 ../../../../lib/32b/libtelnsvr.a(will_not.o)
                               0x1276 (size before relaxing)
 .debug_str     0x000193a2       0x39 ../../../../lib/32b/libtelnsvr.a(do_echo.o)
                               0x1719 (size before relaxing)
 .debug_str     0x000193db       0x39 ../../../../lib/32b/libtelnsvr.a(do_noga.o)
                               0x1719 (size before relaxing)
 .debug_str     0x00019414       0x32 ../../../../lib/32b/libtelnsvr.a(do_notsu.o)
                               0x1712 (size before relaxing)
 .debug_str     0x00019446       0x42 ../../../../lib/32b/libtelnsvr.a(do_txbin.o)
                               0x1722 (size before relaxing)
 .debug_str     0x00019488       0x32 ../../../../lib/32b/libtelnsvr.a(tcga.o)
                               0x1274 (size before relaxing)
 .debug_str     0x000194ba       0x33 ../../../../lib/32b/libtelnsvr.a(recopt.o)
                               0x1275 (size before relaxing)
 .debug_str     0x000194ed      0xc6c ../../../../lib/32b/libdnsclnt.a(dnsc_api.o)
                               0x2c15 (size before relaxing)
 .debug_str     0x0001a159      0x4f2 ../../../../lib/32b/libfastip.a(fast_ip.o)
                               0x27af (size before relaxing)
 .debug_str     0x0001a64b      0x4b5 ../../../../lib/32b/libtcpip.a(ace.o)
                               0x351e (size before relaxing)
 .debug_str     0x0001ab00       0xd8 ../../../../lib/32b/libtcpip.a(ace_os.o)
                               0x2f10 (size before relaxing)
 .debug_str     0x0001abd8      0x3fd ../../../../lib/32b/libtcpip.a(ace_dhcp.o)
                               0x3485 (size before relaxing)
 .debug_str     0x0001afd5       0x76 ../../../../lib/32b/libtcpip.a(ace_bootp.o)
                               0x338b (size before relaxing)
 .debug_str     0x0001b04b       0x90 ../../../../lib/32b/libtcpip.a(ace_autoip.o)
                               0x35a6 (size before relaxing)
 .debug_str     0x0001b0db       0x5d ../../../../lib/32b/libtcpip.a(ace_static.o)
                               0x18c4 (size before relaxing)
 .debug_str     0x0001b138       0x69 ../../../../lib/32b/libtcpip.a(ace_rarp.o)
                               0x357b (size before relaxing)
 .debug_str     0x0001b1a1       0x68 ../../../../lib/32b/libtcpip.a(ace_pingarp.o)
                               0x3572 (size before relaxing)
 .debug_str     0x0001b209     0x10f1 ../../../../lib/32b/libtcpip.a(fnsrr.o)
                               0x3bfb (size before relaxing)
 .debug_str     0x0001c2fa       0x71 ../../../../lib/32b/libtcpip.a(heap.o)
                               0x29fb (size before relaxing)
 .debug_str     0x0001c36b      0x447 ../../../../lib/32b/libtcpip.a(icmp.o)
                               0x3d62 (size before relaxing)
 .debug_str     0x0001c7b2       0x27 ../../../../lib/32b/libtcpip.a(ipclassm.o)
                               0x12e0 (size before relaxing)
 .debug_str     0x0001c7d9       0x6e ../../../../lib/32b/libtcpip.a(ipcomm.o)
                               0x2a2d (size before relaxing)
 .debug_str     0x0001c847      0x1e7 ../../../../lib/32b/libtcpip.a(ipfrag.o)
                               0x2bae (size before relaxing)
 .debug_str     0x0001ca2e      0x29c ../../../../lib/32b/libtcpip.a(ipmisc.o)
                               0x2ce7 (size before relaxing)
 .debug_str     0x0001ccca      0x14e ../../../../lib/32b/libtcpip.a(ipnetd.o)
                               0x3a41 (size before relaxing)
 .debug_str     0x0001ce18       0xed ../../../../lib/32b/libtcpip.a(ipopt.o)
                               0x2adf (size before relaxing)
 .debug_str     0x0001cf05      0x100 ../../../../lib/32b/libtcpip.a(ipxmit.o)
                               0x2aea (size before relaxing)
 .debug_str     0x0001d005       0xd3 ../../../../lib/32b/libtcpip.a(lkheap.o)
                               0x1200 (size before relaxing)
 .debug_str     0x0001d0d8      0x76f ../../../../lib/32b/libtcpip.a(llconfig.o)
                               0x41e5 (size before relaxing)
 .debug_str     0x0001d847       0xed ../../../../lib/32b/libtcpip.a(m.o)
                               0x2acc (size before relaxing)
 .debug_str     0x0001d934       0x27 ../../../../lib/32b/libtcpip.a(md.o)
                               0x10c9 (size before relaxing)
 .debug_str     0x0001d95b       0x42 ../../../../lib/32b/libtcpip.a(md5.o)
                                0x115 (size before relaxing)
 .debug_str     0x0001d99d       0x96 ../../../../lib/32b/libtcpip.a(msm.o)
                               0x2a22 (size before relaxing)
 .debug_str     0x0001da33       0x8f ../../../../lib/32b/libtcpip.a(ncaf.o)
                               0x319c (size before relaxing)
 .debug_str     0x0001dac2       0x4a ../../../../lib/32b/libtcpip.a(naadddev.o)
                               0x2ac2 (size before relaxing)
 .debug_str     0x0001db0c      0x160 ../../../../lib/32b/libtcpip.a(ncdev.o)
                               0x3a95 (size before relaxing)
 .debug_str     0x0001dc6c      0x1a4 ../../../../lib/32b/libtcpip.a(ncdid.o)
                               0x2b7d (size before relaxing)
 .debug_str     0x0001de10      0x1c9 ../../../../lib/32b/libtcpip.a(ncmisc.o)
                               0x3ebf (size before relaxing)
 .debug_str     0x0001dfd9      0x1ae ../../../../lib/32b/libtcpip.a(ncpr.o)
                               0x32fa (size before relaxing)
 .debug_str     0x0001e187       0xe7 ../../../../lib/32b/libtcpip.a(q.o)
                               0x2ad0 (size before relaxing)
 .debug_str     0x0001e26e       0x35 ../../../../lib/32b/libtcpip.a(secure.o)
                               0x12ac (size before relaxing)
 .debug_str     0x0001e2a3       0xa9 ../../../../lib/32b/libtcpip.a(select.o)
                               0x2a61 (size before relaxing)
 .debug_str     0x0001e34c      0x1d5 ../../../../lib/32b/libtcpip.a(sock.o)
                               0x2c12 (size before relaxing)
 .debug_str     0x0001e521       0x33 ../../../../lib/32b/libtcpip.a(sop.o)
                               0x29be (size before relaxing)
 .debug_str     0x0001e554       0x8c ../../../../lib/32b/libtcpip.a(timer.o)
                               0x2a8b (size before relaxing)
 .debug_str     0x0001e5e0       0x5f ../../../../lib/32b/libtcpip.a(twq.o)
                               0x29f0 (size before relaxing)
 .debug_str     0x0001e63f       0xbd ../../../../lib/32b/libtcpip.a(udpnetd.o)
                               0x2afe (size before relaxing)
 .debug_str     0x0001e6fc       0x49 ../../../../lib/32b/libtcpip.a(udpopt.o)
                               0x29ca (size before relaxing)
 .debug_str     0x0001e745       0x73 ../../../../lib/32b/libtcpip.a(udpsock.o)
                               0x2a59 (size before relaxing)
 .debug_str     0x0001e7b8       0xc9 ../../../../lib/32b/libtcpip.a(tcpxmit.o)
                               0x2a94 (size before relaxing)
 .debug_str     0x0001e881      0x3b1 ../../../../lib/32b/libtcpip.a(tcpnetd.o)
                               0x2ecb (size before relaxing)
 .debug_str     0x0001ec32      0x185 ../../../../lib/32b/libtcpip.a(tcpsend.o)
                               0x2bd1 (size before relaxing)
 .debug_str     0x0001edb7      0x377 ../../../../lib/32b/libtcpip.a(tcpsock.o)
                               0x2df0 (size before relaxing)
 .debug_str     0x0001f12e      0x38d ../../../../lib/32b/libtcpip.a(tcpmisc.o)
                               0x2f04 (size before relaxing)
 .debug_str     0x0001f4bb       0xf8 ../../../../lib/32b/libtcpip.a(tcptrans.o)
                               0x2a88 (size before relaxing)
 .debug_str     0x0001f5b3       0x62 ../../../../lib/32b/libtcpip.a(tcpimpco.o)
                               0x29e7 (size before relaxing)
 .debug_str     0x0001f615      0x1d6 ../../../../lib/32b/libtcpip.a(igmp.o)
                               0x2ba6 (size before relaxing)
 .debug_str     0x0001f7eb      0x1d5 ../../../../lib/32b/libtcpip.a(socketopt.o)
                               0x2b75 (size before relaxing)
 .debug_str     0x0001f9c0       0xe1 ../../../../lib/32b/libtcpip.a(sockapi.o)
                               0x1c80 (size before relaxing)
 .debug_str     0x0001faa1      0x263 ../../../../lib/32b/libtcpip.a(autoip.o)
                               0x3c52 (size before relaxing)
 .debug_str     0x0001fd04      0x119 ../../../../lib/32b/libtcpip.a(rricirc.o)
                               0x2119 (size before relaxing)
 .debug_str     0x0001fe1d      0x42a ../../../../lib/32b/libtcpip.a(rripfdb.o)
                               0x2482 (size before relaxing)
 .debug_str     0x00020247       0x44 ../../../../lib/32b/libtcpip.a(rripfwd.o)
                               0x1f99 (size before relaxing)
 .debug_str     0x0002028b       0x38 ../../../../lib/32b/libtcpip.a(rrrcirc.o)
                               0x1fdc (size before relaxing)
 .debug_str     0x000202c3       0x90 ../../../../lib/32b/libtcpip.a(rrtask.o)
                               0x39a5 (size before relaxing)
 .debug_str     0x00020353      0x13e ../../../../lib/32b/libtcpip.a(res_init.o)
                               0x1a06 (size before relaxing)
 .debug_str     0x00020491       0xfc ../../../../lib/32b/libtcpip.a(gethnama.o)
                               0x19f7 (size before relaxing)
 .debug_str     0x0002058d      0x19b ../../../../lib/32b/libtcpip.a(dnscache.o)
                               0x2d7d (size before relaxing)
 .debug_str     0x00020728       0xd6 ../../../../lib/32b/libtcpip.a(pppdev.o)
                               0x322c (size before relaxing)
 .debug_str     0x000207fe      0x163 ../../../../lib/32b/libtcpip.a(pppfsm.o)
                               0x326b (size before relaxing)
 .debug_str     0x00020961      0x2a7 ../../../../lib/32b/libtcpip.a(pppipcp.o)
                               0x4348 (size before relaxing)
 .debug_str     0x00020c08      0x246 ../../../../lib/32b/libtcpip.a(ppplcp.o)
                               0x3407 (size before relaxing)
 .debug_str     0x00020e4e      0x1a0 ../../../../lib/32b/libtcpip.a(ppppap.o)
                               0x32ee (size before relaxing)
 .debug_str     0x00020fee       0x6a ../../../../lib/32b/libtcpip.a(pppsend.o)
                               0x31b2 (size before relaxing)
 .debug_str     0x00021058       0x46 ../../../../lib/32b/libtcpip.a(pppsess.o)
                               0x316b (size before relaxing)
 .debug_str     0x0002109e       0x8c ../../../../lib/32b/libtcpip.a(ppputil.o)
                               0x31d4 (size before relaxing)
 .debug_str     0x0002112a      0x135 ../../../../lib/32b/libtcpip.a(pppauth.o)
                               0x3281 (size before relaxing)
 .debug_str     0x0002125f       0x70 ../../../../lib/32b/libtcpip.a(pppuapi.o)
                               0x31bc (size before relaxing)
 .debug_str     0x000212cf      0x77e ../../../../lib/32b/libtcpip.a(dhcpapi.o)
                               0x345f (size before relaxing)
 .debug_str     0x00021a4d       0xbd ../../../../lib/32b/libtcpip.a(dhcparp.o)
                               0x3086 (size before relaxing)
 .debug_str     0x00021b0a       0x39 ../../../../lib/32b/libtcpip.a(options.o)
                               0x2fdc (size before relaxing)
 .debug_str     0x00021b43      0x396 ../../../../lib/32b/libtcpip.a(client.o)
                               0x2710 (size before relaxing)
 .debug_str     0x00021ed9      0x5b6 ../../../../lib/32b/libtcpip.a(pppapi.o)
                               0x47a7 (size before relaxing)
 .debug_str     0x0002248f      0x177 ../../../../lib/32b/libtcpip.a(modem.o)
                               0x483f (size before relaxing)
 .debug_str     0x00022606       0xc8 ../../../../lib/32b/libtcpip.a(uart_bpool.o)
                               0x1147 (size before relaxing)
 .debug_str     0x000226ce      0x142 ../../../../lib/32b/libtcpip.a(osdep.o)
                               0x2b18 (size before relaxing)
 .debug_str     0x00022810       0x70 ../../../../lib/32b/libtcpip.a(bdoptlib.o)
                               0x1179 (size before relaxing)
 .debug_str     0x00022880      0x1e4 ../../../../lib/32b/libtcpip.a(bootpapi.o)
                               0x2e53 (size before relaxing)
 .debug_str     0x00022a64       0x46 ../../../../lib/32b/libtcpip.a(udpxmit.o)
                               0x2a1e (size before relaxing)
 .debug_str     0x00022aaa      0x219 ../../../../lib/32b/libtcpip.a(arp.o)
                               0x2d19 (size before relaxing)
 .debug_str     0x00022cc3       0x1f ../../../../lib/32b/libtcpip.a(bind.o)
                               0x29ab (size before relaxing)
 .debug_str     0x00022ce2       0x1c ../../../../lib/32b/libtcpip.a(connect.o)
                               0x2996 (size before relaxing)
 .debug_str     0x00022cfe       0x3b ../../../../lib/32b/libtcpip.a(enet.o)
                               0x29d6 (size before relaxing)
 .debug_str     0x00022d39       0x39 ../../../../lib/32b/libtcpip.a(frk.o)
                               0x29e2 (size before relaxing)
 .debug_str     0x00022d72       0x64 ../../../../lib/32b/libtcpip.a(frklk.o)
                               0x29ee (size before relaxing)
 .debug_str     0x00022dd6       0x55 ../../../../lib/32b/libtcpip.a(fselect.o)
                               0x2a23 (size before relaxing)
 .debug_str     0x00022e2b       0x21 ../../../../lib/32b/libtcpip.a(getpeern.o)
                               0x299b (size before relaxing)
 .debug_str     0x00022e4c       0x21 ../../../../lib/32b/libtcpip.a(getsockn.o)
                               0x299b (size before relaxing)
 .debug_str     0x00022e6d       0x2d ../../../../lib/32b/libtcpip.a(inet_add.o)
                               0x1cdc (size before relaxing)
 .debug_str     0x00022e9a       0x12 ../../../../lib/32b/libtcpip.a(ip.o)
                               0x299b (size before relaxing)
 .debug_str     0x00022eac       0x82 ../../../../lib/32b/libtcpip.a(lbdev.o)
                               0x29fc (size before relaxing)
 .debug_str     0x00022f2e       0x37 ../../../../lib/32b/libtcpip.a(link.o)
                               0x29b5 (size before relaxing)
 .debug_str     0x00022f65       0x1a ../../../../lib/32b/libtcpip.a(listen.o)
                               0x2994 (size before relaxing)
 .debug_str     0x00022f7f       0x27 ../../../../lib/32b/libtcpip.a(node.o)
                               0x299a (size before relaxing)
 .debug_str     0x00022fa6       0x49 ../../../../lib/32b/libtcpip.a(nselect.o)
                               0x29e6 (size before relaxing)
 .debug_str     0x00022fef       0x29 ../../../../lib/32b/libtcpip.a(pioctl.o)
                               0x29a7 (size before relaxing)
 .debug_str     0x00023018       0x16 ../../../../lib/32b/libtcpip.a(recv.o)
                               0x2990 (size before relaxing)
 .debug_str     0x0002302e       0x1e ../../../../lib/32b/libtcpip.a(recvfrom.o)
                               0x29ad (size before relaxing)
 .debug_str     0x0002304c       0x1e ../../../../lib/32b/libtcpip.a(send.o)
                               0x2998 (size before relaxing)
 .debug_str     0x0002306a       0x1a ../../../../lib/32b/libtcpip.a(sendto.o)
                               0x29a2 (size before relaxing)
 .debug_str     0x00023084       0x1e ../../../../lib/32b/libtcpip.a(shutdown.o)
                               0x299a (size before relaxing)
 .debug_str     0x000230a2       0x58 ../../../../lib/32b/libtcpip.a(sob.o)
                               0x2a27 (size before relaxing)
 .debug_str     0x000230fa       0x34 ../../../../lib/32b/libtcpip.a(socket.o)
                               0x29cc (size before relaxing)
 .debug_str     0x0002312e       0x1a ../../../../lib/32b/libtcpip.a(accept.o)
                               0x29a2 (size before relaxing)
 .debug_str     0x00023148       0x38 ../../../../lib/32b/libtcpip.a(tcpperf.o)
                               0x29ed (size before relaxing)
 .debug_str     0x00023180       0x80 ../../../../lib/32b/libtcpip.a(ndq.o)
                               0x29fc (size before relaxing)
 .debug_str     0x00023200       0x23 ../../../../lib/32b/libtcpip.a(strcmpi.o)
                               0x10c5 (size before relaxing)
 .debug_str     0x00023223       0x3f ../../../../lib/32b/libtcpip.a(inet_pto.o)
                               0x18e3 (size before relaxing)
 .debug_str     0x00023262       0xa3 ../../../../lib/32b/libtcpip.a(res_comp.o)
                               0x1952 (size before relaxing)
 .debug_str     0x00023305       0x8c ../../../../lib/32b/libtcpip.a(res_quer.o)
                               0x196b (size before relaxing)
 .debug_str     0x00023391       0xc4 ../../../../lib/32b/libtcpip.a(res_send.o)
                               0x1a14 (size before relaxing)
 .debug_str     0x00023455       0xfe ../../../../lib/32b/libtcpip.a(vjcomp.o)
                               0x323e (size before relaxing)
 .debug_str     0x00023553       0x6c ../../../../lib/32b/libtcpip.a(pppbs.o)
                               0x3199 (size before relaxing)
 .debug_str     0x000235bf      0x29a ../../../../lib/32b/libtcpip.a(pppchap.o)
                               0x3456 (size before relaxing)
 .debug_str     0x00023859       0x43 ../../../../lib/32b/libtcpip.a(ppprecv.o)
                               0x31ba (size before relaxing)
 .debug_str     0x0002389c       0x83 ../../../../lib/32b/libtcpip.a(ppp.o)
                               0x31ac (size before relaxing)
 .debug_str     0x0002391f       0xe5 ../../../../lib/32b/libtcpip.a(socketif.o)
                               0x3111 (size before relaxing)
 .debug_str     0x00023a04       0x35 ../../../../lib/32b/libtcpip.a(if.o)
                               0x2f9a (size before relaxing)
 .debug_str     0x00023a39      0x177 ../../../../lib/32b/libtcpip.a(uart.o)
                               0x4864 (size before relaxing)
 .debug_str     0x00023bb0       0x54 ../../../../lib/32b/libtcpip.a(nullmdm.o)
                               0x32c4 (size before relaxing)
 .debug_str     0x00023c04       0x81 ../../../../lib/32b/libtcpip.a(bootp.o)
                               0x2cbd (size before relaxing)
 .debug_str     0x00023c85       0x38 ../../../../lib/32b/libtcpip.a(res_mkqu.o)
                               0x1918 (size before relaxing)
 .debug_str     0x00023cbd       0x4d ../../../../lib/32b/gnu/libc.a(assert.o)
                                0x637 (size before relaxing)
 .debug_str     0x00023d0a       0x38 ../../../../lib/32b/gnu/libc.a(bzero.o)
                                0x4a3 (size before relaxing)
 .debug_str     0x00023d42       0x3c ../../../../lib/32b/gnu/libc.a(div.o)
                                0x4b4 (size before relaxing)
 .debug_str     0x00023d7e       0x3a ../../../../lib/32b/gnu/libc.a(fiprintf.o)
                                0x60c (size before relaxing)
 .debug_str     0x00023db8       0x82 ../../../../lib/32b/gnu/libc.a(libcfunc.o)
                                 0xc5 (size before relaxing)
 .debug_str     0x00023e3a       0x43 ../../../../lib/32b/gnu/libc.a(puts.o)
                                0x66a (size before relaxing)
 .debug_str     0x00023e7d       0x3d ../../../../lib/32b/gnu/libc.a(sysclose.o)
                                0x4dc (size before relaxing)
 .debug_str     0x00023eba       0x3c ../../../../lib/32b/gnu/libc.a(sysread.o)
                                0x600 (size before relaxing)
 .debug_str     0x00023ef6       0x3d ../../../../lib/32b/gnu/libc.a(syswrite.o)
                                0x602 (size before relaxing)
 .debug_str     0x00023f33       0x17 ../../../../lib/32b/gnu/libc.a(vfiprintf.o)
                                0x90c (size before relaxing)
 .debug_str     0x00023f4a       0x3e ../../../../lib/32b/gnu/libc.a(wbuf.o)
                                0x665 (size before relaxing)
 .debug_str     0x00023f88     0x49f3 ../../../../lib/32b/librphttpd.a(RpForm.o)
                               0x6df1 (size before relaxing)
 .debug_str     0x0002897b      0x749 ../../../../lib/32b/librphttpd.a(RpHtml.o)
                               0x70c7 (size before relaxing)
 .debug_str     0x000290c4       0xbc ../../../../lib/32b/librphttpd.a(RpQuery.o)
                               0x68ff (size before relaxing)
 .debug_str     0x00029180      0x363 ../../../../lib/32b/librphttpd.a(hserv.o)
                               0x8325 (size before relaxing)
 .debug_str     0x000294e3      0x24f ../../../../lib/32b/librphttpd.a(RpHttp.o)
                               0x6af8 (size before relaxing)
 .debug_str     0x00029732       0xc3 ../../../../lib/32b/librphttpd.a(RpFrmItm.o)
                               0x68d7 (size before relaxing)
 .debug_str     0x000297f5      0x376 ../../../../lib/32b/librphttpd.a(RmSmtp.o)
                               0x6c81 (size before relaxing)
 .debug_str     0x00029b6b      0x2da ../../../../lib/32b/librphttpd.a(AsCommon.o)
                               0x6c63 (size before relaxing)
 .debug_str     0x00029e45      0x18d ../../../../lib/32b/librphttpd.a(AsDate.o)
                               0x75d2 (size before relaxing)
 .debug_str     0x00029fd2       0x27 ../../../../lib/32b/librphttpd.a(AsGlobal.o)
                               0x6814 (size before relaxing)
 .debug_str     0x00029ff9      0x393 ../../../../lib/32b/librphttpd.a(AsMain.o)
                               0x86ec (size before relaxing)
 .debug_str     0x0002a38c       0xf1 ../../../../lib/32b/librphttpd.a(AsMimes.o)
                               0x6919 (size before relaxing)
 .debug_str     0x0002a47d      0x263 ../../../../lib/32b/librphttpd.a(AsParse.o)
                               0x6aa8 (size before relaxing)
 .debug_str     0x0002a6e0      0x16e ../../../../lib/32b/librphttpd.a(AsBase64.o)
                               0x699a (size before relaxing)
 .debug_str     0x0002a84e      0x2a0 ../../../../lib/32b/librphttpd.a(AsConvrt.o)
                               0x6ba1 (size before relaxing)
 .debug_str     0x0002aaee      0x1cf ../../../../lib/32b/librphttpd.a(AsVarAcc.o)
                               0x6b90 (size before relaxing)
 .debug_str     0x0002acbd       0xa7 ../../../../lib/32b/librphttpd.a(AsCustom.o)
                               0x6905 (size before relaxing)
 .debug_str     0x0002ad64      0x2fe ../../../../lib/32b/librphttpd.a(Sfil.o)
                               0x77f3 (size before relaxing)
 .debug_str     0x0002b062      0x3af ../../../../lib/32b/librphttpd.a(STCP.o)
                               0x816c (size before relaxing)
 .debug_str     0x0002b411      0x576 ../../../../lib/32b/librphttpd.a(RpAccess.o)
                               0x6fe6 (size before relaxing)
 .debug_str     0x0002b987      0x3d6 ../../../../lib/32b/librphttpd.a(RpData.o)
                               0x6cf5 (size before relaxing)
 .debug_str     0x0002bd5d       0x8c ../../../../lib/32b/librphttpd.a(RpHttpDy.o)
                               0x689d (size before relaxing)
 .debug_str     0x0002bde9       0x37 ../../../../lib/32b/librphttpd.a(RpUser.o)
                               0x6846 (size before relaxing)
 .debug_str     0x0002be20      0x206 ../../../../lib/32b/librphttpd.a(mcfil.o)
                               0x116d (size before relaxing)
 .debug_str     0x0002c026      0x163 ../../../../lib/32b/librphttpd.a(RpHttpRq.o)
                               0x7538 (size before relaxing)
 .debug_str     0x0002c189      0x334 ../../../../lib/32b/librphttpd.a(RpHttpPs.o)
                               0x6c02 (size before relaxing)
 .debug_str     0x0002c4bd       0x8c ../../../../lib/32b/librphttpd.a(RpFile.o)
                               0x6903 (size before relaxing)
 .debug_str     0x0002c549      0x42b ../../../../lib/32b/librphttpd.a(RmMailer.o)
                               0x6cb5 (size before relaxing)
 .debug_str     0x0002c974       0x28 ../../../../lib/32b/librphttpd.a(RmData.o)
                               0x6819 (size before relaxing)
 .debug_str     0x0002c99c      0x7f7 ../../../../lib/32b/librphttpd.a(PrPop3.o)
                               0x71bd (size before relaxing)
 .debug_str     0x0002d193       0x25 ../../../../lib/32b/librphttpd.a(PrData.o)
                               0x6815 (size before relaxing)
 .debug_str     0x0002d1b8      0x1cb ../../../../lib/32b/librphttpd.a(maw_main.o)
                               0x4140 (size before relaxing)
 .debug_str     0x0002d383       0xae ../../../../lib/32b/librphttpd.a(AsMD5.o)
                               0x68e9 (size before relaxing)
 .debug_str     0x0002d431      0x140 ../../../../lib/32b/librphttpd.a(Spwd.o)
                               0x6a0f (size before relaxing)
 .debug_str     0x0002d571      0x1a1 ../../../../lib/32b/librphttpd.a(RpCallBk.o)
                               0x69ef (size before relaxing)
 .debug_str     0x0002d712      0x214 ../../../../lib/32b/librphttpd.a(RpMulti.o)
                               0x6afd (size before relaxing)
 .debug_str     0x0002d926       0x91 ../../../../lib/32b/librphttpd.a(RpUrl.o)
                               0x6930 (size before relaxing)
 .debug_str     0x0002d9b7      0x2c1 ../../../../lib/32b/librphttpd.a(PrRomPop.o)
                               0x6bab (size before relaxing)
 .debug_str     0x0002dc78      0x555 ../../../../lib/32b/libmanMib.a(MibMan.o)
                               0x1d43 (size before relaxing)
 .debug_str     0x0002e1cd      0x70e ../../../../lib/32b/libmanMib.a(RFC1213_MIB.o)
                               0x4a77 (size before relaxing)
 .debug_str     0x0002e8db       0xa3 ../../../../lib/32b/libmanMib.a(SNMPv2_MIB.o)
                               0x4710 (size before relaxing)
 .debug_str     0x0002e97e      0x11a ../../../../lib/32b/libmanMib.a(RFC1213_MIBAction.o)
                               0x1bde (size before relaxing)
 .debug_str     0x0002ea98       0x32 ../../../../lib/32b/libmanMib.a(SNMPv2_MIBAction.o)
                               0x1733 (size before relaxing)
 .debug_str     0x0002eaca      0x1bb ../../../../lib/32b/libmanMib.a(man_sys.o)
                               0x46fe (size before relaxing)
 .debug_str     0x0002ec85      0x277 ../../../../lib/32b/libmanMib.a(man_if.o)
                               0x4815 (size before relaxing)
 .debug_str     0x0002eefc       0x87 ../../../../lib/32b/libmanMib.a(man_at.o)
                               0x4608 (size before relaxing)
 .debug_str     0x0002ef83      0x574 ../../../../lib/32b/libmanMib.a(man_ip.o)
                               0x4ce9 (size before relaxing)
 .debug_str     0x0002f4f7      0x286 ../../../../lib/32b/libmanMib.a(man_icmp.o)
                               0x4a8b (size before relaxing)
 .debug_str     0x0002f77d      0x257 ../../../../lib/32b/libmanMib.a(man_tcp.o)
                               0x48ef (size before relaxing)
 .debug_str     0x0002f9d4       0xdc ../../../../lib/32b/libmanMib.a(man_upd.o)
                               0x46bc (size before relaxing)
 .debug_str     0x0002fab0      0x2b9 ../../../../lib/32b/libmanMib.a(man_egp.o)
                               0x4817 (size before relaxing)
 .debug_str     0x0002fd69      0x525 ../../../../lib/32b/libmanMib.a(man_snmp.o)
                               0x4a47 (size before relaxing)
 .debug_str     0x0003028e      0x476 ../../../../lib/32b/libsntp.a(UDPsntp.o)
                               0x1b4e (size before relaxing)
 .debug_str     0x00030704      0x7e4 ../../../../lib/32b/libfilesys.a(fss.o)
                               0x202b (size before relaxing)
 .debug_str     0x00030ee8       0xc1 ../../../../lib/32b/libfilesys.a(rss.o)
                               0x1a26 (size before relaxing)
 .debug_str     0x00030fa9       0x2f ../../../../lib/32b/libfilesys.a(crc32h.o)
                                0x1cc (size before relaxing)
 .debug_str     0x00030fd8       0xe0 ../../../../lib/32b/libfilesys.a(bheader.o)
                               0x1148 (size before relaxing)
 .debug_str     0x000310b8      0x836 ../../../../lib/32b/libfilesys.a(fs_api.o)
                               0x249c (size before relaxing)
 .debug_str     0x000318ee      0x757 ../../../../lib/32b/libfilesys.a(io.o)
                               0x261a (size before relaxing)
 .debug_str     0x00032045       0xe3 ../../../../lib/32b/libfilesys.a(parser.o)
                               0x1629 (size before relaxing)
 .debug_str     0x00032128      0x3ff ../../../../lib/32b/libfilesys.a(ftables.o)
                               0x1fd0 (size before relaxing)
 .debug_str     0x00032527       0xbc ../../../../lib/32b/libfilesys.a(thread.o)
                               0x1cc1 (size before relaxing)
 .debug_str     0x000325e3      0x24d ../../../../lib/32b/libfilesys.a(sblock.o)
                                0x359 (size before relaxing)
 .debug_str     0x00032830        0xc ../../../../lib/32b/libfilesys.a(bpool.o)
                               0x1bb4 (size before relaxing)
 .debug_str     0x0003283c      0x391 ../../../../lib/32b/libfilesys.a(pwr_loss.o)
                               0x228c (size before relaxing)
 .debug_str     0x00032bcd      0x20c ../../../../lib/32b/libfilesys.a(inode.o)
                               0x1e3f (size before relaxing)
 .debug_str     0x00032dd9       0xb9 ../../../../lib/32b/libfilesys.a(services.o)
                               0x1a43 (size before relaxing)
 .debug_str     0x00032e92      0x319 ../../../../lib/32b/libbsp.a(MII.o)
                               0x2386 (size before relaxing)
 .debug_str     0x000331ab       0x46 ../../../../lib/32b/libbsp.a(select_support.o)
                               0x1706 (size before relaxing)
 .debug_str     0x000331f1       0xd7 ../../../../lib/32b/libbsp.a(eth_init.o)
                               0x24df (size before relaxing)
 .debug_str     0x000332c8      0x14d ../../../../lib/32b/libbsp.a(eth_dma.o)
                               0x2499 (size before relaxing)
 .debug_str     0x00033415       0x95 ../../../../lib/32b/libbsp.a(eth_isr.o)
                               0x249a (size before relaxing)
 .debug_str     0x000334aa       0xed ../../../../lib/32b/libbsp.a(eth_mcast.o)
                               0x2350 (size before relaxing)
 .debug_str     0x00033597      0x189 ../../../../lib/32b/libbsp.a(eth_os.o)
                               0x24d6 (size before relaxing)
 .debug_str     0x00033720      0x16e ../../../../lib/32b/libbsp.a(eth_recv.o)
                               0x2a74 (size before relaxing)
 .debug_str     0x0003388e      0x100 ../../../../lib/32b/libbsp.a(eth_send.o)
                               0x2acc (size before relaxing)
 .debug_str     0x0003398e      0x2bb ../../../../lib/32b/libbsp.a(eth_stack.o)
                               0x3355 (size before relaxing)
 .debug_str     0x00033c49       0xc3 ../../../../lib/32b/libbsp.a(eth_watchdog.o)
                               0x2461 (size before relaxing)
 .debug_str     0x00033d0c      0x141 ../../../../lib/32b/libbsp.a(eth_reset.o)
                               0x23b5 (size before relaxing)
 .debug_str     0x00033e4d       0x22 ../../../../lib/32b/libtx.a(tx_timeg.o)
                                0xc03 (size before relaxing)
 .debug_str     0x00033e6f       0x37 ../../../../lib/32b/libtx.a(txe_efs.o)
                                0xbfe (size before relaxing)
 .debug_str     0x00033ea6       0x29 ../../../../lib/32b/libtx.a(txe_tpch.o)
                                0xc3c (size before relaxing)
 .debug_str     0x00033ecf       0x22 ../../../../lib/32b/libtx.a(txe_trel.o)
                                0xc07 (size before relaxing)
 .debug_str     0x00033ef1       0x35 ../../../../lib/32b/libtx.a(TXE_TIG.o)
                                0xc47 (size before relaxing)
 .debug_str     0x00033f26       0x1b ../../../../lib/32b/libtx.a(TXE_MD.o)
                                0xc22 (size before relaxing)
 .debug_str     0x00033f41       0x20 ../../../../lib/32b/libtx.a(tx_trel.o)
                                0xc7a (size before relaxing)
 .debug_str     0x00033f61       0x27 ../../../../lib/32b/libtx.a(tx_tpch.o)
                                0xc9f (size before relaxing)
 .debug_str     0x00033f88       0x6e ../../../../lib/32b/libtx.a(tx_efs.o)
                                0xce8 (size before relaxing)
 .debug_str     0x00033ff6       0x1d ../../../../lib/32b/libtx.a(TX_TIG.o)
                                0xc52 (size before relaxing)
 .debug_str     0x00034013       0x19 ../../../../lib/32b/libtx.a(TX_MD.o)
                                0xc6f (size before relaxing)
 .debug_str     0x0003402c      0xc3a ../../../../lib/32b/libemailc.a(allegro_mailc.o)
                               0x8aec (size before relaxing)
 .debug_str     0x00034c66       0x27 ../../../../lib/32b/libtcpip.a(udpopen.o)
                               0x2999 (size before relaxing)
 .debug_str     0x00034c8d       0x19 ../../../../lib/32b/libtcpip.a(strcpy.o)
                               0x10c0 (size before relaxing)
 .debug_str     0x00034ca6       0x19 ../../../../lib/32b/libtcpip.a(strlen.o)
                               0x10bb (size before relaxing)
 .debug_str     0x00034cbf       0x4b ../../../../lib/32b/libtcpip.a(memory.o)
                               0x10ed (size before relaxing)
 .debug_str     0x00034d0a       0x1b ../../../../lib/32b/libtcpip.a(ipbind.o)
                               0x29a3 (size before relaxing)
 .debug_str     0x00034d25       0x3c ../../../../lib/32b/gnu/libc.a(atol.o)
                                0x4b4 (size before relaxing)
 .debug_str     0x00034d61       0x3d ../../../../lib/32b/gnu/libc.a(rand.o)
                                0x504 (size before relaxing)
 .debug_str     0x00034d9e       0x35 ../../../../lib/32b/gnu/libc.a(time.o)
                                0x62d (size before relaxing)
 .debug_str     0x00034dd3       0x68 ../../../../lib/32b/gnu/libc.a(timer.o)
                                0x6db (size before relaxing)

.debug_loc
 *(.debug_loc)

.debug_macinfo
 *(.debug_macinfo)

.debug_weaknames
 *(.debug_weaknames)

.debug_funcnames
 *(.debug_funcnames)

.debug_typenames
 *(.debug_typenames)

.debug_varnames
 *(.debug_varnames)
OUTPUT(image.elf elf32-bigarm)

.debug_ranges   0x00000000     0x1938
 .debug_ranges  0x00000000       0x18 /usr/lib/gcc-lib/arm-elf/3.2/be/libgcc.a(_addsub_sf.o)
 .debug_ranges  0x00000018       0x18 /usr/lib/gcc-lib/arm-elf/3.2/be/libgcc.a(_pack_sf.o)
 .debug_ranges  0x00000030       0x18 /usr/lib/gcc-lib/arm-elf/3.2/be/libgcc.a(_pack_df.o)
 .debug_ranges  0x00000048       0x18 /usr/lib/gcc-lib/arm-elf/3.2/be/libgcc.a(_lshrdi3.o)
 .debug_ranges  0x00000060       0x18 /usr/lib/gcc-lib/arm-elf/3.2/be/libgcc.a(_ashldi3.o)
 .debug_ranges  0x00000078       0x18 ../../../../lib/32b/gnu/libc.a(callocr.o)
 .debug_ranges  0x00000090       0x30 ../../../../lib/32b/gnu/libc.a(vfscanf.o)
 .debug_ranges  0x000000c0       0x78 ../../../../lib/32b/gnu/libc.a(reallocr.o)
 .debug_ranges  0x00000138      0x100 /usr/lib/gcc-lib/arm-elf/3.2/be/libgcc.a(_udivdi3.o)
 .debug_ranges  0x00000238      0x100 /usr/lib/gcc-lib/arm-elf/3.2/be/libgcc.a(_umoddi3.o)
 .debug_ranges  0x00000338       0x18 /usr/lib/gcc-lib/arm-elf/3.2/be/libgcc.a(_addsub_df.o)
 .debug_ranges  0x00000350       0x68 /usr/lib/gcc-lib/arm-elf/3.2/be/libgcc.a(_mul_df.o)
 .debug_ranges  0x000003b8       0x30 ../../../../lib/32b/libtcpip.a(fnsrr.o)
 .debug_ranges  0x000003e8      0x100 ../../../../lib/32b/libtcpip.a(icmp.o)
 .debug_ranges  0x000004e8       0xd8 ../../../../lib/32b/libtcpip.a(ipfrag.o)
 .debug_ranges  0x000005c0       0x30 ../../../../lib/32b/libtcpip.a(ipmisc.o)
 .debug_ranges  0x000005f0       0x60 ../../../../lib/32b/libtcpip.a(ipnetd.o)
 .debug_ranges  0x00000650       0x58 ../../../../lib/32b/libtcpip.a(ipopt.o)
 .debug_ranges  0x000006a8       0xb0 ../../../../lib/32b/libtcpip.a(ipxmit.o)
 .debug_ranges  0x00000758       0x60 ../../../../lib/32b/libtcpip.a(llconfig.o)
 .debug_ranges  0x000007b8       0x18 ../../../../lib/32b/libtcpip.a(ncdev.o)
 .debug_ranges  0x000007d0       0x18 ../../../../lib/32b/libtcpip.a(q.o)
 .debug_ranges  0x000007e8       0x60 ../../../../lib/32b/libtcpip.a(udpnetd.o)
 .debug_ranges  0x00000848       0x48 ../../../../lib/32b/libtcpip.a(udpsock.o)
 .debug_ranges  0x00000890       0xb0 ../../../../lib/32b/libtcpip.a(tcpxmit.o)
 .debug_ranges  0x00000940      0x338 ../../../../lib/32b/libtcpip.a(tcpnetd.o)
 .debug_ranges  0x00000c78      0x110 ../../../../lib/32b/libtcpip.a(tcpsend.o)
 .debug_ranges  0x00000d88      0x160 ../../../../lib/32b/libtcpip.a(tcpmisc.o)
 .debug_ranges  0x00000ee8       0x50 ../../../../lib/32b/libtcpip.a(igmp.o)
 .debug_ranges  0x00000f38       0x20 ../../../../lib/32b/libtcpip.a(autoip.o)
 .debug_ranges  0x00000f58       0xc0 ../../../../lib/32b/libtcpip.a(rripfdb.o)
 .debug_ranges  0x00001018       0x30 ../../../../lib/32b/libtcpip.a(pppfsm.o)
 .debug_ranges  0x00001048       0x88 ../../../../lib/32b/libtcpip.a(pppipcp.o)
 .debug_ranges  0x000010d0       0x80 ../../../../lib/32b/libtcpip.a(ppplcp.o)
 .debug_ranges  0x00001150       0x28 ../../../../lib/32b/libtcpip.a(ppppap.o)
 .debug_ranges  0x00001178       0x20 ../../../../lib/32b/libtcpip.a(pppauth.o)
 .debug_ranges  0x00001198       0x18 ../../../../lib/32b/libtcpip.a(dhcpapi.o)
 .debug_ranges  0x000011b0       0x28 ../../../../lib/32b/libtcpip.a(dhcparp.o)
 .debug_ranges  0x000011d8      0x1c0 ../../../../lib/32b/libtcpip.a(client.o)
 .debug_ranges  0x00001398       0x18 ../../../../lib/32b/libtcpip.a(bootpapi.o)
 .debug_ranges  0x000013b0       0x90 ../../../../lib/32b/libtcpip.a(udpxmit.o)
 .debug_ranges  0x00001440       0x90 ../../../../lib/32b/libtcpip.a(arp.o)
 .debug_ranges  0x000014d0       0x18 ../../../../lib/32b/libtcpip.a(fselect.o)
 .debug_ranges  0x000014e8       0x18 ../../../../lib/32b/libtcpip.a(inet_pto.o)
 .debug_ranges  0x00001500       0x18 ../../../../lib/32b/libtcpip.a(res_comp.o)
 .debug_ranges  0x00001518       0x18 ../../../../lib/32b/libtcpip.a(res_quer.o)
 .debug_ranges  0x00001530       0x60 ../../../../lib/32b/libtcpip.a(res_send.o)
 .debug_ranges  0x00001590      0x158 ../../../../lib/32b/libtcpip.a(vjcomp.o)
 .debug_ranges  0x000016e8       0x28 ../../../../lib/32b/libtcpip.a(pppchap.o)
 .debug_ranges  0x00001710       0x20 ../../../../lib/32b/libtcpip.a(ppprecv.o)
 .debug_ranges  0x00001730       0x30 ../../../../lib/32b/libtcpip.a(uart.o)
 .debug_ranges  0x00001760       0xa8 ../../../../lib/32b/libtcpip.a(bootp.o)
 .debug_ranges  0x00001808      0x130 ../../../../lib/32b/libtcpip.a(res_mkqu.o)
